CCS PCH C Compiler, Version 5.025, 51182               29-jun-14 23:15

               Filename:   D:\Dropbox\Gonzalo\Proyecto Casandra\Estacion MET y LCD\Prueba LCD\main.lst

               ROM used:   37510 bytes (57%)
                           Largest free fragment is 28022
               RAM used:   273 (7%) at main() level
                           316 (8%) worst case
               Stack used: 8 locations (6 in main + 2 for interrupts)
               Stack size: 31

*
00000:  GOTO   916C
*
00008:  MOVWF  04
0000A:  MOVFF  FD8,05
0000E:  MOVFF  FE0,06
00012:  MOVLB  0
00014:  MOVFF  FE9,0C
00018:  MOVFF  FEA,07
0001C:  MOVFF  FE1,08
00020:  MOVFF  FE2,09
00024:  MOVFF  FD9,0A
00028:  MOVFF  FDA,0B
0002C:  MOVFF  FF3,12
00030:  MOVFF  FF4,13
00034:  MOVFF  FFA,14
00038:  MOVFF  FF5,15
0003C:  MOVFF  FF6,16
00040:  MOVFF  FF7,17
00044:  MOVFF  00,0E
00048:  MOVFF  01,0F
0004C:  MOVFF  02,10
00050:  MOVFF  03,11
00054:  BTFSS  F9D.0
00056:  GOTO   0060
0005A:  BTFSC  F9E.0
0005C:  GOTO   15FC
00060:  BTFSS  F9D.5
00062:  GOTO   006C
00066:  BTFSC  F9E.5
00068:  GOTO   0C6C
0006C:  MOVFF  0E,00
00070:  MOVFF  0F,01
00074:  MOVFF  10,02
00078:  MOVFF  11,03
0007C:  MOVFF  0C,FE9
00080:  MOVFF  07,FEA
00084:  BSF    07.7
00086:  MOVFF  08,FE1
0008A:  MOVFF  09,FE2
0008E:  MOVFF  0A,FD9
00092:  MOVFF  0B,FDA
00096:  MOVFF  12,FF3
0009A:  MOVFF  13,FF4
0009E:  MOVFF  14,FFA
000A2:  MOVFF  15,FF5
000A6:  MOVFF  16,FF6
000AA:  MOVFF  17,FF7
000AE:  MOVF   04,W
000B0:  MOVFF  06,FE0
000B4:  MOVFF  05,FD8
000B8:  RETFIE 0
.................... /*====================================================================================================== 
.................... ||   Proyecto: Casandra v1.0                                                                          || 
.................... ||   Autor: Gonzalo Carvallo (gonzacarv@gmail.com)                                                    || 
.................... ||   Fecha: 07/2014                                                                                   || 
.................... ||   Compilador: PCWHD v5.025 (www.ccsinfo.com)                                                       || 
.................... ||   Fuente: http://                                                                                  || 
.................... ||                                                                                                    || 
.................... || Firmware del modulo servidor (display, teclado, sensor de humedad y temperatura) correspondiente   || 
.................... || al sistema domotico CASANDRA. Control general con uso intensivo de EEPROM. Comunicacion sobre par  || 
.................... || trensado usando el transceptor SN75176.                                                            || 
.................... ||                                                                                                    || 
.................... ======================================================================================================*/ 
....................  
.................... #include <18f4620.h> 
.................... //////////// Standard Header file for the PIC18F4620 device //////////////// 
.................... /////////////////////////////////////////////////////////////////////////// 
.................... ////        (C) Copyright 1996, 2013 Custom Computer Services          //// 
.................... //// This source code may only be used by licensed users of the CCS C  //// 
.................... //// compiler.  This source code may only be distributed to other      //// 
.................... //// licensed users of the CCS C compiler.  No other use, reproduction //// 
.................... //// or distribution is permitted without written permission.          //// 
.................... //// Derivative programs created using this software in object code    //// 
.................... //// form are not restricted in any way.                               //// 
.................... /////////////////////////////////////////////////////////////////////////// 
.................... #device PIC18F4620 
000BA:  CLRF   FF7
000BC:  ADDLW  CA
000BE:  MOVWF  FF6
000C0:  MOVLW  00
000C2:  ADDWFC FF7,F
000C4:  TBLRD*+
000C6:  MOVF   FF5,W
000C8:  RETURN 0
000CA:  DATA 28,0C
000CC:  DATA 01,06
000CE:  CLRF   FF7
000D0:  ADDLW  DE
000D2:  MOVWF  FF6
000D4:  MOVLW  00
000D6:  ADDWFC FF7,F
000D8:  TBLRD*+
000DA:  MOVF   FF5,W
000DC:  RETURN 0
000DE:  DATA 4F,4E
000E0:  DATA 00,00
000E2:  CLRF   FF7
000E4:  ADDLW  F2
000E6:  MOVWF  FF6
000E8:  MOVLW  00
000EA:  ADDWFC FF7,F
000EC:  TBLRD*+
000EE:  MOVF   FF5,W
000F0:  RETURN 0
000F2:  DATA 4F,46
000F4:  DATA 46,00
000F6:  CLRF   FF7
000F8:  ADDLW  06
000FA:  MOVWF  FF6
000FC:  MOVLW  01
000FE:  ADDWFC FF7,F
00100:  TBLRD*+
00102:  MOVF   FF5,W
00104:  RETURN 0
00106:  DATA 53,49
00108:  DATA 00,00
0010A:  CLRF   FF7
0010C:  ADDLW  1A
0010E:  MOVWF  FF6
00110:  MOVLW  01
00112:  ADDWFC FF7,F
00114:  TBLRD*+
00116:  MOVF   FF5,W
00118:  RETURN 0
0011A:  DATA 4E,4F
0011C:  DATA 00,00
0011E:  CLRF   FF7
00120:  ADDLW  2E
00122:  MOVWF  FF6
00124:  MOVLW  01
00126:  ADDWFC FF7,F
00128:  TBLRD*+
0012A:  MOVF   FF5,W
0012C:  RETURN 0
0012E:  DATA 4C,75
00130:  DATA 6E,65
00132:  DATA 73,20
00134:  DATA 20,20
00136:  DATA 20,00
00138:  CLRF   FF7
0013A:  ADDLW  48
0013C:  MOVWF  FF6
0013E:  MOVLW  01
00140:  ADDWFC FF7,F
00142:  TBLRD*+
00144:  MOVF   FF5,W
00146:  RETURN 0
00148:  DATA 4D,61
0014A:  DATA 72,74
0014C:  DATA 65,73
0014E:  DATA 20,20
00150:  DATA 20,00
00152:  CLRF   FF7
00154:  ADDLW  62
00156:  MOVWF  FF6
00158:  MOVLW  01
0015A:  ADDWFC FF7,F
0015C:  TBLRD*+
0015E:  MOVF   FF5,W
00160:  RETURN 0
00162:  DATA 4D,69
00164:  DATA 65,72
00166:  DATA 63,6F
00168:  DATA 6C,65
0016A:  DATA 73,00
0016C:  CLRF   FF7
0016E:  ADDLW  7C
00170:  MOVWF  FF6
00172:  MOVLW  01
00174:  ADDWFC FF7,F
00176:  TBLRD*+
00178:  MOVF   FF5,W
0017A:  RETURN 0
0017C:  DATA 4A,75
0017E:  DATA 65,76
00180:  DATA 65,73
00182:  DATA 20,20
00184:  DATA 20,00
00186:  CLRF   FF7
00188:  ADDLW  96
0018A:  MOVWF  FF6
0018C:  MOVLW  01
0018E:  ADDWFC FF7,F
00190:  TBLRD*+
00192:  MOVF   FF5,W
00194:  RETURN 0
00196:  DATA 56,69
00198:  DATA 65,72
0019A:  DATA 6E,65
0019C:  DATA 73,20
0019E:  DATA 20,00
001A0:  CLRF   FF7
001A2:  ADDLW  B0
001A4:  MOVWF  FF6
001A6:  MOVLW  01
001A8:  ADDWFC FF7,F
001AA:  TBLRD*+
001AC:  MOVF   FF5,W
001AE:  RETURN 0
001B0:  DATA 53,61
001B2:  DATA 62,61
001B4:  DATA 64,6F
001B6:  DATA 20,20
001B8:  DATA 20,00
001BA:  CLRF   FF7
001BC:  ADDLW  CA
001BE:  MOVWF  FF6
001C0:  MOVLW  01
001C2:  ADDWFC FF7,F
001C4:  TBLRD*+
001C6:  MOVF   FF5,W
001C8:  RETURN 0
001CA:  DATA 44,6F
001CC:  DATA 6D,69
001CE:  DATA 6E,67
001D0:  DATA 6F,20
001D2:  DATA 20,00
001D4:  CLRF   FF7
001D6:  ADDLW  E4
001D8:  MOVWF  FF6
001DA:  MOVLW  01
001DC:  ADDWFC FF7,F
001DE:  TBLRD*+
001E0:  MOVF   FF5,W
001E2:  RETURN 0
001E4:  DATA 45,6E
001E6:  DATA 65,00
001E8:  CLRF   FF7
001EA:  ADDLW  F8
001EC:  MOVWF  FF6
001EE:  MOVLW  01
001F0:  ADDWFC FF7,F
001F2:  TBLRD*+
001F4:  MOVF   FF5,W
001F6:  RETURN 0
001F8:  DATA 46,65
001FA:  DATA 62,00
001FC:  CLRF   FF7
001FE:  ADDLW  0C
00200:  MOVWF  FF6
00202:  MOVLW  02
00204:  ADDWFC FF7,F
00206:  TBLRD*+
00208:  MOVF   FF5,W
0020A:  RETURN 0
0020C:  DATA 4D,61
0020E:  DATA 72,00
00210:  CLRF   FF7
00212:  ADDLW  20
00214:  MOVWF  FF6
00216:  MOVLW  02
00218:  ADDWFC FF7,F
0021A:  TBLRD*+
0021C:  MOVF   FF5,W
0021E:  RETURN 0
00220:  DATA 41,62
00222:  DATA 72,00
00224:  CLRF   FF7
00226:  ADDLW  34
00228:  MOVWF  FF6
0022A:  MOVLW  02
0022C:  ADDWFC FF7,F
0022E:  TBLRD*+
00230:  MOVF   FF5,W
00232:  RETURN 0
00234:  DATA 4D,61
00236:  DATA 79,00
00238:  CLRF   FF7
0023A:  ADDLW  48
0023C:  MOVWF  FF6
0023E:  MOVLW  02
00240:  ADDWFC FF7,F
00242:  TBLRD*+
00244:  MOVF   FF5,W
00246:  RETURN 0
00248:  DATA 4A,75
0024A:  DATA 6E,00
0024C:  CLRF   FF7
0024E:  ADDLW  5C
00250:  MOVWF  FF6
00252:  MOVLW  02
00254:  ADDWFC FF7,F
00256:  TBLRD*+
00258:  MOVF   FF5,W
0025A:  RETURN 0
0025C:  DATA 4A,75
0025E:  DATA 6C,00
00260:  CLRF   FF7
00262:  ADDLW  70
00264:  MOVWF  FF6
00266:  MOVLW  02
00268:  ADDWFC FF7,F
0026A:  TBLRD*+
0026C:  MOVF   FF5,W
0026E:  RETURN 0
00270:  DATA 41,67
00272:  DATA 6F,00
00274:  CLRF   FF7
00276:  ADDLW  84
00278:  MOVWF  FF6
0027A:  MOVLW  02
0027C:  ADDWFC FF7,F
0027E:  TBLRD*+
00280:  MOVF   FF5,W
00282:  RETURN 0
00284:  DATA 53,65
00286:  DATA 70,00
00288:  CLRF   FF7
0028A:  ADDLW  98
0028C:  MOVWF  FF6
0028E:  MOVLW  02
00290:  ADDWFC FF7,F
00292:  TBLRD*+
00294:  MOVF   FF5,W
00296:  RETURN 0
00298:  DATA 4F,63
0029A:  DATA 74,00
0029C:  CLRF   FF7
0029E:  ADDLW  AC
002A0:  MOVWF  FF6
002A2:  MOVLW  02
002A4:  ADDWFC FF7,F
002A6:  TBLRD*+
002A8:  MOVF   FF5,W
002AA:  RETURN 0
002AC:  DATA 4E,6F
002AE:  DATA 76,00
002B0:  CLRF   FF7
002B2:  ADDLW  C0
002B4:  MOVWF  FF6
002B6:  MOVLW  02
002B8:  ADDWFC FF7,F
002BA:  TBLRD*+
002BC:  MOVF   FF5,W
002BE:  RETURN 0
002C0:  DATA 44,69
002C2:  DATA 63,00
002C4:  CLRF   FF7
002C6:  ADDLW  D4
002C8:  MOVWF  FF6
002CA:  MOVLW  02
002CC:  ADDWFC FF7,F
002CE:  TBLRD*+
002D0:  MOVF   FF5,W
002D2:  RETURN 0
002D4:  DATA 4C,75
002D6:  DATA 6E,00
002D8:  CLRF   FF7
002DA:  ADDLW  E8
002DC:  MOVWF  FF6
002DE:  MOVLW  02
002E0:  ADDWFC FF7,F
002E2:  TBLRD*+
002E4:  MOVF   FF5,W
002E6:  RETURN 0
002E8:  DATA 4D,69
002EA:  DATA 65,00
002EC:  CLRF   FF7
002EE:  ADDLW  FC
002F0:  MOVWF  FF6
002F2:  MOVLW  02
002F4:  ADDWFC FF7,F
002F6:  TBLRD*+
002F8:  MOVF   FF5,W
002FA:  RETURN 0
002FC:  DATA 4A,75
002FE:  DATA 65,00
00300:  CLRF   FF7
00302:  ADDLW  10
00304:  MOVWF  FF6
00306:  MOVLW  03
00308:  ADDWFC FF7,F
0030A:  TBLRD*+
0030C:  MOVF   FF5,W
0030E:  RETURN 0
00310:  DATA 56,69
00312:  DATA 65,00
00314:  CLRF   FF7
00316:  ADDLW  24
00318:  MOVWF  FF6
0031A:  MOVLW  03
0031C:  ADDWFC FF7,F
0031E:  TBLRD*+
00320:  MOVF   FF5,W
00322:  RETURN 0
00324:  DATA 53,61
00326:  DATA 62,00
00328:  CLRF   FF7
0032A:  ADDLW  38
0032C:  MOVWF  FF6
0032E:  MOVLW  03
00330:  ADDWFC FF7,F
00332:  TBLRD*+
00334:  MOVF   FF5,W
00336:  RETURN 0
00338:  DATA 44,6F
0033A:  DATA 6D,00
0033C:  DATA 3D,3D
0033E:  DATA 20,43
00340:  DATA 6F,6E
00342:  DATA 74,72
00344:  DATA 6F,6C
00346:  DATA 20,47
00348:  DATA 72,75
0034A:  DATA 70,61
0034C:  DATA 6C,20
0034E:  DATA 3D,3D
00350:  DATA 00,00
00352:  DATA 20,20
00354:  DATA 20,20
00356:  DATA 20,20
00358:  DATA 20,20
0035A:  DATA 20,20
0035C:  DATA 20,20
0035E:  DATA 20,20
00360:  DATA 20,20
00362:  DATA 20,20
00364:  DATA 20,20
00366:  DATA 00,00
00368:  DATA 20,47
0036A:  DATA 72,75
0036C:  DATA 70,6F
0036E:  DATA 20,54
00370:  DATA 4F,44
00372:  DATA 41,53
00374:  DATA 3A,20
00376:  DATA 20,20
00378:  DATA 20,20
0037A:  DATA 20,20
0037C:  DATA 00,00
0037E:  DATA 20,47
00380:  DATA 72,75
00382:  DATA 70,6F
00384:  DATA 20,20
00386:  DATA 20,20
00388:  DATA 20,20
0038A:  DATA 3A,20
0038C:  DATA 20,20
0038E:  DATA 20,20
00390:  DATA 20,20
00392:  DATA 00,00
00394:  DATA 20,47
00396:  DATA 72,75
00398:  DATA 70,6F
0039A:  DATA 20,54
0039C:  DATA 4F,44
0039E:  DATA 41,53
003A0:  DATA 3A,20
003A2:  DATA 20,20
003A4:  DATA 20,20
003A6:  DATA 20,20
003A8:  DATA 00,00
003AA:  DATA 20,47
003AC:  DATA 72,75
003AE:  DATA 70,6F
003B0:  DATA 20,49
003B2:  DATA 4E,54
003B4:  DATA 45,52
003B6:  DATA 49,4F
003B8:  DATA 52,3A
003BA:  DATA 20,20
003BC:  DATA 20,20
003BE:  DATA 00,00
003C0:  DATA 20,47
003C2:  DATA 72,75
003C4:  DATA 70,6F
003C6:  DATA 20,20
003C8:  DATA 20,20
003CA:  DATA 20,20
003CC:  DATA 20,20
003CE:  DATA 20,3A
003D0:  DATA 20,20
003D2:  DATA 20,20
003D4:  DATA 00,00
003D6:  DATA 20,47
003D8:  DATA 72,75
003DA:  DATA 70,6F
003DC:  DATA 20,49
003DE:  DATA 4E,54
003E0:  DATA 45,52
003E2:  DATA 49,4F
003E4:  DATA 52,3A
003E6:  DATA 20,20
003E8:  DATA 20,20
003EA:  DATA 00,00
003EC:  DATA 20,47
003EE:  DATA 72,75
003F0:  DATA 70,6F
003F2:  DATA 20,45
003F4:  DATA 58,54
003F6:  DATA 45,52
003F8:  DATA 49,4F
003FA:  DATA 52,3A
003FC:  DATA 20,20
003FE:  DATA 20,20
00400:  DATA 00,00
00402:  DATA 20,47
00404:  DATA 72,75
00406:  DATA 70,6F
00408:  DATA 20,20
0040A:  DATA 20,20
0040C:  DATA 20,20
0040E:  DATA 20,20
00410:  DATA 20,3A
00412:  DATA 20,20
00414:  DATA 20,20
00416:  DATA 00,00
00418:  DATA 20,47
0041A:  DATA 72,75
0041C:  DATA 70,6F
0041E:  DATA 20,45
00420:  DATA 58,54
00422:  DATA 45,52
00424:  DATA 49,4F
00426:  DATA 52,3A
00428:  DATA 20,20
0042A:  DATA 20,20
0042C:  DATA 00,00
0042E:  DATA 20,47
00430:  DATA 72,75
00432:  DATA 70,6F
00434:  DATA 20,4A
00436:  DATA 41,52
00438:  DATA 44,49
0043A:  DATA 4E,3A
0043C:  DATA 20,20
0043E:  DATA 20,20
00440:  DATA 20,20
00442:  DATA 00,00
00444:  DATA 20,47
00446:  DATA 72,75
00448:  DATA 70,6F
0044A:  DATA 20,20
0044C:  DATA 20,20
0044E:  DATA 20,20
00450:  DATA 20,3A
00452:  DATA 20,20
00454:  DATA 20,20
00456:  DATA 20,20
00458:  DATA 00,00
0045A:  DATA 20,47
0045C:  DATA 72,75
0045E:  DATA 70,6F
00460:  DATA 20,4A
00462:  DATA 41,52
00464:  DATA 44,49
00466:  DATA 4E,3A
00468:  DATA 20,20
0046A:  DATA 20,20
0046C:  DATA 20,20
0046E:  DATA 00,00
00470:  DATA 20,47
00472:  DATA 72,75
00474:  DATA 70,6F
00476:  DATA 20,46
00478:  DATA 52,45
0047A:  DATA 4E,54
0047C:  DATA 45,3A
0047E:  DATA 20,20
00480:  DATA 20,20
00482:  DATA 20,20
00484:  DATA 20,00
00486:  DATA 20,47
00488:  DATA 72,75
0048A:  DATA 70,6F
0048C:  DATA 20,20
0048E:  DATA 20,20
00490:  DATA 20,20
00492:  DATA 20,3A
00494:  DATA 20,20
00496:  DATA 20,20
00498:  DATA 20,20
0049A:  DATA 20,00
0049C:  DATA 20,47
0049E:  DATA 72,75
004A0:  DATA 70,6F
004A2:  DATA 20,46
004A4:  DATA 52,45
004A6:  DATA 4E,54
004A8:  DATA 45,3A
004AA:  DATA 20,20
004AC:  DATA 20,20
004AE:  DATA 20,20
004B0:  DATA 20,00
004B2:  DATA 20,47
004B4:  DATA 72,75
004B6:  DATA 70,6F
004B8:  DATA 20,50
004BA:  DATA 41,53
004BC:  DATA 49,4C
004BE:  DATA 4C,4F
004C0:  DATA 53,3A
004C2:  DATA 20,20
004C4:  DATA 20,20
004C6:  DATA 20,20
004C8:  DATA 20,00
004CA:  DATA 20,47
004CC:  DATA 72,75
004CE:  DATA 70,6F
004D0:  DATA 20,20
004D2:  DATA 20,20
004D4:  DATA 20,20
004D6:  DATA 20,20
004D8:  DATA 20,3A
004DA:  DATA 20,20
004DC:  DATA 20,20
004DE:  DATA 20,20
004E0:  DATA 20,00
004E2:  DATA 20,47
004E4:  DATA 72,75
004E6:  DATA 70,6F
004E8:  DATA 20,50
004EA:  DATA 41,53
004EC:  DATA 49,4C
004EE:  DATA 4C,4F
004F0:  DATA 53,3A
004F2:  DATA 20,20
004F4:  DATA 20,20
004F6:  DATA 20,20
004F8:  DATA 20,00
004FA:  DATA 20,47
004FC:  DATA 72,75
004FE:  DATA 70,6F
00500:  DATA 20,41
00502:  DATA 55,54
00504:  DATA 4F,4D
00506:  DATA 41,54
00508:  DATA 49,43
0050A:  DATA 4F,20
0050C:  DATA 31,3A
0050E:  DATA 20,20
00510:  DATA 20,00
00512:  DATA 20,47
00514:  DATA 72,75
00516:  DATA 70,6F
00518:  DATA 20,20
0051A:  DATA 20,20
0051C:  DATA 20,20
0051E:  DATA 20,20
00520:  DATA 20,20
00522:  DATA 20,20
00524:  DATA 20,3A
00526:  DATA 20,20
00528:  DATA 20,00
0052A:  DATA 20,47
0052C:  DATA 72,75
0052E:  DATA 70,6F
00530:  DATA 20,41
00532:  DATA 55,54
00534:  DATA 4F,4D
00536:  DATA 41,54
00538:  DATA 49,43
0053A:  DATA 4F,20
0053C:  DATA 31,3A
0053E:  DATA 20,20
00540:  DATA 20,00
00542:  DATA 20,47
00544:  DATA 72,75
00546:  DATA 70,6F
00548:  DATA 20,41
0054A:  DATA 55,54
0054C:  DATA 4F,4D
0054E:  DATA 41,54
00550:  DATA 49,43
00552:  DATA 4F,20
00554:  DATA 32,3A
00556:  DATA 20,20
00558:  DATA 20,00
0055A:  DATA 20,47
0055C:  DATA 72,75
0055E:  DATA 70,6F
00560:  DATA 20,20
00562:  DATA 20,20
00564:  DATA 20,20
00566:  DATA 20,20
00568:  DATA 20,20
0056A:  DATA 20,20
0056C:  DATA 20,3A
0056E:  DATA 20,20
00570:  DATA 20,00
00572:  DATA 20,47
00574:  DATA 72,75
00576:  DATA 70,6F
00578:  DATA 20,41
0057A:  DATA 55,54
0057C:  DATA 4F,4D
0057E:  DATA 41,54
00580:  DATA 49,43
00582:  DATA 4F,20
00584:  DATA 32,3A
00586:  DATA 20,20
00588:  DATA 20,00
0058A:  DATA 20,20
0058C:  DATA 20,20
0058E:  DATA 20,20
00590:  DATA 20,20
00592:  DATA 3F,3F
00594:  DATA 3F,20
00596:  DATA 20,20
00598:  DATA 20,20
0059A:  DATA 20,20
0059C:  DATA 20,20
0059E:  DATA 00,00
005A0:  DATA 20,20
005A2:  DATA 20,20
005A4:  DATA 20,20
005A6:  DATA 20,20
005A8:  DATA 20,20
005AA:  DATA 20,20
005AC:  DATA 20,20
005AE:  DATA 20,20
005B0:  DATA 20,20
005B2:  DATA 20,20
005B4:  DATA 00,00
005B6:  DATA 20,20
005B8:  DATA 20,20
005BA:  DATA 20,20
005BC:  DATA 20,20
005BE:  DATA 3F,3F
005C0:  DATA 3F,20
005C2:  DATA 20,20
005C4:  DATA 20,20
005C6:  DATA 20,20
005C8:  DATA 20,20
005CA:  DATA 00,00
005CC:  DATA 20,20
005CE:  DATA 20,20
005D0:  DATA 20,20
005D2:  DATA 20,41
005D4:  DATA 50,41
005D6:  DATA 47,41
005D8:  DATA 44,4F
005DA:  DATA 20,20
005DC:  DATA 20,20
005DE:  DATA 20,20
005E0:  DATA 00,00
005E2:  DATA 20,20
005E4:  DATA 20,20
005E6:  DATA 20,20
005E8:  DATA 20,20
005EA:  DATA 20,20
005EC:  DATA 20,20
005EE:  DATA 20,20
005F0:  DATA 20,20
005F2:  DATA 20,20
005F4:  DATA 20,20
005F6:  DATA 00,00
005F8:  DATA 20,20
005FA:  DATA 20,20
005FC:  DATA 20,20
005FE:  DATA 20,41
00600:  DATA 50,41
00602:  DATA 47,41
00604:  DATA 44,4F
00606:  DATA 20,20
00608:  DATA 20,20
0060A:  DATA 20,20
0060C:  DATA 00,00
0060E:  DATA 20,20
00610:  DATA 20,20
00612:  DATA 20,45
00614:  DATA 4E,43
00616:  DATA 45,4E
00618:  DATA 44,49
0061A:  DATA 44,4F
0061C:  DATA 20,20
0061E:  DATA 20,20
00620:  DATA 20,20
00622:  DATA 00,00
00624:  DATA 20,20
00626:  DATA 20,20
00628:  DATA 20,20
0062A:  DATA 20,20
0062C:  DATA 20,20
0062E:  DATA 20,20
00630:  DATA 20,20
00632:  DATA 20,20
00634:  DATA 20,20
00636:  DATA 20,20
00638:  DATA 00,00
0063A:  DATA 20,20
0063C:  DATA 20,20
0063E:  DATA 20,45
00640:  DATA 4E,43
00642:  DATA 45,4E
00644:  DATA 44,49
00646:  DATA 44,4F
00648:  DATA 20,20
0064A:  DATA 20,20
0064C:  DATA 20,20
0064E:  DATA 00,00
00650:  DATA 3D,20
00652:  DATA 43,6F
00654:  DATA 6E,74
00656:  DATA 72,6F
00658:  DATA 6C,20
0065A:  DATA 64,65
0065C:  DATA 20,6C
0065E:  DATA 75,63
00660:  DATA 65,73
00662:  DATA 20,3D
00664:  DATA 00,00
00666:  DATA 20,20
00668:  DATA 20,43
0066A:  DATA 6F,6E
0066C:  DATA 66,69
0066E:  DATA 67,75
00670:  DATA 72,61
00672:  DATA 72,20
00674:  DATA 6C,61
00676:  DATA 20,20
00678:  DATA 20,20
0067A:  DATA 00,00
0067C:  DATA 20,69
0067E:  DATA 6E,74
00680:  DATA 65,6E
00682:  DATA 73,69
00684:  DATA 64,61
00686:  DATA 64,20
00688:  DATA 4C,75
0068A:  DATA 7A,20
0068C:  DATA 23,25
0068E:  DATA 30,32
00690:  DATA 75,20
00692:  DATA 00,00
00694:  DATA 20,69
00696:  DATA 6E,74
00698:  DATA 65,6E
0069A:  DATA 73,69
0069C:  DATA 64,61
0069E:  DATA 64,20
006A0:  DATA 4C,75
006A2:  DATA 7A,20
006A4:  DATA 20,20
006A6:  DATA 20,20
006A8:  DATA 00,00
006AA:  DATA 20,69
006AC:  DATA 6E,74
006AE:  DATA 65,6E
006B0:  DATA 73,69
006B2:  DATA 64,61
006B4:  DATA 64,20
006B6:  DATA 4C,75
006B8:  DATA 7A,20
006BA:  DATA 23,25
006BC:  DATA 30,32
006BE:  DATA 75,20
006C0:  DATA 00,00
006C2:  DATA 20,20
006C4:  DATA 20,20
006C6:  DATA 20,20
006C8:  DATA 20,20
006CA:  DATA 20,25
006CC:  DATA 75,25
006CE:  DATA 25,20
006D0:  DATA 20,20
006D2:  DATA 20,20
006D4:  DATA 20,20
006D6:  DATA 20,00
006D8:  DATA 20,20
006DA:  DATA 20,20
006DC:  DATA 20,20
006DE:  DATA 20,20
006E0:  DATA 20,25
006E2:  DATA 75,25
006E4:  DATA 25,20
006E6:  DATA 20,20
006E8:  DATA 20,20
006EA:  DATA 20,20
006EC:  DATA 20,00
006EE:  DATA 20,20
006F0:  DATA 20,20
006F2:  DATA 20,20
006F4:  DATA 20,20
006F6:  DATA 20,20
006F8:  DATA 20,20
006FA:  DATA 20,20
006FC:  DATA 20,20
006FE:  DATA 20,20
00700:  DATA 20,20
00702:  DATA 00,00
00704:  DATA 20,20
00706:  DATA 20,20
00708:  DATA 20,20
0070A:  DATA 20,20
0070C:  DATA 20,25
0070E:  DATA 75,25
00710:  DATA 25,20
00712:  DATA 20,20
00714:  DATA 20,20
00716:  DATA 20,20
00718:  DATA 20,00
0071A:  DATA 20,20
0071C:  DATA 20,20
0071E:  DATA 20,20
00720:  DATA 20,20
00722:  DATA 20,25
00724:  DATA 75,25
00726:  DATA 25,20
00728:  DATA 20,20
0072A:  DATA 20,20
0072C:  DATA 20,20
0072E:  DATA 20,00
00730:  DATA 3D,20
00732:  DATA 43,6F
00734:  DATA 6E,74
00736:  DATA 72,6F
00738:  DATA 6C,20
0073A:  DATA 64,65
0073C:  DATA 20,6C
0073E:  DATA 75,63
00740:  DATA 65,73
00742:  DATA 20,3D
00744:  DATA 00,00
00746:  DATA 20,45
00748:  DATA 73,74
0074A:  DATA 61,64
0074C:  DATA 6F,20
0074E:  DATA 64,65
00750:  DATA 20,4C
00752:  DATA 75,7A
00754:  DATA 20,23
00756:  DATA 25,30
00758:  DATA 32,75
0075A:  DATA 3A,20
0075C:  DATA 00,00
0075E:  DATA 20,20
00760:  DATA 20,20
00762:  DATA 20,45
00764:  DATA 4E,43
00766:  DATA 45,4E
00768:  DATA 44,49
0076A:  DATA 44,41
0076C:  DATA 20,20
0076E:  DATA 20,20
00770:  DATA 20,20
00772:  DATA 00,00
00774:  DATA 20,20
00776:  DATA 20,20
00778:  DATA 20,20
0077A:  DATA 20,20
0077C:  DATA 20,20
0077E:  DATA 20,20
00780:  DATA 20,20
00782:  DATA 20,20
00784:  DATA 20,20
00786:  DATA 20,20
00788:  DATA 00,00
0078A:  DATA 20,20
0078C:  DATA 49,6E
0078E:  DATA 74,65
00790:  DATA 6E,73
00792:  DATA 69,64
00794:  DATA 61,64
00796:  DATA 3A,20
00798:  DATA 25,75
0079A:  DATA 25,25
0079C:  DATA 20,20
0079E:  DATA 00,00
007A0:  DATA 20,20
007A2:  DATA 20,20
007A4:  DATA 20,20
007A6:  DATA 41,50
007A8:  DATA 41,47
007AA:  DATA 41,44
007AC:  DATA 41,20
007AE:  DATA 20,20
007B0:  DATA 20,20
007B2:  DATA 20,20
007B4:  DATA 00,00
007B6:  DATA 20,20
007B8:  DATA 20,20
007BA:  DATA 20,20
007BC:  DATA 20,20
007BE:  DATA 20,20
007C0:  DATA 20,20
007C2:  DATA 20,20
007C4:  DATA 20,20
007C6:  DATA 20,20
007C8:  DATA 20,20
007CA:  DATA 00,00
007CC:  DATA 20,20
007CE:  DATA 49,6E
007D0:  DATA 74,65
007D2:  DATA 6E,73
007D4:  DATA 69,64
007D6:  DATA 61,64
007D8:  DATA 3A,20
007DA:  DATA 25,75
007DC:  DATA 25,25
007DE:  DATA 20,20
007E0:  DATA 00,00
007E2:  DATA 0C,00
007E4:  DATA 20,20
007E6:  DATA 20,25
007E8:  DATA 63,44
007EA:  DATA 65,73
007EC:  DATA 65,61
007EE:  DATA 20,61
007F0:  DATA 63,74
007F2:  DATA 69,76
007F4:  DATA 61,72
007F6:  DATA 20,20
007F8:  DATA 00,00
007FA:  DATA 20,20
007FC:  DATA 20,61
007FE:  DATA 6C,61
00800:  DATA 72,6D
00802:  DATA 61,20
00804:  DATA 54,4F
00806:  DATA 54,41
00808:  DATA 4C,20
0080A:  DATA 3F,20
0080C:  DATA 20,20
0080E:  DATA 20,00
00810:  DATA 20,20
00812:  DATA 61,6C
00814:  DATA 61,72
00816:  DATA 6D,61
00818:  DATA 20,4E
0081A:  DATA 4F,43
0081C:  DATA 54,55
0081E:  DATA 52,4E
00820:  DATA 41,3F
00822:  DATA 20,20
00824:  DATA 00,00
00826:  DATA 20,20
00828:  DATA 61,6C
0082A:  DATA 61,72
0082C:  DATA 6D,61
0082E:  DATA 20,45
00830:  DATA 58,54
00832:  DATA 45,52
00834:  DATA 49,4F
00836:  DATA 52,3F
00838:  DATA 20,20
0083A:  DATA 00,00
0083C:  DATA 20,20
0083E:  DATA 41,72
00840:  DATA 6D,61
00842:  DATA 64,6F
00844:  DATA 20,64
00846:  DATA 65,20
00848:  DATA 61,6C
0084A:  DATA 61,72
0084C:  DATA 6D,61
0084E:  DATA 20,20
00850:  DATA 00,00
00852:  DATA 20,20
00854:  DATA 20,20
00856:  DATA 20,20
00858:  DATA 65,6E
0085A:  DATA 3A,20
0085C:  DATA 25,33
0085E:  DATA 75,20
00860:  DATA 20,20
00862:  DATA 20,20
00864:  DATA 20,20
00866:  DATA 00,00
00868:  DATA 0C,00
0086A:  DATA 3D,3D
0086C:  DATA 3D,20
0086E:  DATA 43,6F
00870:  DATA 6E,66
00872:  DATA 2E,20
00874:  DATA 41,6C
00876:  DATA 61,72
00878:  DATA 6D,61
0087A:  DATA 20,3D
0087C:  DATA 3D,3D
0087E:  DATA 00,00
00880:  DATA 54,70
00882:  DATA 6F,20
00884:  DATA 53,61
00886:  DATA 6C,69
00888:  DATA 64,61
0088A:  DATA 3A,20
0088C:  DATA 25,33
0088E:  DATA 75,73
00890:  DATA 00,00
00892:  DATA 54,70
00894:  DATA 6F,20
00896:  DATA 53,61
00898:  DATA 6C,69
0089A:  DATA 64,61
0089C:  DATA 3A,20
0089E:  DATA 20,20
008A0:  DATA 20,20
008A2:  DATA 20,00
008A4:  DATA 54,70
008A6:  DATA 6F,20
008A8:  DATA 53,61
008AA:  DATA 6C,69
008AC:  DATA 64,61
008AE:  DATA 3A,20
008B0:  DATA 25,33
008B2:  DATA 75,73
008B4:  DATA 20,20
008B6:  DATA 00,00
008B8:  DATA 54,70
008BA:  DATA 6F,20
008BC:  DATA 53,69
008BE:  DATA 6C,65
008C0:  DATA 6E,63
008C2:  DATA 69,6F
008C4:  DATA 3A,20
008C6:  DATA 25,33
008C8:  DATA 75,73
008CA:  DATA 00,00
008CC:  DATA 54,70
008CE:  DATA 6F,20
008D0:  DATA 53,69
008D2:  DATA 6C,65
008D4:  DATA 6E,63
008D6:  DATA 69,6F
008D8:  DATA 3A,20
008DA:  DATA 20,20
008DC:  DATA 20,20
008DE:  DATA 20,20
008E0:  DATA 00,00
008E2:  DATA 54,70
008E4:  DATA 6F,20
008E6:  DATA 53,69
008E8:  DATA 6C,65
008EA:  DATA 6E,63
008EC:  DATA 69,6F
008EE:  DATA 3A,20
008F0:  DATA 25,33
008F2:  DATA 75,73
008F4:  DATA 00,00
008F6:  DATA 50,72
008F8:  DATA 75,65
008FA:  DATA 62,61
008FC:  DATA 20,73
008FE:  DATA 69,72
00900:  DATA 65,6E
00902:  DATA 61,3A
00904:  DATA 20,25
00906:  DATA 73,20
00908:  DATA 20,00
0090A:  DATA 50,72
0090C:  DATA 75,65
0090E:  DATA 62,61
00910:  DATA 20,73
00912:  DATA 69,72
00914:  DATA 65,6E
00916:  DATA 61,3A
00918:  DATA 20,20
0091A:  DATA 20,20
0091C:  DATA 20,20
0091E:  DATA 20,20
00920:  DATA 00,00
00922:  DATA 50,72
00924:  DATA 75,65
00926:  DATA 62,61
00928:  DATA 20,73
0092A:  DATA 69,72
0092C:  DATA 65,6E
0092E:  DATA 61,3A
00930:  DATA 20,25
00932:  DATA 73,00
00934:  DATA 0C,00
00936:  DATA 20,49
00938:  DATA 6E,67
0093A:  DATA 72,65
0093C:  DATA 73,65
0093E:  DATA 20,6C
00940:  DATA 61,20
00942:  DATA 63,6C
00944:  DATA 61,76
00946:  DATA 65,3A
00948:  DATA 20,20
0094A:  DATA 00,00
0094C:  DATA 25,63
0094E:  DATA 5F,5F
00950:  DATA 5F,5F
00952:  DATA 5F,00
00954:  DATA 2A,25
00956:  DATA 63,5F
00958:  DATA 5F,5F
0095A:  DATA 5F,00
0095C:  DATA 2A,2A
0095E:  DATA 25,63
00960:  DATA 5F,5F
00962:  DATA 5F,00
00964:  DATA 2A,2A
00966:  DATA 2A,25
00968:  DATA 63,5F
0096A:  DATA 5F,00
0096C:  DATA 2A,2A
0096E:  DATA 2A,2A
00970:  DATA 25,63
00972:  DATA 5F,00
00974:  DATA 2A,2A
00976:  DATA 2A,2A
00978:  DATA 2A,25
0097A:  DATA 63,00
0097C:  DATA 0C,00
0097E:  DATA 20,20
00980:  DATA 20,43
00982:  DATA 6C,61
00984:  DATA 76,65
00986:  DATA 20,63
00988:  DATA 6F,72
0098A:  DATA 72,65
0098C:  DATA 63,74
0098E:  DATA 61,20
00990:  DATA 20,20
00992:  DATA 00,00
00994:  DATA 20,20
00996:  DATA 20,20
00998:  DATA 42,69
0099A:  DATA 65,6E
0099C:  DATA 76,65
0099E:  DATA 6E,69
009A0:  DATA 64,6F
009A2:  DATA 20,3A
009A4:  DATA 29,20
009A6:  DATA 20,20
009A8:  DATA 00,00
009AA:  DATA 0C,00
009AC:  DATA 20,20
009AE:  DATA 43,6C
009B0:  DATA 61,76
009B2:  DATA 65,20
009B4:  DATA 69,6E
009B6:  DATA 63,6F
009B8:  DATA 72,72
009BA:  DATA 65,63
009BC:  DATA 74,61
009BE:  DATA 20,20
009C0:  DATA 00,00
009C2:  DATA 20,41
009C4:  DATA 63,63
009C6:  DATA 65,73
009C8:  DATA 6F,20
009CA:  DATA 64,65
009CC:  DATA 6E,65
009CE:  DATA 67,61
009D0:  DATA 64,6F
009D2:  DATA 20,3A
009D4:  DATA 28,20
009D6:  DATA 00,00
009D8:  DATA 0C,00
009DA:  DATA 3D,3D
009DC:  DATA 20,43
009DE:  DATA 61,6D
009E0:  DATA 62,69
009E2:  DATA 61,72
009E4:  DATA 20,43
009E6:  DATA 6C,61
009E8:  DATA 76,65
009EA:  DATA 20,3D
009EC:  DATA 3D,3D
009EE:  DATA 00,00
009F0:  DATA 20,20
009F2:  DATA 4E,75
009F4:  DATA 65,76
009F6:  DATA 61,3A
009F8:  DATA 20,00
009FA:  DATA 20,52
009FC:  DATA 65,70
009FE:  DATA 69,74
00A00:  DATA 61,3A
00A02:  DATA 20,00
00A04:  DATA 25,63
00A06:  DATA 5F,5F
00A08:  DATA 5F,5F
00A0A:  DATA 5F,00
00A0C:  DATA 2A,25
00A0E:  DATA 63,5F
00A10:  DATA 5F,5F
00A12:  DATA 5F,00
00A14:  DATA 2A,2A
00A16:  DATA 25,63
00A18:  DATA 5F,5F
00A1A:  DATA 5F,00
00A1C:  DATA 2A,2A
00A1E:  DATA 2A,25
00A20:  DATA 63,5F
00A22:  DATA 5F,00
00A24:  DATA 2A,2A
00A26:  DATA 2A,2A
00A28:  DATA 25,63
00A2A:  DATA 5F,00
00A2C:  DATA 2A,2A
00A2E:  DATA 2A,2A
00A30:  DATA 2A,25
00A32:  DATA 63,00
00A34:  DATA 2A,2A
00A36:  DATA 2A,2A
00A38:  DATA 2A,2A
00A3A:  DATA 00,00
00A3C:  DATA 25,63
00A3E:  DATA 5F,5F
00A40:  DATA 5F,5F
00A42:  DATA 5F,00
00A44:  DATA 2A,25
00A46:  DATA 63,5F
00A48:  DATA 5F,5F
00A4A:  DATA 5F,00
00A4C:  DATA 2A,2A
00A4E:  DATA 25,63
00A50:  DATA 5F,5F
00A52:  DATA 5F,00
00A54:  DATA 2A,2A
00A56:  DATA 2A,25
00A58:  DATA 63,5F
00A5A:  DATA 5F,00
00A5C:  DATA 2A,2A
00A5E:  DATA 2A,2A
00A60:  DATA 25,63
00A62:  DATA 5F,00
00A64:  DATA 2A,2A
00A66:  DATA 2A,2A
00A68:  DATA 2A,25
00A6A:  DATA 63,00
00A6C:  DATA 0C,00
00A6E:  DATA 20,20
00A70:  DATA 43,6C
00A72:  DATA 61,76
00A74:  DATA 65,20
00A76:  DATA 6D,6F
00A78:  DATA 64,69
00A7A:  DATA 66,69
00A7C:  DATA 63,61
00A7E:  DATA 64,61
00A80:  DATA 20,20
00A82:  DATA 00,00
00A84:  DATA 20,20
00A86:  DATA 63,6F
00A88:  DATA 72,72
00A8A:  DATA 65,63
00A8C:  DATA 74,61
00A8E:  DATA 6D,65
00A90:  DATA 6E,74
00A92:  DATA 65,20
00A94:  DATA 3A,29
00A96:  DATA 20,20
00A98:  DATA 00,00
00A9A:  DATA 0C,00
00A9C:  DATA 20,20
00A9E:  DATA 45,72
00AA0:  DATA 72,6F
00AA2:  DATA 72,3A
00AA4:  DATA 20,4C
00AA6:  DATA 61,73
00AA8:  DATA 20,63
00AAA:  DATA 6C,61
00AAC:  DATA 76,65
00AAE:  DATA 73,20
00AB0:  DATA 00,00
00AB2:  DATA 20,20
00AB4:  DATA 20,6E
00AB6:  DATA 6F,20
00AB8:  DATA 63,6F
00ABA:  DATA 69,6E
00ABC:  DATA 63,69
00ABE:  DATA 64,65
00AC0:  DATA 6E,20
00AC2:  DATA 3A,28
00AC4:  DATA 20,20
00AC6:  DATA 00,00
00AC8:  DATA 3D,3D
00ACA:  DATA 20,43
00ACC:  DATA 6F,6E
00ACE:  DATA 66,2E
00AD0:  DATA 20,43
00AD2:  DATA 61,73
00AD4:  DATA 61,6E
00AD6:  DATA 64,72
00AD8:  DATA 61,20
00ADA:  DATA 3D,3D
00ADC:  DATA 00,00
00ADE:  DATA 20,4C
00AE0:  DATA 75,7A
00AE2:  DATA 20,50
00AE4:  DATA 61,73
00AE6:  DATA 69,6C
00AE8:  DATA 6C,6F
00AEA:  DATA 73,3A
00AEC:  DATA 20,00
00AEE:  DATA 20,47
00AF0:  DATA 72,75
00AF2:  DATA 70,6F
00AF4:  DATA 20,41
00AF6:  DATA 75,74
00AF8:  DATA 6F,6D
00AFA:  DATA 61,3A
00AFC:  DATA 20,00
00AFE:  DATA 20,43
00B00:  DATA 74,72
00B02:  DATA 6C,20
00B04:  DATA 63,65
00B06:  DATA 6C,75
00B08:  DATA 6C,61
00B0A:  DATA 72,3A
00B0C:  DATA 20,00
00B0E:  DATA 20,20
00B10:  DATA 20,00
00B12:  DATA 20,20
00B14:  DATA 20,00
00B16:  DATA 20,20
00B18:  DATA 20,00
00B1A:  DATA 3D,20
00B1C:  DATA 52,45
00B1E:  DATA 53,45
00B20:  DATA 54,45
00B22:  DATA 41,52
00B24:  DATA 20,53
00B26:  DATA 49,53
00B28:  DATA 54,45
00B2A:  DATA 4D,41
00B2C:  DATA 20,3D
00B2E:  DATA 00,00
00B30:  DATA 25,63
00B32:  DATA 53,65
00B34:  DATA 20,65
00B36:  DATA 6C,69
00B38:  DATA 6D,69
00B3A:  DATA 6E,61
00B3C:  DATA 72,61
00B3E:  DATA 6E,20
00B40:  DATA 74,6F
00B42:  DATA 64,6F
00B44:  DATA 73,00
00B46:  DATA 6C,6F
00B48:  DATA 73,20
00B4A:  DATA 64,61
00B4C:  DATA 74,6F
00B4E:  DATA 73,20
00B50:  DATA 67,75
00B52:  DATA 61,72
00B54:  DATA 64,61
00B56:  DATA 64,6F
00B58:  DATA 73,21
00B5A:  DATA 00,00
00B5C:  DATA 20,20
00B5E:  DATA 20,20
00B60:  DATA 25,63
00B62:  DATA 43,6F
00B64:  DATA 6E,74
00B66:  DATA 69,6E
00B68:  DATA 75,61
00B6A:  DATA 72,3F
00B6C:  DATA 20,20
00B6E:  DATA 20,20
00B70:  DATA 00,00
00B72:  DATA 0C,00
00B74:  DATA 20,45
00B76:  DATA 6C,69
00B78:  DATA 6D,69
00B7A:  DATA 6E,61
00B7C:  DATA 6E,64
00B7E:  DATA 6F,20
00B80:  DATA 64,61
00B82:  DATA 74,6F
00B84:  DATA 73,2E
00B86:  DATA 2E,2E
00B88:  DATA 00,00
00B8A:  DATA 0C,00
00B8C:  DATA 3D,3D
00B8E:  DATA 3D,20
00B90:  DATA 46,65
00B92:  DATA 63,68
00B94:  DATA 61,20
00B96:  DATA 79,20
00B98:  DATA 68,6F
00B9A:  DATA 72,61
00B9C:  DATA 20,3D
00B9E:  DATA 3D,3D
00BA0:  DATA 00,00
00BA2:  DATA 20,20
00BA4:  DATA 20,44
00BA6:  DATA 69,61
00BA8:  DATA 3A,20
00BAA:  DATA 25,73
00BAC:  DATA 20,00
00BAE:  DATA 20,20
00BB0:  DATA 20,44
00BB2:  DATA 69,61
00BB4:  DATA 3A,20
00BB6:  DATA 20,20
00BB8:  DATA 20,20
00BBA:  DATA 20,20
00BBC:  DATA 20,20
00BBE:  DATA 20,20
00BC0:  DATA 20,20
00BC2:  DATA 20,00
00BC4:  DATA 20,20
00BC6:  DATA 20,44
00BC8:  DATA 69,61
00BCA:  DATA 3A,20
00BCC:  DATA 25,73
00BCE:  DATA 20,00
00BD0:  DATA 20,4E
00BD2:  DATA 72,6F
00BD4:  DATA 3A,20
00BD6:  DATA 25,30
00BD8:  DATA 32,75
00BDA:  DATA 20,20
00BDC:  DATA 20,00
00BDE:  DATA 20,4E
00BE0:  DATA 72,6F
00BE2:  DATA 3A,20
00BE4:  DATA 20,20
00BE6:  DATA 20,20
00BE8:  DATA 20,00
00BEA:  DATA 20,4E
00BEC:  DATA 72,6F
00BEE:  DATA 3A,20
00BF0:  DATA 25,30
00BF2:  DATA 32,75
00BF4:  DATA 20,20
00BF6:  DATA 20,00
00BF8:  DATA 4D,65
00BFA:  DATA 73,3A
00BFC:  DATA 20,25
00BFE:  DATA 73,00
00C00:  DATA 4D,65
00C02:  DATA 73,3A
00C04:  DATA 20,20
00C06:  DATA 20,20
00C08:  DATA 00,00
00C0A:  DATA 4D,65
00C0C:  DATA 73,3A
00C0E:  DATA 20,25
00C10:  DATA 73,00
00C12:  DATA 48,6F
00C14:  DATA 72,61
00C16:  DATA 3A,20
00C18:  DATA 25,30
00C1A:  DATA 32,75
00C1C:  DATA 20,00
00C1E:  DATA 48,6F
00C20:  DATA 72,61
00C22:  DATA 3A,20
00C24:  DATA 20,20
00C26:  DATA 20,00
00C28:  DATA 48,6F
00C2A:  DATA 72,61
00C2C:  DATA 3A,20
00C2E:  DATA 25,30
00C30:  DATA 32,75
00C32:  DATA 20,00
00C34:  DATA 4D,69
00C36:  DATA 6E,75
00C38:  DATA 74,6F
00C3A:  DATA 73,3A
00C3C:  DATA 20,25
00C3E:  DATA 30,32
00C40:  DATA 75,00
00C42:  DATA 4D,69
00C44:  DATA 6E,75
00C46:  DATA 74,6F
00C48:  DATA 73,3A
00C4A:  DATA 20,20
00C4C:  DATA 20,00
00C4E:  DATA 4D,69
00C50:  DATA 6E,75
00C52:  DATA 74,6F
00C54:  DATA 73,3A
00C56:  DATA 20,25
00C58:  DATA 30,32
00C5A:  DATA 75,00
00C5C:  DATA 0C,00
*
01124:  ADDWF  FE8,W
01126:  CLRF   FF7
01128:  RLCF   FF7,F
0112A:  ADDLW  3F
0112C:  MOVWF  FF6
0112E:  MOVLW  11
01130:  ADDWFC FF7,F
01132:  TBLRD*-
01134:  MOVF   FF5,W
01136:  MOVWF  FFA
01138:  TBLRD*
0113A:  MOVF   FF5,W
0113C:  MOVWF  FF9
0113E:  DATA 26,0F
01140:  DATA 40,0F
01142:  DATA 5A,0F
01144:  DATA 74,0F
01146:  DATA 8E,0F
01148:  DATA A8,0F
0114A:  DATA C2,0F
0114C:  ADDWF  FE8,W
0114E:  CLRF   FF7
01150:  RLCF   FF7,F
01152:  ADDLW  67
01154:  MOVWF  FF6
01156:  MOVLW  11
01158:  ADDWFC FF7,F
0115A:  TBLRD*-
0115C:  MOVF   FF5,W
0115E:  MOVWF  FFA
01160:  TBLRD*
01162:  MOVF   FF5,W
01164:  MOVWF  FF9
01166:  DATA EA,0F
01168:  DATA 04,10
0116A:  DATA 1E,10
0116C:  DATA 38,10
0116E:  DATA 52,10
01170:  DATA 6C,10
01172:  DATA 86,10
01174:  DATA A0,10
01176:  DATA BA,10
01178:  DATA D4,10
0117A:  DATA EE,10
0117C:  DATA 08,11
*
01614:  DATA 0C,00
01616:  DATA 20,54
01618:  DATA 65,6D
0161A:  DATA 70,3A
0161C:  DATA 20,20
0161E:  DATA 25,30
01620:  DATA 32,75
01622:  DATA 25,63
01624:  DATA 43,20
01626:  DATA 2F,20
01628:  DATA 25,30
0162A:  DATA 32,75
0162C:  DATA 25,63
0162E:  DATA 43,20
01630:  DATA 20,00
01632:  DATA 20,48
01634:  DATA 52,3A
01636:  DATA 20,25
01638:  DATA 30,32
0163A:  DATA 75,25
0163C:  DATA 25,20
0163E:  DATA 20,20
01640:  DATA 53,6F
01642:  DATA 6C,3A
01644:  DATA 20,25
01646:  DATA 33,75
01648:  DATA 20,00
0164A:  DATA 41,6C
0164C:  DATA 61,72
0164E:  DATA 6D,61
01650:  DATA 3A,20
01652:  DATA 44,65
01654:  DATA 73,61
01656:  DATA 63,74
01658:  DATA 69,76
0165A:  DATA 61,64
0165C:  DATA 61,20
0165E:  DATA 00,00
01660:  DATA 41,6C
01662:  DATA 61,72
01664:  DATA 6D,61
01666:  DATA 3A,20
01668:  DATA 54,4F
0166A:  DATA 54,41
0166C:  DATA 4C,20
0166E:  DATA 41,63
01670:  DATA 74,69
01672:  DATA 76,61
01674:  DATA 00,00
01676:  DATA 41,6C
01678:  DATA 61,72
0167A:  DATA 6D,61
0167C:  DATA 3A,20
0167E:  DATA 4E,4F
01680:  DATA 43,54
01682:  DATA 55,52
01684:  DATA 4E,41
01686:  DATA 20,41
01688:  DATA 63,74
0168A:  DATA 00,00
0168C:  DATA 41,6C
0168E:  DATA 61,72
01690:  DATA 6D,61
01692:  DATA 3A,20
01694:  DATA 45,58
01696:  DATA 54,45
01698:  DATA 52,49
0169A:  DATA 4F,52
0169C:  DATA 20,41
0169E:  DATA 63,74
016A0:  DATA 00,00
016A2:  DATA 3D,3D
016A4:  DATA 3D,3D
016A6:  DATA 3D,3D
016A8:  DATA 3D,20
016AA:  DATA 4D,45
016AC:  DATA 4E,55
016AE:  DATA 20,3D
016B0:  DATA 3D,3D
016B2:  DATA 3D,3D
016B4:  DATA 3D,3D
016B6:  DATA 00,00
016B8:  DATA 20,7E
016BA:  DATA 20,28
016BC:  DATA 31,29
016BE:  DATA 20,41
016C0:  DATA 6C,61
016C2:  DATA 72,6D
016C4:  DATA 61,20
016C6:  DATA 20,20
016C8:  DATA 20,20
016CA:  DATA 20,20
016CC:  DATA 00,00
016CE:  DATA 20,20
016D0:  DATA 20,28
016D2:  DATA 32,29
016D4:  DATA 20,4C
016D6:  DATA 75,63
016D8:  DATA 65,73
016DA:  DATA 20,20
016DC:  DATA 20,20
016DE:  DATA 20,20
016E0:  DATA 20,20
016E2:  DATA 00,00
016E4:  DATA 20,20
016E6:  DATA 20,28
016E8:  DATA 33,29
016EA:  DATA 20,43
016EC:  DATA 61,73
016EE:  DATA 61,6E
016F0:  DATA 64,72
016F2:  DATA 61,20
016F4:  DATA 20,20
016F6:  DATA 20,20
016F8:  DATA 00,00
016FA:  DATA 3D,3D
016FC:  DATA 3D,3D
016FE:  DATA 3D,3D
01700:  DATA 3D,20
01702:  DATA 4D,45
01704:  DATA 4E,55
01706:  DATA 20,3D
01708:  DATA 3D,3D
0170A:  DATA 3D,3D
0170C:  DATA 3D,3D
0170E:  DATA 00,00
01710:  DATA 20,20
01712:  DATA 20,28
01714:  DATA 31,29
01716:  DATA 20,41
01718:  DATA 6C,61
0171A:  DATA 72,6D
0171C:  DATA 61,20
0171E:  DATA 20,20
01720:  DATA 20,20
01722:  DATA 20,20
01724:  DATA 00,00
01726:  DATA 20,7E
01728:  DATA 20,28
0172A:  DATA 32,29
0172C:  DATA 20,4C
0172E:  DATA 75,63
01730:  DATA 65,73
01732:  DATA 20,20
01734:  DATA 20,20
01736:  DATA 20,20
01738:  DATA 20,20
0173A:  DATA 00,00
0173C:  DATA 20,20
0173E:  DATA 20,28
01740:  DATA 33,29
01742:  DATA 20,43
01744:  DATA 61,73
01746:  DATA 61,6E
01748:  DATA 64,72
0174A:  DATA 61,20
0174C:  DATA 20,20
0174E:  DATA 20,20
01750:  DATA 00,00
01752:  DATA 3D,3D
01754:  DATA 3D,3D
01756:  DATA 3D,3D
01758:  DATA 3D,20
0175A:  DATA 4D,45
0175C:  DATA 4E,55
0175E:  DATA 20,3D
01760:  DATA 3D,3D
01762:  DATA 3D,3D
01764:  DATA 3D,3D
01766:  DATA 00,00
01768:  DATA 20,20
0176A:  DATA 20,28
0176C:  DATA 32,29
0176E:  DATA 20,4C
01770:  DATA 75,63
01772:  DATA 65,73
01774:  DATA 20,20
01776:  DATA 20,20
01778:  DATA 20,20
0177A:  DATA 20,20
0177C:  DATA 00,00
0177E:  DATA 20,7E
01780:  DATA 20,28
01782:  DATA 33,29
01784:  DATA 20,43
01786:  DATA 61,73
01788:  DATA 61,6E
0178A:  DATA 64,72
0178C:  DATA 61,20
0178E:  DATA 20,20
01790:  DATA 20,20
01792:  DATA 00,00
01794:  DATA 20,20
01796:  DATA 20,28
01798:  DATA 34,29
0179A:  DATA 20,41
0179C:  DATA 75,74
0179E:  DATA 6F,6D
017A0:  DATA 61,74
017A2:  DATA 69,63
017A4:  DATA 6F,20
017A6:  DATA 20,20
017A8:  DATA 00,00
017AA:  DATA 3D,3D
017AC:  DATA 3D,3D
017AE:  DATA 3D,3D
017B0:  DATA 3D,20
017B2:  DATA 4D,45
017B4:  DATA 4E,55
017B6:  DATA 20,3D
017B8:  DATA 3D,3D
017BA:  DATA 3D,3D
017BC:  DATA 3D,3D
017BE:  DATA 00,00
017C0:  DATA 20,20
017C2:  DATA 20,28
017C4:  DATA 33,29
017C6:  DATA 20,43
017C8:  DATA 61,73
017CA:  DATA 61,6E
017CC:  DATA 64,72
017CE:  DATA 61,20
017D0:  DATA 20,20
017D2:  DATA 20,20
017D4:  DATA 00,00
017D6:  DATA 20,7E
017D8:  DATA 20,28
017DA:  DATA 34,29
017DC:  DATA 20,41
017DE:  DATA 75,74
017E0:  DATA 6F,6D
017E2:  DATA 61,74
017E4:  DATA 69,63
017E6:  DATA 6F,20
017E8:  DATA 20,20
017EA:  DATA 00,00
017EC:  DATA 20,20
017EE:  DATA 20,28
017F0:  DATA 35,29
017F2:  DATA 20,43
017F4:  DATA 6F,6E
017F6:  DATA 66,69
017F8:  DATA 67,75
017FA:  DATA 72,61
017FC:  DATA 63,69
017FE:  DATA 6F,6E
01800:  DATA 00,00
01802:  DATA 3D,3D
01804:  DATA 3D,3D
01806:  DATA 3D,3D
01808:  DATA 3D,20
0180A:  DATA 4D,45
0180C:  DATA 4E,55
0180E:  DATA 20,3D
01810:  DATA 3D,3D
01812:  DATA 3D,3D
01814:  DATA 3D,3D
01816:  DATA 00,00
01818:  DATA 20,20
0181A:  DATA 20,28
0181C:  DATA 33,29
0181E:  DATA 20,43
01820:  DATA 61,73
01822:  DATA 61,6E
01824:  DATA 64,72
01826:  DATA 61,20
01828:  DATA 20,20
0182A:  DATA 20,20
0182C:  DATA 00,00
0182E:  DATA 20,20
01830:  DATA 20,28
01832:  DATA 34,29
01834:  DATA 20,41
01836:  DATA 75,74
01838:  DATA 6F,6D
0183A:  DATA 61,74
0183C:  DATA 69,63
0183E:  DATA 6F,20
01840:  DATA 20,20
01842:  DATA 00,00
01844:  DATA 20,7E
01846:  DATA 20,28
01848:  DATA 35,29
0184A:  DATA 20,43
0184C:  DATA 6F,6E
0184E:  DATA 66,69
01850:  DATA 67,75
01852:  DATA 72,61
01854:  DATA 63,69
01856:  DATA 6F,6E
01858:  DATA 00,00
0185A:  DATA 3D,3D
0185C:  DATA 3D,3D
0185E:  DATA 3D,3D
01860:  DATA 20,41
01862:  DATA 6C,61
01864:  DATA 72,6D
01866:  DATA 61,20
01868:  DATA 3D,3D
0186A:  DATA 3D,3D
0186C:  DATA 3D,3D
0186E:  DATA 00,00
01870:  DATA 7E,20
01872:  DATA 28,31
01874:  DATA 29,20
01876:  DATA 41,63
01878:  DATA 74,69
0187A:  DATA 76,61
0187C:  DATA 72,20
0187E:  DATA 54,6F
01880:  DATA 74,61
01882:  DATA 6C,20
01884:  DATA 00,00
01886:  DATA 20,20
01888:  DATA 28,32
0188A:  DATA 29,20
0188C:  DATA 41,63
0188E:  DATA 74,69
01890:  DATA 76,61
01892:  DATA 72,20
01894:  DATA 4E,6F
01896:  DATA 63,68
01898:  DATA 65,20
0189A:  DATA 00,00
0189C:  DATA 20,20
0189E:  DATA 28,33
018A0:  DATA 29,20
018A2:  DATA 41,63
018A4:  DATA 74,69
018A6:  DATA 76,61
018A8:  DATA 72,20
018AA:  DATA 41,66
018AC:  DATA 75,65
018AE:  DATA 72,61
018B0:  DATA 00,00
018B2:  DATA 3D,3D
018B4:  DATA 3D,3D
018B6:  DATA 3D,3D
018B8:  DATA 20,41
018BA:  DATA 6C,61
018BC:  DATA 72,6D
018BE:  DATA 61,20
018C0:  DATA 3D,3D
018C2:  DATA 3D,3D
018C4:  DATA 3D,3D
018C6:  DATA 00,00
018C8:  DATA 20,20
018CA:  DATA 28,31
018CC:  DATA 29,20
018CE:  DATA 41,63
018D0:  DATA 74,69
018D2:  DATA 76,61
018D4:  DATA 72,20
018D6:  DATA 54,6F
018D8:  DATA 74,61
018DA:  DATA 6C,20
018DC:  DATA 00,00
018DE:  DATA 7E,20
018E0:  DATA 28,32
018E2:  DATA 29,20
018E4:  DATA 41,63
018E6:  DATA 74,69
018E8:  DATA 76,61
018EA:  DATA 72,20
018EC:  DATA 4E,6F
018EE:  DATA 63,68
018F0:  DATA 65,20
018F2:  DATA 00,00
018F4:  DATA 20,20
018F6:  DATA 28,33
018F8:  DATA 29,20
018FA:  DATA 41,63
018FC:  DATA 74,69
018FE:  DATA 76,61
01900:  DATA 72,20
01902:  DATA 41,66
01904:  DATA 75,65
01906:  DATA 72,61
01908:  DATA 00,00
0190A:  DATA 3D,3D
0190C:  DATA 3D,3D
0190E:  DATA 3D,3D
01910:  DATA 20,41
01912:  DATA 6C,61
01914:  DATA 72,6D
01916:  DATA 61,20
01918:  DATA 3D,3D
0191A:  DATA 3D,3D
0191C:  DATA 3D,3D
0191E:  DATA 00,00
01920:  DATA 20,20
01922:  DATA 28,32
01924:  DATA 29,20
01926:  DATA 41,63
01928:  DATA 74,69
0192A:  DATA 76,61
0192C:  DATA 72,20
0192E:  DATA 4E,6F
01930:  DATA 63,68
01932:  DATA 65,20
01934:  DATA 00,00
01936:  DATA 7E,20
01938:  DATA 28,33
0193A:  DATA 29,20
0193C:  DATA 41,63
0193E:  DATA 74,69
01940:  DATA 76,61
01942:  DATA 72,20
01944:  DATA 41,66
01946:  DATA 75,65
01948:  DATA 72,61
0194A:  DATA 00,00
0194C:  DATA 20,20
0194E:  DATA 28,34
01950:  DATA 29,20
01952:  DATA 43,6F
01954:  DATA 6E,66
01956:  DATA 69,67
01958:  DATA 75,72
0195A:  DATA 61,63
0195C:  DATA 69,6F
0195E:  DATA 6E,20
01960:  DATA 00,00
01962:  DATA 3D,3D
01964:  DATA 3D,3D
01966:  DATA 3D,3D
01968:  DATA 20,41
0196A:  DATA 6C,61
0196C:  DATA 72,6D
0196E:  DATA 61,20
01970:  DATA 3D,3D
01972:  DATA 3D,3D
01974:  DATA 3D,3D
01976:  DATA 00,00
01978:  DATA 20,20
0197A:  DATA 28,32
0197C:  DATA 29,20
0197E:  DATA 41,63
01980:  DATA 74,69
01982:  DATA 76,61
01984:  DATA 72,20
01986:  DATA 4E,6F
01988:  DATA 63,68
0198A:  DATA 65,20
0198C:  DATA 00,00
0198E:  DATA 20,20
01990:  DATA 28,33
01992:  DATA 29,20
01994:  DATA 41,63
01996:  DATA 74,69
01998:  DATA 76,61
0199A:  DATA 72,20
0199C:  DATA 41,66
0199E:  DATA 75,65
019A0:  DATA 72,61
019A2:  DATA 00,00
019A4:  DATA 7E,20
019A6:  DATA 28,34
019A8:  DATA 29,20
019AA:  DATA 43,6F
019AC:  DATA 6E,66
019AE:  DATA 69,67
019B0:  DATA 75,72
019B2:  DATA 61,63
019B4:  DATA 69,6F
019B6:  DATA 6E,20
019B8:  DATA 00,00
019BA:  DATA 3D,20
019BC:  DATA 43,6F
019BE:  DATA 6E,74
019C0:  DATA 72,6F
019C2:  DATA 6C,20
019C4:  DATA 64,65
019C6:  DATA 20,6C
019C8:  DATA 75,63
019CA:  DATA 65,73
019CC:  DATA 20,3D
019CE:  DATA 00,00
019D0:  DATA 20,7E
019D2:  DATA 20,28
019D4:  DATA 31,29
019D6:  DATA 20,50
019D8:  DATA 72,65
019DA:  DATA 6E,64
019DC:  DATA 2F,41
019DE:  DATA 70,61
019E0:  DATA 67,61
019E2:  DATA 72,20
019E4:  DATA 00,00
019E6:  DATA 20,20
019E8:  DATA 20,28
019EA:  DATA 32,29
019EC:  DATA 20,47
019EE:  DATA 72,75
019F0:  DATA 70,6F
019F2:  DATA 73,20
019F4:  DATA 20,20
019F6:  DATA 20,20
019F8:  DATA 20,20
019FA:  DATA 00,00
019FC:  DATA 20,20
019FE:  DATA 20,28
01A00:  DATA 33,29
01A02:  DATA 20,52
01A04:  DATA 65,67
01A06:  DATA 75,6C
01A08:  DATA 61,63
01A0A:  DATA 69,6F
01A0C:  DATA 6E,20
01A0E:  DATA 20,20
01A10:  DATA 00,00
01A12:  DATA 3D,20
01A14:  DATA 43,6F
01A16:  DATA 6E,74
01A18:  DATA 72,6F
01A1A:  DATA 6C,20
01A1C:  DATA 64,65
01A1E:  DATA 20,6C
01A20:  DATA 75,63
01A22:  DATA 65,73
01A24:  DATA 20,3D
01A26:  DATA 00,00
01A28:  DATA 20,20
01A2A:  DATA 20,28
01A2C:  DATA 31,29
01A2E:  DATA 20,50
01A30:  DATA 72,65
01A32:  DATA 6E,64
01A34:  DATA 2F,41
01A36:  DATA 70,61
01A38:  DATA 67,61
01A3A:  DATA 72,20
01A3C:  DATA 00,00
01A3E:  DATA 20,7E
01A40:  DATA 20,28
01A42:  DATA 32,29
01A44:  DATA 20,47
01A46:  DATA 72,75
01A48:  DATA 70,6F
01A4A:  DATA 73,20
01A4C:  DATA 20,20
01A4E:  DATA 20,20
01A50:  DATA 20,20
01A52:  DATA 00,00
01A54:  DATA 20,20
01A56:  DATA 20,28
01A58:  DATA 33,29
01A5A:  DATA 20,52
01A5C:  DATA 65,67
01A5E:  DATA 75,6C
01A60:  DATA 61,63
01A62:  DATA 69,6F
01A64:  DATA 6E,20
01A66:  DATA 20,20
01A68:  DATA 00,00
01A6A:  DATA 3D,20
01A6C:  DATA 43,6F
01A6E:  DATA 6E,74
01A70:  DATA 72,6F
01A72:  DATA 6C,20
01A74:  DATA 64,65
01A76:  DATA 20,6C
01A78:  DATA 75,63
01A7A:  DATA 65,73
01A7C:  DATA 20,3D
01A7E:  DATA 00,00
01A80:  DATA 20,20
01A82:  DATA 20,28
01A84:  DATA 31,29
01A86:  DATA 20,50
01A88:  DATA 72,65
01A8A:  DATA 6E,64
01A8C:  DATA 2F,41
01A8E:  DATA 70,61
01A90:  DATA 67,61
01A92:  DATA 72,20
01A94:  DATA 00,00
01A96:  DATA 20,20
01A98:  DATA 20,28
01A9A:  DATA 32,29
01A9C:  DATA 20,47
01A9E:  DATA 72,75
01AA0:  DATA 70,6F
01AA2:  DATA 73,20
01AA4:  DATA 20,20
01AA6:  DATA 20,20
01AA8:  DATA 20,20
01AAA:  DATA 00,00
01AAC:  DATA 20,7E
01AAE:  DATA 20,28
01AB0:  DATA 33,29
01AB2:  DATA 20,52
01AB4:  DATA 65,67
01AB6:  DATA 75,6C
01AB8:  DATA 61,63
01ABA:  DATA 69,6F
01ABC:  DATA 6E,20
01ABE:  DATA 20,20
01AC0:  DATA 00,00
01AC2:  DATA 3D,3D
01AC4:  DATA 3D,3D
01AC6:  DATA 20,41
01AC8:  DATA 75,74
01ACA:  DATA 6F,6D
01ACC:  DATA 61,74
01ACE:  DATA 69,63
01AD0:  DATA 6F,20
01AD2:  DATA 3D,3D
01AD4:  DATA 3D,3D
01AD6:  DATA 00,00
01AD8:  DATA 20,7E
01ADA:  DATA 20,28
01ADC:  DATA 31,29
01ADE:  DATA 20,45
01AE0:  DATA 6C,65
01AE2:  DATA 67,69
01AE4:  DATA 72,20
01AE6:  DATA 64,69
01AE8:  DATA 61,73
01AEA:  DATA 20,20
01AEC:  DATA 00,00
01AEE:  DATA 20,20
01AF0:  DATA 20,28
01AF2:  DATA 32,29
01AF4:  DATA 20,48
01AF6:  DATA 6F,72
01AF8:  DATA 61,72
01AFA:  DATA 69,6F
01AFC:  DATA 20,20
01AFE:  DATA 20,20
01B00:  DATA 20,20
01B02:  DATA 00,00
01B04:  DATA 20,20
01B06:  DATA 20,28
01B08:  DATA 33,29
01B0A:  DATA 20,45
01B0C:  DATA 6C,65
01B0E:  DATA 67,69
01B10:  DATA 72,20
01B12:  DATA 6C,75
01B14:  DATA 63,65
01B16:  DATA 73,20
01B18:  DATA 00,00
01B1A:  DATA 3D,3D
01B1C:  DATA 3D,3D
01B1E:  DATA 20,41
01B20:  DATA 75,74
01B22:  DATA 6F,6D
01B24:  DATA 61,74
01B26:  DATA 69,63
01B28:  DATA 6F,20
01B2A:  DATA 3D,3D
01B2C:  DATA 3D,3D
01B2E:  DATA 00,00
01B30:  DATA 20,20
01B32:  DATA 20,28
01B34:  DATA 31,29
01B36:  DATA 20,45
01B38:  DATA 6C,65
01B3A:  DATA 67,69
01B3C:  DATA 72,20
01B3E:  DATA 64,69
01B40:  DATA 61,73
01B42:  DATA 20,20
01B44:  DATA 00,00
01B46:  DATA 20,7E
01B48:  DATA 20,28
01B4A:  DATA 32,29
01B4C:  DATA 20,48
01B4E:  DATA 6F,72
01B50:  DATA 61,72
01B52:  DATA 69,6F
01B54:  DATA 20,20
01B56:  DATA 20,20
01B58:  DATA 20,20
01B5A:  DATA 00,00
01B5C:  DATA 20,20
01B5E:  DATA 20,28
01B60:  DATA 33,29
01B62:  DATA 20,45
01B64:  DATA 6C,65
01B66:  DATA 67,69
01B68:  DATA 72,20
01B6A:  DATA 6C,75
01B6C:  DATA 63,65
01B6E:  DATA 73,20
01B70:  DATA 00,00
01B72:  DATA 3D,3D
01B74:  DATA 3D,3D
01B76:  DATA 20,41
01B78:  DATA 75,74
01B7A:  DATA 6F,6D
01B7C:  DATA 61,74
01B7E:  DATA 69,63
01B80:  DATA 6F,20
01B82:  DATA 3D,3D
01B84:  DATA 3D,3D
01B86:  DATA 00,00
01B88:  DATA 20,20
01B8A:  DATA 20,28
01B8C:  DATA 31,29
01B8E:  DATA 20,45
01B90:  DATA 6C,65
01B92:  DATA 67,69
01B94:  DATA 72,20
01B96:  DATA 64,69
01B98:  DATA 61,73
01B9A:  DATA 20,20
01B9C:  DATA 00,00
01B9E:  DATA 20,20
01BA0:  DATA 20,28
01BA2:  DATA 32,29
01BA4:  DATA 20,48
01BA6:  DATA 6F,72
01BA8:  DATA 61,72
01BAA:  DATA 69,6F
01BAC:  DATA 20,20
01BAE:  DATA 20,20
01BB0:  DATA 20,20
01BB2:  DATA 00,00
01BB4:  DATA 20,7E
01BB6:  DATA 20,28
01BB8:  DATA 33,29
01BBA:  DATA 20,45
01BBC:  DATA 6C,65
01BBE:  DATA 67,69
01BC0:  DATA 72,20
01BC2:  DATA 6C,75
01BC4:  DATA 63,65
01BC6:  DATA 73,20
01BC8:  DATA 00,00
01BCA:  DATA 3D,3D
01BCC:  DATA 3D,20
01BCE:  DATA 43,6F
01BD0:  DATA 6E,66
01BD2:  DATA 69,67
01BD4:  DATA 75,72
01BD6:  DATA 61,63
01BD8:  DATA 69,6F
01BDA:  DATA 6E,20
01BDC:  DATA 3D,3D
01BDE:  DATA 00,00
01BE0:  DATA 20,7E
01BE2:  DATA 20,28
01BE4:  DATA 31,29
01BE6:  DATA 20,43
01BE8:  DATA 61,6D
01BEA:  DATA 62,69
01BEC:  DATA 61,72
01BEE:  DATA 20,43
01BF0:  DATA 6C,61
01BF2:  DATA 76,65
01BF4:  DATA 00,00
01BF6:  DATA 20,20
01BF8:  DATA 20,28
01BFA:  DATA 32,29
01BFC:  DATA 20,46
01BFE:  DATA 65,63
01C00:  DATA 68,61
01C02:  DATA 20,79
01C04:  DATA 20,68
01C06:  DATA 6F,72
01C08:  DATA 61,20
01C0A:  DATA 00,00
01C0C:  DATA 20,20
01C0E:  DATA 20,28
01C10:  DATA 33,29
01C12:  DATA 20,52
01C14:  DATA 65,73
01C16:  DATA 65,74
01C18:  DATA 65,61
01C1A:  DATA 72,20
01C1C:  DATA 3A,4F
01C1E:  DATA 20,20
01C20:  DATA 00,00
01C22:  DATA 3D,3D
01C24:  DATA 3D,20
01C26:  DATA 43,6F
01C28:  DATA 6E,66
01C2A:  DATA 69,67
01C2C:  DATA 75,72
01C2E:  DATA 61,63
01C30:  DATA 69,6F
01C32:  DATA 6E,20
01C34:  DATA 3D,3D
01C36:  DATA 00,00
01C38:  DATA 20,20
01C3A:  DATA 20,28
01C3C:  DATA 31,29
01C3E:  DATA 20,43
01C40:  DATA 61,6D
01C42:  DATA 62,69
01C44:  DATA 61,72
01C46:  DATA 20,43
01C48:  DATA 6C,61
01C4A:  DATA 76,65
01C4C:  DATA 00,00
01C4E:  DATA 20,7E
01C50:  DATA 20,28
01C52:  DATA 32,29
01C54:  DATA 20,46
01C56:  DATA 65,63
01C58:  DATA 68,61
01C5A:  DATA 20,79
01C5C:  DATA 20,68
01C5E:  DATA 6F,72
01C60:  DATA 61,20
01C62:  DATA 00,00
01C64:  DATA 20,20
01C66:  DATA 20,28
01C68:  DATA 33,29
01C6A:  DATA 20,52
01C6C:  DATA 65,73
01C6E:  DATA 65,74
01C70:  DATA 65,61
01C72:  DATA 72,20
01C74:  DATA 3A,4F
01C76:  DATA 20,20
01C78:  DATA 00,00
01C7A:  DATA 3D,3D
01C7C:  DATA 3D,20
01C7E:  DATA 43,6F
01C80:  DATA 6E,66
01C82:  DATA 69,67
01C84:  DATA 75,72
01C86:  DATA 61,63
01C88:  DATA 69,6F
01C8A:  DATA 6E,20
01C8C:  DATA 3D,3D
01C8E:  DATA 00,00
01C90:  DATA 20,20
01C92:  DATA 20,28
01C94:  DATA 32,29
01C96:  DATA 20,46
01C98:  DATA 65,63
01C9A:  DATA 68,61
01C9C:  DATA 20,79
01C9E:  DATA 20,68
01CA0:  DATA 6F,72
01CA2:  DATA 61,20
01CA4:  DATA 00,00
01CA6:  DATA 20,7E
01CA8:  DATA 20,28
01CAA:  DATA 33,29
01CAC:  DATA 20,52
01CAE:  DATA 65,73
01CB0:  DATA 65,74
01CB2:  DATA 65,61
01CB4:  DATA 72,20
01CB6:  DATA 3A,4F
01CB8:  DATA 20,20
01CBA:  DATA 00,00
01CBC:  DATA 20,20
01CBE:  DATA 20,28
01CC0:  DATA 34,29
01CC2:  DATA 20,41
01CC4:  DATA 63,65
01CC6:  DATA 72,63
01CC8:  DATA 61,20
01CCA:  DATA 64,65
01CCC:  DATA 2E,2E
01CCE:  DATA 20,20
01CD0:  DATA 00,00
01CD2:  DATA 3D,3D
01CD4:  DATA 3D,20
01CD6:  DATA 43,6F
01CD8:  DATA 6E,66
01CDA:  DATA 69,67
01CDC:  DATA 75,72
01CDE:  DATA 61,63
01CE0:  DATA 69,6F
01CE2:  DATA 6E,20
01CE4:  DATA 3D,3D
01CE6:  DATA 00,00
01CE8:  DATA 20,20
01CEA:  DATA 20,28
01CEC:  DATA 32,29
01CEE:  DATA 20,46
01CF0:  DATA 65,63
01CF2:  DATA 68,61
01CF4:  DATA 20,79
01CF6:  DATA 20,68
01CF8:  DATA 6F,72
01CFA:  DATA 61,20
01CFC:  DATA 00,00
01CFE:  DATA 20,20
01D00:  DATA 20,28
01D02:  DATA 33,29
01D04:  DATA 20,52
01D06:  DATA 65,73
01D08:  DATA 65,74
01D0A:  DATA 65,61
01D0C:  DATA 72,20
01D0E:  DATA 3A,4F
01D10:  DATA 20,20
01D12:  DATA 00,00
01D14:  DATA 20,7E
01D16:  DATA 20,28
01D18:  DATA 34,29
01D1A:  DATA 20,41
01D1C:  DATA 63,65
01D1E:  DATA 72,63
01D20:  DATA 61,20
01D22:  DATA 64,65
01D24:  DATA 2E,2E
01D26:  DATA 20,20
01D28:  DATA 00,00
01D2A:  DATA 20,20
01D2C:  DATA 20,68
01D2E:  DATA 6F,6C
01D30:  DATA 61,20
01D32:  DATA 20,3A
01D34:  DATA 29,20
01D36:  DATA 20,20
01D38:  DATA 20,20
01D3A:  DATA 00,00
01D3C:  DATA 3D,3D
01D3E:  DATA 20,20
01D40:  DATA 20,20
01D42:  DATA 20,20
01D44:  DATA 20,20
01D46:  DATA 20,20
01D48:  DATA 20,20
01D4A:  DATA 20,20
01D4C:  DATA 20,20
01D4E:  DATA 20,43
01D50:  DATA 00,00
01D52:  DATA 3D,3D
01D54:  DATA 20,20
01D56:  DATA 20,20
01D58:  DATA 20,20
01D5A:  DATA 20,20
01D5C:  DATA 20,20
01D5E:  DATA 20,20
01D60:  DATA 20,20
01D62:  DATA 20,20
01D64:  DATA 43,20
01D66:  DATA 00,00
01D68:  DATA 3D,3D
01D6A:  DATA 20,20
01D6C:  DATA 20,20
01D6E:  DATA 20,20
01D70:  DATA 20,20
01D72:  DATA 20,20
01D74:  DATA 20,20
01D76:  DATA 20,20
01D78:  DATA 20,43
01D7A:  DATA 20,20
01D7C:  DATA 00,00
01D7E:  DATA 3D,3D
01D80:  DATA 20,20
01D82:  DATA 20,20
01D84:  DATA 20,20
01D86:  DATA 20,20
01D88:  DATA 20,20
01D8A:  DATA 20,20
01D8C:  DATA 20,20
01D8E:  DATA 43,20
01D90:  DATA 20,41
01D92:  DATA 00,00
01D94:  DATA 3D,3D
01D96:  DATA 20,20
01D98:  DATA 20,20
01D9A:  DATA 20,20
01D9C:  DATA 20,20
01D9E:  DATA 20,20
01DA0:  DATA 20,20
01DA2:  DATA 20,43
01DA4:  DATA 20,20
01DA6:  DATA 41,20
01DA8:  DATA 00,00
01DAA:  DATA 3D,3D
01DAC:  DATA 20,20
01DAE:  DATA 20,20
01DB0:  DATA 20,20
01DB2:  DATA 20,20
01DB4:  DATA 20,20
01DB6:  DATA 20,20
01DB8:  DATA 43,20
01DBA:  DATA 20,41
01DBC:  DATA 20,20
01DBE:  DATA 00,00
01DC0:  DATA 3D,3D
01DC2:  DATA 20,20
01DC4:  DATA 20,20
01DC6:  DATA 20,20
01DC8:  DATA 20,20
01DCA:  DATA 20,20
01DCC:  DATA 20,43
01DCE:  DATA 20,20
01DD0:  DATA 41,20
01DD2:  DATA 20,53
01DD4:  DATA 00,00
01DD6:  DATA 3D,3D
01DD8:  DATA 20,20
01DDA:  DATA 20,20
01DDC:  DATA 20,20
01DDE:  DATA 20,20
01DE0:  DATA 20,20
01DE2:  DATA 43,20
01DE4:  DATA 20,41
01DE6:  DATA 20,20
01DE8:  DATA 53,20
01DEA:  DATA 00,00
01DEC:  DATA 3D,3D
01DEE:  DATA 20,20
01DF0:  DATA 20,20
01DF2:  DATA 20,20
01DF4:  DATA 20,20
01DF6:  DATA 20,43
01DF8:  DATA 20,20
01DFA:  DATA 41,20
01DFC:  DATA 20,53
01DFE:  DATA 20,20
01E00:  DATA 00,00
01E02:  DATA 3D,3D
01E04:  DATA 20,20
01E06:  DATA 20,20
01E08:  DATA 20,20
01E0A:  DATA 20,20
01E0C:  DATA 43,20
01E0E:  DATA 20,41
01E10:  DATA 20,20
01E12:  DATA 53,20
01E14:  DATA 20,41
01E16:  DATA 00,00
01E18:  DATA 3D,3D
01E1A:  DATA 20,20
01E1C:  DATA 20,20
01E1E:  DATA 20,20
01E20:  DATA 20,43
01E22:  DATA 20,20
01E24:  DATA 41,20
01E26:  DATA 20,53
01E28:  DATA 20,20
01E2A:  DATA 41,20
01E2C:  DATA 00,00
01E2E:  DATA 3D,3D
01E30:  DATA 20,20
01E32:  DATA 20,20
01E34:  DATA 20,20
01E36:  DATA 43,20
01E38:  DATA 20,41
01E3A:  DATA 20,20
01E3C:  DATA 53,20
01E3E:  DATA 20,41
01E40:  DATA 20,20
01E42:  DATA 00,00
01E44:  DATA 3D,3D
01E46:  DATA 20,20
01E48:  DATA 20,20
01E4A:  DATA 20,43
01E4C:  DATA 20,20
01E4E:  DATA 41,20
01E50:  DATA 20,53
01E52:  DATA 20,20
01E54:  DATA 41,20
01E56:  DATA 20,4E
01E58:  DATA 00,00
01E5A:  DATA 3D,3D
01E5C:  DATA 20,20
01E5E:  DATA 20,20
01E60:  DATA 43,20
01E62:  DATA 20,41
01E64:  DATA 20,20
01E66:  DATA 53,20
01E68:  DATA 20,41
01E6A:  DATA 20,20
01E6C:  DATA 4E,20
01E6E:  DATA 00,00
01E70:  DATA 3D,3D
01E72:  DATA 20,20
01E74:  DATA 20,43
01E76:  DATA 20,20
01E78:  DATA 41,20
01E7A:  DATA 20,53
01E7C:  DATA 20,20
01E7E:  DATA 41,20
01E80:  DATA 20,4E
01E82:  DATA 20,20
01E84:  DATA 00,00
01E86:  DATA 3D,3D
01E88:  DATA 20,20
01E8A:  DATA 43,20
01E8C:  DATA 20,41
01E8E:  DATA 20,20
01E90:  DATA 53,20
01E92:  DATA 20,41
01E94:  DATA 20,20
01E96:  DATA 4E,20
01E98:  DATA 20,44
01E9A:  DATA 00,00
01E9C:  DATA 3D,3D
01E9E:  DATA 20,43
01EA0:  DATA 20,20
01EA2:  DATA 41,20
01EA4:  DATA 20,53
01EA6:  DATA 20,20
01EA8:  DATA 41,20
01EAA:  DATA 20,4E
01EAC:  DATA 20,20
01EAE:  DATA 44,20
01EB0:  DATA 00,00
01EB2:  DATA 3D,3D
01EB4:  DATA 20,43
01EB6:  DATA 20,41
01EB8:  DATA 20,20
01EBA:  DATA 53,20
01EBC:  DATA 20,41
01EBE:  DATA 20,20
01EC0:  DATA 4E,20
01EC2:  DATA 20,44
01EC4:  DATA 20,20
01EC6:  DATA 00,00
01EC8:  DATA 3D,3D
01ECA:  DATA 20,43
01ECC:  DATA 41,20
01ECE:  DATA 20,53
01ED0:  DATA 20,20
01ED2:  DATA 41,20
01ED4:  DATA 20,4E
01ED6:  DATA 20,20
01ED8:  DATA 44,20
01EDA:  DATA 20,52
01EDC:  DATA 00,00
01EDE:  DATA 3D,3D
01EE0:  DATA 20,43
01EE2:  DATA 41,20
01EE4:  DATA 53,20
01EE6:  DATA 20,41
01EE8:  DATA 20,20
01EEA:  DATA 4E,20
01EEC:  DATA 20,44
01EEE:  DATA 20,20
01EF0:  DATA 52,20
01EF2:  DATA 00,00
01EF4:  DATA 3D,3D
01EF6:  DATA 20,43
01EF8:  DATA 41,53
01EFA:  DATA 20,20
01EFC:  DATA 41,20
01EFE:  DATA 20,4E
01F00:  DATA 20,20
01F02:  DATA 44,20
01F04:  DATA 20,52
01F06:  DATA 20,20
01F08:  DATA 00,00
01F0A:  DATA 3D,3D
01F0C:  DATA 20,43
01F0E:  DATA 41,53
01F10:  DATA 20,41
01F12:  DATA 20,20
01F14:  DATA 4E,20
01F16:  DATA 20,44
01F18:  DATA 20,20
01F1A:  DATA 52,20
01F1C:  DATA 20,41
01F1E:  DATA 00,00
01F20:  DATA 3D,3D
01F22:  DATA 20,43
01F24:  DATA 41,53
01F26:  DATA 41,20
01F28:  DATA 20,4E
01F2A:  DATA 20,20
01F2C:  DATA 44,20
01F2E:  DATA 20,52
01F30:  DATA 20,20
01F32:  DATA 41,20
01F34:  DATA 00,00
01F36:  DATA 3D,3D
01F38:  DATA 20,43
01F3A:  DATA 41,53
01F3C:  DATA 41,20
01F3E:  DATA 4E,20
01F40:  DATA 20,44
01F42:  DATA 20,20
01F44:  DATA 52,20
01F46:  DATA 20,41
01F48:  DATA 20,20
01F4A:  DATA 00,00
01F4C:  DATA 3D,3D
01F4E:  DATA 20,43
01F50:  DATA 41,53
01F52:  DATA 41,4E
01F54:  DATA 20,20
01F56:  DATA 44,20
01F58:  DATA 20,52
01F5A:  DATA 20,20
01F5C:  DATA 41,20
01F5E:  DATA 20,20
01F60:  DATA 00,00
01F62:  DATA 3D,3D
01F64:  DATA 20,43
01F66:  DATA 41,53
01F68:  DATA 41,4E
01F6A:  DATA 20,44
01F6C:  DATA 20,20
01F6E:  DATA 52,20
01F70:  DATA 20,41
01F72:  DATA 20,20
01F74:  DATA 20,20
01F76:  DATA 00,00
01F78:  DATA 3D,3D
01F7A:  DATA 20,43
01F7C:  DATA 41,53
01F7E:  DATA 41,4E
01F80:  DATA 44,20
01F82:  DATA 20,52
01F84:  DATA 20,20
01F86:  DATA 41,20
01F88:  DATA 20,20
01F8A:  DATA 20,20
01F8C:  DATA 00,00
01F8E:  DATA 3D,3D
01F90:  DATA 20,43
01F92:  DATA 41,53
01F94:  DATA 41,4E
01F96:  DATA 44,20
01F98:  DATA 52,20
01F9A:  DATA 20,41
01F9C:  DATA 20,20
01F9E:  DATA 20,20
01FA0:  DATA 20,20
01FA2:  DATA 00,00
01FA4:  DATA 3D,3D
01FA6:  DATA 20,43
01FA8:  DATA 41,53
01FAA:  DATA 41,4E
01FAC:  DATA 44,52
01FAE:  DATA 20,20
01FB0:  DATA 41,20
01FB2:  DATA 20,20
01FB4:  DATA 20,20
01FB6:  DATA 20,20
01FB8:  DATA 00,00
01FBA:  DATA 3D,3D
01FBC:  DATA 20,43
01FBE:  DATA 41,53
01FC0:  DATA 41,4E
01FC2:  DATA 44,52
01FC4:  DATA 20,41
01FC6:  DATA 20,20
01FC8:  DATA 20,20
01FCA:  DATA 20,20
01FCC:  DATA 20,20
01FCE:  DATA 00,00
01FD0:  DATA 3D,3D
01FD2:  DATA 20,43
01FD4:  DATA 41,53
01FD6:  DATA 41,4E
01FD8:  DATA 44,52
01FDA:  DATA 41,20
01FDC:  DATA 20,20
01FDE:  DATA 20,20
01FE0:  DATA 20,20
01FE2:  DATA 20,20
01FE4:  DATA 00,00
01FE6:  DATA 3D,3D
01FE8:  DATA 3D,20
01FEA:  DATA 43,41
01FEC:  DATA 53,41
01FEE:  DATA 4E,44
01FF0:  DATA 52,41
01FF2:  DATA 20,20
01FF4:  DATA 20,20
01FF6:  DATA 20,20
01FF8:  DATA 20,3D
01FFA:  DATA 00,00
01FFC:  DATA 3D,3D
01FFE:  DATA 3D,3D
02000:  DATA 20,43
02002:  DATA 41,53
02004:  DATA 41,4E
02006:  DATA 44,52
02008:  DATA 41,20
0200A:  DATA 20,20
0200C:  DATA 20,20
0200E:  DATA 3D,3D
02010:  DATA 00,00
02012:  DATA 3D,3D
02014:  DATA 3D,3D
02016:  DATA 3D,20
02018:  DATA 43,41
0201A:  DATA 53,41
0201C:  DATA 4E,44
0201E:  DATA 52,41
02020:  DATA 20,20
02022:  DATA 20,3D
02024:  DATA 3D,3D
02026:  DATA 00,00
02028:  DATA 3D,3D
0202A:  DATA 3D,3D
0202C:  DATA 3D,20
0202E:  DATA 43,41
02030:  DATA 53,41
02032:  DATA 4E,44
02034:  DATA 52,41
02036:  DATA 20,3D
02038:  DATA 3D,3D
0203A:  DATA 3D,3D
0203C:  DATA 00,00
0203E:  DATA 20,20
02040:  DATA 20,20
02042:  DATA 20,43
02044:  DATA 41,53
02046:  DATA 41,4E
02048:  DATA 44,52
0204A:  DATA 41,20
0204C:  DATA 25,63
0204E:  DATA 20,20
02050:  DATA 20,20
02052:  DATA 20,00
02054:  DATA 56,65
02056:  DATA 72,73
02058:  DATA 3A,20
0205A:  DATA 30,2E
0205C:  DATA 39,62
0205E:  DATA 20,20
02060:  DATA 4A,75
02062:  DATA 6E,2D
02064:  DATA 32,30
02066:  DATA 31,34
02068:  DATA 00,00
0206A:  DATA 7E,47
0206C:  DATA 6F,6E
0206E:  DATA 7A,61
02070:  DATA 6C,6F
02072:  DATA 20,43
02074:  DATA 61,72
02076:  DATA 76,61
02078:  DATA 6C,6C
0207A:  DATA 6F,20
0207C:  DATA 4D,2E
0207E:  DATA 00,00
02080:  DATA 7E,67
02082:  DATA 6F,6E
02084:  DATA 7A,61
02086:  DATA 63,61
02088:  DATA 72,76
0208A:  DATA 40,67
0208C:  DATA 6D,61
0208E:  DATA 69,6C
02090:  DATA 2E,63
02092:  DATA 6F,6D
02094:  DATA 00,00
*
02452:  ADDWF  FE8,W
02454:  CLRF   FF7
02456:  RLCF   FF7,F
02458:  ADDLW  6D
0245A:  MOVWF  FF6
0245C:  MOVLW  24
0245E:  ADDWFC FF7,F
02460:  TBLRD*-
02462:  MOVF   FF5,W
02464:  MOVWF  FFA
02466:  TBLRD*
02468:  MOVF   FF5,W
0246A:  MOVWF  FF9
0246C:  DATA 1C,24
0246E:  DATA 22,24
02470:  DATA 2A,24
02472:  DATA 32,24
*
024DC:  TBLRD*+
024DE:  MOVF   FF5,F
024E0:  BZ    24FA
024E2:  MOVFF  FF6,127
024E6:  MOVFF  FF7,128
024EA:  MOVFF  FF5,12A
024EE:  RCALL  2474
024F0:  MOVFF  127,FF6
024F4:  MOVFF  128,FF7
024F8:  BRA    24DC
024FA:  RETURN 0
*
026F2:  MOVLB  1
026F4:  MOVF   x2A,W
026F6:  CLRF   01
026F8:  SUBWF  x29,W
026FA:  BC    2702
026FC:  MOVFF  129,00
02700:  BRA    271A
02702:  CLRF   00
02704:  MOVLW  08
02706:  MOVWF  x2B
02708:  RLCF   x29,F
0270A:  RLCF   00,F
0270C:  MOVF   x2A,W
0270E:  SUBWF  00,W
02710:  BTFSC  FD8.0
02712:  MOVWF  00
02714:  RLCF   01,F
02716:  DECFSZ x2B,F
02718:  BRA    2708
0271A:  MOVLB  0
0271C:  RETURN 0
0271E:  MOVF   01,W
02720:  MOVFF  127,129
02724:  MOVLW  64
02726:  MOVLB  1
02728:  MOVWF  x2A
0272A:  MOVLB  0
0272C:  RCALL  26F2
0272E:  MOVFF  00,127
02732:  MOVF   01,W
02734:  MOVLW  30
02736:  BNZ   2748
02738:  MOVLB  1
0273A:  BTFSS  x28.1
0273C:  BRA    275C
0273E:  BTFSC  x28.3
02740:  BRA    275C
02742:  BTFSC  x28.4
02744:  MOVLW  20
02746:  BRA    2750
02748:  MOVLB  1
0274A:  BCF    x28.3
0274C:  BCF    x28.4
0274E:  BSF    x28.0
02750:  ADDWF  01,F
02752:  MOVFF  01,12A
02756:  MOVLB  0
02758:  RCALL  2474
0275A:  MOVLB  1
0275C:  MOVFF  127,129
02760:  MOVLW  0A
02762:  MOVWF  x2A
02764:  MOVLB  0
02766:  RCALL  26F2
02768:  MOVFF  00,127
0276C:  MOVF   01,W
0276E:  MOVLW  30
02770:  BNZ   2782
02772:  MOVLB  1
02774:  BTFSC  x28.3
02776:  BRA    278C
02778:  BTFSS  x28.0
0277A:  BRA    278C
0277C:  BTFSC  x28.4
0277E:  MOVLW  20
02780:  MOVLB  0
02782:  ADDWF  01,F
02784:  MOVFF  01,12A
02788:  RCALL  2474
0278A:  MOVLB  1
0278C:  MOVLW  30
0278E:  ADDWF  x27,F
02790:  MOVFF  127,12A
02794:  MOVLB  0
02796:  RCALL  2474
02798:  RETURN 0
0279A:  TBLRD*+
0279C:  MOVFF  FF6,128
027A0:  MOVFF  FF7,129
027A4:  MOVFF  FF5,12A
027A8:  RCALL  2474
027AA:  MOVFF  128,FF6
027AE:  MOVFF  129,FF7
027B2:  MOVLB  1
027B4:  DECFSZ x27,F
027B6:  BRA    27BA
027B8:  BRA    27BE
027BA:  MOVLB  0
027BC:  BRA    279A
027BE:  MOVLB  0
027C0:  RETURN 0
*
0318C:  ADDWF  FE8,W
0318E:  CLRF   FF7
03190:  RLCF   FF7,F
03192:  ADDLW  A7
03194:  MOVWF  FF6
03196:  MOVLW  31
03198:  ADDWFC FF7,F
0319A:  TBLRD*-
0319C:  MOVF   FF5,W
0319E:  MOVWF  FFA
031A0:  TBLRD*
031A2:  MOVF   FF5,W
031A4:  MOVWF  FF9
031A6:  DATA D2,27
031A8:  DATA E4,27
031AA:  DATA AE,29
031AC:  DATA 10,2A
031AE:  DATA 70,2A
031B0:  DATA D0,2A
031B2:  DATA 30,2B
031B4:  DATA 8A,31
031B6:  DATA 8A,31
031B8:  DATA 8A,31
031BA:  DATA 8A,31
031BC:  DATA 8A,31
031BE:  DATA 8A,31
031C0:  DATA 8A,31
031C2:  DATA 8A,31
031C4:  DATA 8A,31
031C6:  DATA 8A,31
031C8:  DATA 8A,31
031CA:  DATA 8A,31
031CC:  DATA 8A,31
031CE:  DATA 8A,31
031D0:  DATA 90,2B
031D2:  DATA F0,2B
031D4:  DATA 56,2C
031D6:  DATA BE,2C
031D8:  DATA 8A,31
031DA:  DATA 8A,31
031DC:  DATA 8A,31
031DE:  DATA 8A,31
031E0:  DATA 8A,31
031E2:  DATA 8A,31
031E4:  DATA 2C,2D
031E6:  DATA 9C,2D
031E8:  DATA 0C,2E
031EA:  DATA 8A,31
031EC:  DATA 8A,31
031EE:  DATA 8A,31
031F0:  DATA 8A,31
031F2:  DATA 8A,31
031F4:  DATA 8A,31
031F6:  DATA 8A,31
031F8:  DATA 8A,31
031FA:  DATA 8A,31
031FC:  DATA 8A,31
031FE:  DATA 8A,31
03200:  DATA 8A,31
03202:  DATA 8A,31
03204:  DATA 8A,31
03206:  DATA 8A,31
03208:  DATA 8A,31
0320A:  DATA 8A,31
0320C:  DATA 7C,2E
0320E:  DATA EC,2E
03210:  DATA 5C,2F
03212:  DATA 8A,31
03214:  DATA 8A,31
03216:  DATA 8A,31
03218:  DATA 8A,31
0321A:  DATA 8A,31
0321C:  DATA 8A,31
0321E:  DATA 8A,31
03220:  DATA CC,2F
03222:  DATA 3C,30
03224:  DATA AC,30
03226:  DATA 1C,31
*
03612:  ADDWF  FE8,W
03614:  CLRF   FF7
03616:  RLCF   FF7,F
03618:  ADDLW  2D
0361A:  MOVWF  FF6
0361C:  MOVLW  36
0361E:  ADDWFC FF7,F
03620:  TBLRD*-
03622:  MOVF   FF5,W
03624:  MOVWF  FFA
03626:  TBLRD*
03628:  MOVF   FF5,W
0362A:  MOVWF  FF9
0362C:  DATA 54,32
0362E:  DATA 78,32
03630:  DATA 90,32
03632:  DATA BC,32
03634:  DATA EE,32
03636:  DATA 20,33
03638:  DATA 52,33
0363A:  DATA 0E,36
0363C:  DATA 0E,36
0363E:  DATA 0E,36
03640:  DATA 0E,36
03642:  DATA 0E,36
03644:  DATA 0E,36
03646:  DATA 0E,36
03648:  DATA 0E,36
0364A:  DATA 0E,36
0364C:  DATA 0E,36
0364E:  DATA 0E,36
03650:  DATA 0E,36
03652:  DATA 0E,36
03654:  DATA 0E,36
03656:  DATA 7E,33
03658:  DATA AA,33
0365A:  DATA DC,33
0365C:  DATA 0E,34
0365E:  DATA 0E,36
03660:  DATA 0E,36
03662:  DATA 0E,36
03664:  DATA 0E,36
03666:  DATA 0E,36
03668:  DATA 0E,36
0366A:  DATA 3A,34
0366C:  DATA 66,34
0366E:  DATA 98,34
03670:  DATA 0E,36
03672:  DATA 0E,36
03674:  DATA 0E,36
03676:  DATA 0E,36
03678:  DATA 0E,36
0367A:  DATA 0E,36
0367C:  DATA 0E,36
0367E:  DATA 0E,36
03680:  DATA 0E,36
03682:  DATA 0E,36
03684:  DATA 0E,36
03686:  DATA 0E,36
03688:  DATA 0E,36
0368A:  DATA 0E,36
0368C:  DATA 0E,36
0368E:  DATA 0E,36
03690:  DATA 0E,36
03692:  DATA C4,34
03694:  DATA F0,34
03696:  DATA 22,35
03698:  DATA 0E,36
0369A:  DATA 0E,36
0369C:  DATA 0E,36
0369E:  DATA 0E,36
036A0:  DATA 0E,36
036A2:  DATA 0E,36
036A4:  DATA 0E,36
036A6:  DATA 4E,35
036A8:  DATA 7A,35
036AA:  DATA AC,35
036AC:  DATA DE,35
*
03AE2:  ADDWF  FE8,W
03AE4:  CLRF   FF7
03AE6:  RLCF   FF7,F
03AE8:  ADDLW  FD
03AEA:  MOVWF  FF6
03AEC:  MOVLW  3A
03AEE:  ADDWFC FF7,F
03AF0:  TBLRD*-
03AF2:  MOVF   FF5,W
03AF4:  MOVWF  FFA
03AF6:  TBLRD*
03AF8:  MOVF   FF5,W
03AFA:  MOVWF  FF9
03AFC:  DATA 06,37
03AFE:  DATA 0E,37
03B00:  DATA 16,37
03B02:  DATA 1E,37
03B04:  DATA 26,37
03B06:  DATA 2E,37
03B08:  ADDWF  FE8,W
03B0A:  CLRF   FF7
03B0C:  RLCF   FF7,F
03B0E:  ADDLW  23
03B10:  MOVWF  FF6
03B12:  MOVLW  3B
03B14:  ADDWFC FF7,F
03B16:  TBLRD*-
03B18:  MOVF   FF5,W
03B1A:  MOVWF  FFA
03B1C:  TBLRD*
03B1E:  MOVF   FF5,W
03B20:  MOVWF  FF9
03B22:  DATA 56,37
03B24:  DATA 5E,37
03B26:  DATA 66,37
03B28:  DATA 6E,37
03B2A:  DATA 76,37
03B2C:  DATA 7E,37
03B2E:  ADDWF  FE8,W
03B30:  CLRF   FF7
03B32:  RLCF   FF7,F
03B34:  ADDLW  49
03B36:  MOVWF  FF6
03B38:  MOVLW  3B
03B3A:  ADDWFC FF7,F
03B3C:  TBLRD*-
03B3E:  MOVF   FF5,W
03B40:  MOVWF  FFA
03B42:  TBLRD*
03B44:  MOVF   FF5,W
03B46:  MOVWF  FF9
03B48:  DATA A6,37
03B4A:  DATA AE,37
03B4C:  DATA B6,37
03B4E:  DATA BE,37
03B50:  DATA C6,37
03B52:  DATA CE,37
03B54:  ADDWF  FE8,W
03B56:  CLRF   FF7
03B58:  RLCF   FF7,F
03B5A:  ADDLW  6F
03B5C:  MOVWF  FF6
03B5E:  MOVLW  3B
03B60:  ADDWFC FF7,F
03B62:  TBLRD*-
03B64:  MOVF   FF5,W
03B66:  MOVWF  FFA
03B68:  TBLRD*
03B6A:  MOVF   FF5,W
03B6C:  MOVWF  FF9
03B6E:  DATA F6,37
03B70:  DATA FE,37
03B72:  DATA 06,38
03B74:  DATA 0E,38
03B76:  DATA 16,38
03B78:  DATA 1E,38
03B7A:  ADDWF  FE8,W
03B7C:  CLRF   FF7
03B7E:  RLCF   FF7,F
03B80:  ADDLW  95
03B82:  MOVWF  FF6
03B84:  MOVLW  3B
03B86:  ADDWFC FF7,F
03B88:  TBLRD*-
03B8A:  MOVF   FF5,W
03B8C:  MOVWF  FFA
03B8E:  TBLRD*
03B90:  MOVF   FF5,W
03B92:  MOVWF  FF9
03B94:  DATA 58,38
03B96:  DATA 8C,38
03B98:  DATA CC,38
03B9A:  DATA 18,39
03B9C:  DATA 64,39
03B9E:  DATA A4,39
*
03FE0:  MOVF   FEF,F
03FE2:  BZ    4004
03FE4:  MOVFF  FEA,128
03FE8:  MOVFF  FE9,127
03FEC:  MOVFF  FEF,12A
03FF0:  CALL   2474
03FF4:  MOVFF  128,FEA
03FF8:  MOVFF  127,FE9
03FFC:  INCF   FE9,F
03FFE:  BTFSC  FD8.2
04000:  INCF   FEA,F
04002:  BRA    3FE0
04004:  RETURN 0
*
06F46:  ADDWF  FE8,W
06F48:  CLRF   FF7
06F4A:  RLCF   FF7,F
06F4C:  ADDLW  61
06F4E:  MOVWF  FF6
06F50:  MOVLW  6F
06F52:  ADDWFC FF7,F
06F54:  TBLRD*-
06F56:  MOVF   FF5,W
06F58:  MOVWF  FFA
06F5A:  TBLRD*
06F5C:  MOVF   FF5,W
06F5E:  MOVWF  FF9
06F60:  DATA 90,48
06F62:  DATA 9E,4A
06F64:  DATA D6,4C
06F66:  DATA 0E,4F
06F68:  DATA 46,51
06F6A:  DATA 7C,53
06F6C:  DATA B2,55
06F6E:  DATA E8,57
06F70:  ADDWF  FE8,W
06F72:  CLRF   FF7
06F74:  RLCF   FF7,F
06F76:  ADDLW  8B
06F78:  MOVWF  FF6
06F7A:  MOVLW  6F
06F7C:  ADDWFC FF7,F
06F7E:  TBLRD*-
06F80:  MOVF   FF5,W
06F82:  MOVWF  FFA
06F84:  TBLRD*
06F86:  MOVF   FF5,W
06F88:  MOVWF  FF9
06F8A:  DATA 58,5A
06F8C:  DATA 66,5C
06F8E:  DATA 9E,5E
06F90:  DATA D6,60
06F92:  DATA 0E,63
06F94:  DATA 44,65
06F96:  DATA 7A,67
06F98:  DATA B0,69
06F9A:  ADDWF  FE8,W
06F9C:  CLRF   FF7
06F9E:  RLCF   FF7,F
06FA0:  ADDLW  B5
06FA2:  MOVWF  FF6
06FA4:  MOVLW  6F
06FA6:  ADDWFC FF7,F
06FA8:  TBLRD*-
06FAA:  MOVF   FF5,W
06FAC:  MOVWF  FFA
06FAE:  TBLRD*
06FB0:  MOVF   FF5,W
06FB2:  MOVWF  FF9
06FB4:  DATA 4E,6C
06FB6:  DATA 8C,6C
06FB8:  DATA CA,6C
06FBA:  DATA 08,6D
06FBC:  DATA 46,6D
06FBE:  DATA 84,6D
06FC0:  DATA C2,6D
06FC2:  DATA 00,6E
*
08152:  ADDWF  FE8,W
08154:  CLRF   FF7
08156:  RLCF   FF7,F
08158:  ADDLW  6D
0815A:  MOVWF  FF6
0815C:  MOVLW  81
0815E:  ADDWFC FF7,F
08160:  TBLRD*-
08162:  MOVF   FF5,W
08164:  MOVWF  FFA
08166:  TBLRD*
08168:  MOVF   FF5,W
0816A:  MOVWF  FF9
0816C:  DATA 72,7A
0816E:  DATA 82,7A
08170:  DATA 92,7A
08172:  DATA A2,7A
08174:  DATA B2,7A
08176:  DATA C2,7A
08178:  DATA 7A,7A
0817A:  DATA 8A,7A
0817C:  DATA 9A,7A
0817E:  DATA AA,7A
08180:  DATA BA,7A
08182:  DATA CA,7A
08184:  ADDWF  FE8,W
08186:  CLRF   FF7
08188:  RLCF   FF7,F
0818A:  ADDLW  9F
0818C:  MOVWF  FF6
0818E:  MOVLW  81
08190:  ADDWFC FF7,F
08192:  TBLRD*-
08194:  MOVF   FF5,W
08196:  MOVWF  FFA
08198:  TBLRD*
0819A:  MOVF   FF5,W
0819C:  MOVWF  FF9
0819E:  DATA F2,7A
081A0:  DATA 02,7B
081A2:  DATA 12,7B
081A4:  DATA 22,7B
081A6:  DATA 32,7B
081A8:  DATA 42,7B
081AA:  DATA FA,7A
081AC:  DATA 0A,7B
081AE:  DATA 1A,7B
081B0:  DATA 2A,7B
081B2:  DATA 3A,7B
081B4:  DATA 4A,7B
081B6:  ADDWF  FE8,W
081B8:  CLRF   FF7
081BA:  RLCF   FF7,F
081BC:  ADDLW  D1
081BE:  MOVWF  FF6
081C0:  MOVLW  81
081C2:  ADDWFC FF7,F
081C4:  TBLRD*-
081C6:  MOVF   FF5,W
081C8:  MOVWF  FFA
081CA:  TBLRD*
081CC:  MOVF   FF5,W
081CE:  MOVWF  FF9
081D0:  DATA 72,7B
081D2:  DATA 82,7B
081D4:  DATA 92,7B
081D6:  DATA A2,7B
081D8:  DATA B2,7B
081DA:  DATA C2,7B
081DC:  DATA 7A,7B
081DE:  DATA 8A,7B
081E0:  DATA 9A,7B
081E2:  DATA AA,7B
081E4:  DATA BA,7B
081E6:  DATA CA,7B
081E8:  ADDWF  FE8,W
081EA:  CLRF   FF7
081EC:  RLCF   FF7,F
081EE:  ADDLW  03
081F0:  MOVWF  FF6
081F2:  MOVLW  82
081F4:  ADDWFC FF7,F
081F6:  TBLRD*-
081F8:  MOVF   FF5,W
081FA:  MOVWF  FFA
081FC:  TBLRD*
081FE:  MOVF   FF5,W
08200:  MOVWF  FF9
08202:  DATA F2,7B
08204:  DATA 02,7C
08206:  DATA 12,7C
08208:  DATA 22,7C
0820A:  DATA 32,7C
0820C:  DATA 42,7C
0820E:  DATA FA,7B
08210:  DATA 0A,7C
08212:  DATA 1A,7C
08214:  DATA 2A,7C
08216:  DATA 3A,7C
08218:  DATA 4A,7C
0821A:  ADDWF  FE8,W
0821C:  CLRF   FF7
0821E:  RLCF   FF7,F
08220:  ADDLW  35
08222:  MOVWF  FF6
08224:  MOVLW  82
08226:  ADDWFC FF7,F
08228:  TBLRD*-
0822A:  MOVF   FF5,W
0822C:  MOVWF  FFA
0822E:  TBLRD*
08230:  MOVF   FF5,W
08232:  MOVWF  FF9
08234:  DATA C0,7C
08236:  DATA F4,7C
08238:  DATA 34,7D
0823A:  DATA 80,7D
0823C:  DATA CC,7D
0823E:  DATA 0C,7E
08240:  DATA 40,7E
08242:  DATA 90,7E
08244:  DATA D0,7E
08246:  DATA 1C,7F
08248:  DATA 68,7F
0824A:  DATA A8,7F
*
08B26:  ADDWF  FE8,W
08B28:  CLRF   FF7
08B2A:  RLCF   FF7,F
08B2C:  ADDLW  41
08B2E:  MOVWF  FF6
08B30:  MOVLW  8B
08B32:  ADDWFC FF7,F
08B34:  TBLRD*-
08B36:  MOVF   FF5,W
08B38:  MOVWF  FFA
08B3A:  TBLRD*
08B3C:  MOVF   FF5,W
08B3E:  MOVWF  FF9
08B40:  DATA 98,85
08B42:  DATA B6,85
08B44:  DATA D4,85
08B46:  DATA F2,85
08B48:  DATA 10,86
08B4A:  DATA 2E,86
08B4C:  DATA 4C,86
08B4E:  ADDWF  FE8,W
08B50:  CLRF   FF7
08B52:  RLCF   FF7,F
08B54:  ADDLW  69
08B56:  MOVWF  FF6
08B58:  MOVLW  8B
08B5A:  ADDWFC FF7,F
08B5C:  TBLRD*-
08B5E:  MOVF   FF5,W
08B60:  MOVWF  FFA
08B62:  TBLRD*
08B64:  MOVF   FF5,W
08B66:  MOVWF  FF9
08B68:  DATA 7E,86
08B6A:  DATA 9C,86
08B6C:  DATA BA,86
08B6E:  DATA D8,86
08B70:  DATA F6,86
08B72:  DATA 14,87
08B74:  DATA 32,87
08B76:  DATA 50,87
08B78:  DATA 6E,87
08B7A:  DATA 8C,87
08B7C:  DATA AA,87
08B7E:  DATA C8,87
....................  
.................... #list 
....................  
....................  
.................... //#byte TMR1H = 0xFCF // Le pongo nombre al registro alto de timer 1 
.................... //#byte TMR1L = 0xFCE // Le pongo nombre al registro bajo de timer 1 
....................  
.................... #fuses XT, MCLR, WDT1024 // Opciones de configuracin 
.................... //#fuses XT, NOIESO, NOFCMEN, NOPUT, NOPROTECT, NOPBADEN, NOLVP, NOBROWNOUT, MCLR, WDT1024, NOLPT1OSC // Opciones de configuracin 
.................... //#fuses XT, NOPROTECT, NOLVP, NOBROWNOUT, PLL1, CPUDIV1, NOMCLR, NOUSBDIV, NOVREGEN, WDT1024 // Opciones de configuracin 
....................  
.................... #use delay(clock=4000000)  // Reloj de 4MHz 
*
00D76:  MOVLW  01
00D78:  MOVWF  FEA
00D7A:  MOVLW  37
00D7C:  MOVWF  FE9
00D7E:  MOVF   FEF,W
00D80:  BZ    0D9E
00D82:  MOVLW  01
00D84:  MOVWF  01
00D86:  CLRF   00
00D88:  DECFSZ 00,F
00D8A:  BRA    0D88
00D8C:  DECFSZ 01,F
00D8E:  BRA    0D86
00D90:  MOVLW  4A
00D92:  MOVWF  00
00D94:  DECFSZ 00,F
00D96:  BRA    0D94
00D98:  BRA    0D9A
00D9A:  DECFSZ FEF,F
00D9C:  BRA    0D82
00D9E:  RETURN 0
.................... #use rs232(baud=9600, xmit=PIN_C6, rcv=PIN_C7, enable=PIN_D4) // Comunicacion serial 
*
023EA:  BCF    F95.4
023EC:  BSF    F8C.4
023EE:  BTFSS  F9E.4
023F0:  BRA    23EE
023F2:  BCF    F95.4
023F4:  BSF    F8C.4
023F6:  MOVLB  1
023F8:  MOVFF  11D,FAD
023FC:  NOP   
023FE:  BTFSS  FAC.1
02400:  BRA    23FE
02402:  BCF    F95.4
02404:  BCF    F8C.4
02406:  MOVLB  0
02408:  RETURN 0
....................  
.................... //#include "DHT11.h" 
.................... #include "FLEX_LCD_164.c" 
.................... // flex_lcd.c  
....................  
.................... // These pins are for the Microchip PicDem2-Plus board,  
.................... // which is what I used to test the driver.  Change these  
.................... // pins to fit your own board.  
....................  
.................... #define LCD_DB4   PIN_D0 
.................... #define LCD_DB5   PIN_C2 
.................... #define LCD_DB6   PIN_C1 
.................... #define LCD_DB7   PIN_C0 
....................  
.................... #define LCD_RS    PIN_D3   //PIN_C4 
.................... #define LCD_RW    PIN_D2 
.................... #define LCD_E     PIN_D1   //PIN_C6 
....................  
....................  
....................  
....................  
.................... /* 
.................... #define LCD_DB4   PIN_A5 
.................... #define LCD_DB5   PIN_C0 
.................... #define LCD_DB6   PIN_C1 
.................... #define LCD_DB7   PIN_C2 
....................  
.................... #define LCD_E     PIN_A4 
.................... #define LCD_RS    PIN_A2 
.................... #define LCD_RW    PIN_A3 
.................... */ 
.................... /* 
....................  
.................... #define LCD_DB4   PIN_G2 
.................... #define LCD_DB5   PIN_J0 
.................... #define LCD_DB6   PIN_G3 
.................... #define LCD_DB7   PIN_J1 
....................  
.................... #define LCD_E     PIN_C4 
.................... #define LCD_RS    PIN_C3 
.................... #define LCD_RW    PIN_C2 
....................  
.................... */ 
....................  
.................... // If you only want a 6-pin interface to your LCD, then  
.................... // connect the R/W pin on the LCD to ground, and comment  
.................... // out the following line.  
....................  
.................... #define USE_LCD_RW   1       
....................  
.................... //========================================  
....................  
.................... #define lcd_type 2        // 0=5x7, 1=5x10, 2=2 lines  
.................... #define lcd_line_one 0x00 // LCD RAM address for the 2nd line  
.................... #define lcd_line_two 0x40 // LCD RAM address for the 2nd line  
.................... #define lcd_line_three 0x14 // LCD RAM address for the 2nd line  
.................... #define lcd_line_four 0x54 // LCD RAM address for the 2nd line  
....................  
....................  
.................... int8 const LCD_INIT_STRING[4] =  
.................... {  
....................  0x20 | (lcd_type << 2), // Func set: 4-bit, 2 lines, 5x8 dots  
....................  0xc,                    // Display on  
....................  1,                      // Clear display  
....................  6                       // Increment cursor  
....................  };  
....................                                
....................  
.................... //-------------------------------------  
.................... void lcd_send_nibble(int8 nibble)  
.................... {  
.................... // Note:  !! converts an integer expression  
.................... // to a boolean (1 or 0).  
....................  output_bit(LCD_DB4, !!(nibble & 1));  
*
02274:  MOVLB  1
02276:  BTFSC  x32.0
02278:  BRA    227E
0227A:  BCF    F8C.0
0227C:  BRA    2280
0227E:  BSF    F8C.0
02280:  BCF    F95.0
....................  output_bit(LCD_DB5, !!(nibble & 2));   
02282:  BTFSC  x32.1
02284:  BRA    228A
02286:  BCF    F8B.2
02288:  BRA    228C
0228A:  BSF    F8B.2
0228C:  BCF    F94.2
....................  output_bit(LCD_DB6, !!(nibble & 4));     
0228E:  BTFSC  x32.2
02290:  BRA    2296
02292:  BCF    F8B.1
02294:  BRA    2298
02296:  BSF    F8B.1
02298:  BCF    F94.1
....................  output_bit(LCD_DB7, !!(nibble & 8));     
0229A:  BTFSC  x32.3
0229C:  BRA    22A2
0229E:  BCF    F8B.0
022A0:  BRA    22A4
022A2:  BSF    F8B.0
022A4:  BCF    F94.0
....................  
....................  delay_cycles(1);  
022A6:  NOP   
....................  output_high(LCD_E);  
022A8:  BCF    F95.1
022AA:  BSF    F8C.1
....................  delay_us(2);  
022AC:  BRA    22AE
....................  output_low(LCD_E);  
022AE:  BCF    F95.1
022B0:  BCF    F8C.1
022B2:  MOVLB  0
022B4:  RETURN 0
.................... }  
....................  
.................... //-----------------------------------  
.................... // This sub-routine is only called by lcd_read_byte().  
.................... // It's not a stand-alone routine.  For example, the  
.................... // R/W signal is set high by lcd_read_byte() before  
.................... // this routine is called.       
....................  
.................... #ifdef USE_LCD_RW  
.................... int8 lcd_read_nibble(void)  
.................... {  
.................... int8 retval;  
.................... // Create bit variables so that we can easily set  
.................... // individual bits in the retval variable.  
.................... #bit retval_0 = retval.0  
.................... #bit retval_1 = retval.1  
.................... #bit retval_2 = retval.2  
.................... #bit retval_3 = retval.3  
....................  
.................... retval = 0;  
022B6:  MOVLB  1
022B8:  CLRF   x33
....................      
.................... output_high(LCD_E);  
022BA:  BCF    F95.1
022BC:  BSF    F8C.1
.................... delay_cycles(1);  
022BE:  NOP   
....................  
.................... retval_0 = input(LCD_DB4);  
022C0:  BSF    F95.0
022C2:  BCF    x33.0
022C4:  BTFSC  F83.0
022C6:  BSF    x33.0
.................... retval_1 = input(LCD_DB5);  
022C8:  BSF    F94.2
022CA:  BCF    x33.1
022CC:  BTFSC  F82.2
022CE:  BSF    x33.1
.................... retval_2 = input(LCD_DB6);  
022D0:  BSF    F94.1
022D2:  BCF    x33.2
022D4:  BTFSC  F82.1
022D6:  BSF    x33.2
.................... retval_3 = input(LCD_DB7);  
022D8:  BSF    F94.0
022DA:  BCF    x33.3
022DC:  BTFSC  F82.0
022DE:  BSF    x33.3
....................    
.................... output_low(LCD_E);  
022E0:  BCF    F95.1
022E2:  BCF    F8C.1
....................      
.................... return(retval);     
022E4:  MOVFF  133,01
022E8:  MOVLB  0
022EA:  RETURN 0
.................... }     
.................... #endif  
....................  
.................... //---------------------------------------  
.................... // Read a byte from the LCD and return it.  
....................  
.................... #ifdef USE_LCD_RW  
.................... int8 lcd_read_byte(void)  
.................... {  
.................... int8 low;  
.................... int8 high;  
....................  
.................... output_high(LCD_RW);  
022EC:  BCF    F95.2
022EE:  BSF    F8C.2
.................... delay_cycles(1);  
022F0:  NOP   
....................  
.................... high = lcd_read_nibble();  
022F2:  RCALL  22B6
022F4:  MOVFF  01,132
....................  
.................... low = lcd_read_nibble();  
022F8:  RCALL  22B6
022FA:  MOVFF  01,131
....................  
.................... return( (high<<4) | low);  
022FE:  MOVLB  1
02300:  SWAPF  x32,W
02302:  MOVWF  00
02304:  MOVLW  F0
02306:  ANDWF  00,F
02308:  MOVF   00,W
0230A:  IORWF  x31,W
0230C:  MOVWF  01
0230E:  MOVLB  0
02310:  GOTO   231A (RETURN)
.................... }  
.................... #endif  
....................  
.................... //----------------------------------------  
.................... // Send a byte to the LCD.  
.................... void lcd_send_byte(int8 address, int8 n)  
.................... {  
.................... output_low(LCD_RS);  
02314:  BCF    F95.3
02316:  BCF    F8C.3
....................  
.................... #ifdef USE_LCD_RW  
.................... while(bit_test(lcd_read_byte(),7)) ;  
02318:  BRA    22EC
0231A:  MOVFF  01,131
0231E:  MOVLB  1
02320:  BTFSS  01.7
02322:  BRA    2328
02324:  MOVLB  0
02326:  BRA    2318
.................... #else  
.................... delay_us(60);   
.................... #endif  
....................  
.................... if(address)  
02328:  MOVF   x2F,F
0232A:  BZ    2332
....................    output_high(LCD_RS);  
0232C:  BCF    F95.3
0232E:  BSF    F8C.3
02330:  BRA    2336
.................... else  
....................    output_low(LCD_RS);  
02332:  BCF    F95.3
02334:  BCF    F8C.3
....................        
....................  delay_cycles(1);  
02336:  NOP   
....................  
.................... #ifdef USE_LCD_RW  
.................... output_low(LCD_RW);  
02338:  BCF    F95.2
0233A:  BCF    F8C.2
.................... delay_cycles(1);  
0233C:  NOP   
.................... #endif  
....................  
.................... output_low(LCD_E);  
0233E:  BCF    F95.1
02340:  BCF    F8C.1
....................  
.................... lcd_send_nibble(n >> 4);  
02342:  SWAPF  x30,W
02344:  MOVWF  x31
02346:  MOVLW  0F
02348:  ANDWF  x31,F
0234A:  MOVFF  131,132
0234E:  MOVLB  0
02350:  RCALL  2274
.................... lcd_send_nibble(n & 0xf);  
02352:  MOVLB  1
02354:  MOVF   x30,W
02356:  ANDLW  0F
02358:  MOVWF  x31
0235A:  MOVWF  x32
0235C:  MOVLB  0
0235E:  RCALL  2274
02360:  RETURN 0
.................... }  
....................  
.................... //----------------------------  
.................... void lcd_init(void)  
.................... {  
.................... int8 i;  
....................  
.................... output_low(LCD_RS);  
02362:  BCF    F95.3
02364:  BCF    F8C.3
....................  
.................... #ifdef USE_LCD_RW  
.................... output_low(LCD_RW);  
02366:  BCF    F95.2
02368:  BCF    F8C.2
.................... #endif  
....................  
.................... output_low(LCD_E);  
0236A:  BCF    F95.1
0236C:  BCF    F8C.1
0236E:  CLRF   19
02370:  BTFSC  FF2.7
02372:  BSF    19.7
02374:  BCF    FF2.7
....................  
.................... delay_ms(15);  
02376:  MOVLW  0F
02378:  MOVLB  1
0237A:  MOVWF  x37
0237C:  MOVLB  0
0237E:  CALL   0D76
02382:  BTFSC  19.7
02384:  BSF    FF2.7
....................  
.................... for(i=0 ;i < 3; i++)  
02386:  MOVLB  1
02388:  CLRF   x12
0238A:  MOVF   x12,W
0238C:  SUBLW  02
0238E:  BNC   23B6
....................    {  
....................     lcd_send_nibble(0x03);  
02390:  MOVLW  03
02392:  MOVWF  x32
02394:  MOVLB  0
02396:  RCALL  2274
02398:  CLRF   19
0239A:  BTFSC  FF2.7
0239C:  BSF    19.7
0239E:  BCF    FF2.7
....................     delay_ms(5);  
023A0:  MOVLW  05
023A2:  MOVLB  1
023A4:  MOVWF  x37
023A6:  MOVLB  0
023A8:  CALL   0D76
023AC:  BTFSC  19.7
023AE:  BSF    FF2.7
023B0:  MOVLB  1
023B2:  INCF   x12,F
023B4:  BRA    238A
....................    }  
....................  
.................... lcd_send_nibble(0x02);  
023B6:  MOVLW  02
023B8:  MOVWF  x32
023BA:  MOVLB  0
023BC:  RCALL  2274
....................  
.................... for(i=0; i < sizeof(LCD_INIT_STRING); i++)  
023BE:  MOVLB  1
023C0:  CLRF   x12
023C2:  MOVF   x12,W
023C4:  SUBLW  03
023C6:  BNC   23E4
....................    {  
....................     lcd_send_byte(0, LCD_INIT_STRING[i]);  
023C8:  CLRF   03
023CA:  MOVF   x12,W
023CC:  MOVLB  0
023CE:  CALL   00BA
023D2:  MOVLB  1
023D4:  MOVWF  x13
023D6:  CLRF   x2F
023D8:  MOVWF  x30
023DA:  MOVLB  0
023DC:  RCALL  2314
....................      
....................     // If the R/W signal is not used, then  
....................     // the busy bit can't be polled.  One of  
....................     // the init commands takes longer than  
....................     // the hard-coded delay of 60 us, so in  
....................     // that case, lets just do a 5 ms delay  
....................     // after all four of them.  
....................     #ifndef USE_LCD_RW  
023DE:  MOVLB  1
023E0:  INCF   x12,F
023E2:  BRA    23C2
....................     delay_ms(5);  
....................     #endif  
....................    }  
023E4:  MOVLB  0
023E6:  GOTO   250E (RETURN)
....................  
.................... }  
....................  
.................... //----------------------------  
....................  
.................... void lcd_gotoxy(int8 x, int8 y)  
.................... {  
.................... int8 address;  
....................  
.................... switch(y){ 
*
0240A:  MOVLW  01
0240C:  MOVLB  1
0240E:  SUBWF  x2C,W
02410:  ADDLW  FC
02412:  BC    243C
02414:  ADDLW  04
02416:  MOVLB  0
02418:  GOTO   2452
....................    case 1: 
....................       address = lcd_line_one;  
0241C:  MOVLB  1
0241E:  CLRF   x2D
....................    break; 
02420:  BRA    243C
....................        
....................    case 2: 
....................       address = lcd_line_two;  
02422:  MOVLW  40
02424:  MOVLB  1
02426:  MOVWF  x2D
....................    break; 
02428:  BRA    243C
....................  
....................    case 3: 
....................       address = lcd_line_three;  
0242A:  MOVLW  14
0242C:  MOVLB  1
0242E:  MOVWF  x2D
....................    break; 
02430:  BRA    243C
....................  
....................    case 4: 
....................       address = lcd_line_four;  
02432:  MOVLW  54
02434:  MOVLB  1
02436:  MOVWF  x2D
....................    break; 
02438:  BRA    243C
0243A:  MOVLB  1
....................  
....................  
.................... } 
....................  
.................... address += x-1;  
0243C:  MOVLW  01
0243E:  SUBWF  x2B,W
02440:  ADDWF  x2D,F
.................... lcd_send_byte(0, 0x80 | address);  
02442:  MOVF   x2D,W
02444:  IORLW  80
02446:  MOVWF  x2E
02448:  CLRF   x2F
0244A:  MOVWF  x30
0244C:  MOVLB  0
0244E:  RCALL  2314
02450:  RETURN 0
.................... }  
....................  
.................... //-----------------------------  
.................... void lcd_putc(char c)  
.................... {  
....................  switch(c)  
*
02474:  MOVLB  1
02476:  MOVF   x2A,W
02478:  XORLW  0C
0247A:  MOVLB  0
0247C:  BZ    2488
0247E:  XORLW  06
02480:  BZ    24AE
02482:  XORLW  02
02484:  BZ    24BE
02486:  BRA    24CC
....................    {  
....................     case '\f':  
....................       lcd_send_byte(0,1);  
02488:  MOVLB  1
0248A:  CLRF   x2F
0248C:  MOVLW  01
0248E:  MOVWF  x30
02490:  MOVLB  0
02492:  RCALL  2314
02494:  CLRF   19
02496:  BTFSC  FF2.7
02498:  BSF    19.7
0249A:  BCF    FF2.7
....................       delay_ms(2);  
0249C:  MOVLW  02
0249E:  MOVLB  1
024A0:  MOVWF  x37
024A2:  MOVLB  0
024A4:  CALL   0D76
024A8:  BTFSC  19.7
024AA:  BSF    FF2.7
....................       break;  
024AC:  BRA    24DA
....................      
....................     case '\n':  
....................        lcd_gotoxy(1,2);  
024AE:  MOVLW  01
024B0:  MOVLB  1
024B2:  MOVWF  x2B
024B4:  MOVLW  02
024B6:  MOVWF  x2C
024B8:  MOVLB  0
024BA:  RCALL  240A
....................        break;  
024BC:  BRA    24DA
....................      
....................     case '\b':  
....................        lcd_send_byte(0,0x10);  
024BE:  MOVLB  1
024C0:  CLRF   x2F
024C2:  MOVLW  10
024C4:  MOVWF  x30
024C6:  MOVLB  0
024C8:  RCALL  2314
....................        break;  
024CA:  BRA    24DA
....................      
....................     default:  
....................        lcd_send_byte(1,c);  
024CC:  MOVLW  01
024CE:  MOVLB  1
024D0:  MOVWF  x2F
024D2:  MOVFF  12A,130
024D6:  MOVLB  0
024D8:  RCALL  2314
....................        break;  
....................    }  
024DA:  RETURN 0
.................... }  
....................  
.................... //------------------------------  
.................... #ifdef USE_LCD_RW  
.................... char lcd_getc(int8 x, int8 y)  
.................... {  
.................... char value;  
....................  
.................... lcd_gotoxy(x,y);  
....................  
.................... // Wait until busy flag is low.  
.................... while(bit_test(lcd_read_byte(),7));   
....................  
.................... output_high(LCD_RS);  
.................... value = lcd_read_byte();  
.................... output_low(lcd_RS);  
....................  
.................... return(value);  
.................... }  
.................... #endif 
....................  
.................... #include "DS1307.c" 
....................  
.................... #define RTC_SDA  PIN_C4 
.................... #define RTC_SCL  PIN_C3 
....................  
.................... #use i2c(master, fast, sda=RTC_SDA, scl=RTC_SCL) 
*
00CAE:  MOVLW  08
00CB0:  MOVWF  01
00CB2:  NOP   
00CB4:  BCF    F8B.3
00CB6:  BCF    F94.3
00CB8:  NOP   
00CBA:  MOVLB  1
00CBC:  RLCF   x38,F
00CBE:  BCF    F8B.4
00CC0:  BTFSC  FD8.0
00CC2:  BSF    F94.4
00CC4:  BTFSS  FD8.0
00CC6:  BCF    F94.4
00CC8:  BSF    F94.3
00CCA:  BTFSS  F82.3
00CCC:  BRA    0CCA
00CCE:  DECFSZ 01,F
00CD0:  BRA    0CD4
00CD2:  BRA    0CD8
00CD4:  MOVLB  0
00CD6:  BRA    0CB2
00CD8:  NOP   
00CDA:  BCF    F8B.3
00CDC:  BCF    F94.3
00CDE:  NOP   
00CE0:  BSF    F94.4
00CE2:  NOP   
00CE4:  NOP   
00CE6:  BSF    F94.3
00CE8:  BTFSS  F82.3
00CEA:  BRA    0CE8
00CEC:  CLRF   01
00CEE:  NOP   
00CF0:  BTFSC  F82.4
00CF2:  BSF    01.0
00CF4:  BCF    F8B.3
00CF6:  BCF    F94.3
00CF8:  BCF    F8B.4
00CFA:  BCF    F94.4
00CFC:  MOVLB  0
00CFE:  RETURN 0
00D00:  MOVLW  08
00D02:  MOVLB  1
00D04:  MOVWF  x39
00D06:  MOVFF  00,13A
00D0A:  BSF    F94.4
00D0C:  NOP   
00D0E:  BSF    F94.3
00D10:  BTFSS  F82.3
00D12:  BRA    0D10
00D14:  BTFSC  F82.4
00D16:  BSF    FD8.0
00D18:  BTFSS  F82.4
00D1A:  BCF    FD8.0
00D1C:  RLCF   01,F
00D1E:  NOP   
00D20:  BCF    F94.3
00D22:  BCF    F8B.3
00D24:  DECFSZ x39,F
00D26:  BRA    0D0A
00D28:  BSF    F94.4
00D2A:  NOP   
00D2C:  BCF    F8B.4
00D2E:  MOVF   x3A,W
00D30:  BTFSS  FD8.2
00D32:  BCF    F94.4
00D34:  NOP   
00D36:  BSF    F94.3
00D38:  BTFSS  F82.3
00D3A:  BRA    0D38
00D3C:  NOP   
00D3E:  BCF    F8B.3
00D40:  BCF    F94.3
00D42:  NOP   
00D44:  BCF    F8B.4
00D46:  BCF    F94.4
00D48:  MOVLB  0
00D4A:  RETURN 0
....................  
.................... //BYTE bin2bcd(BYTE binary_value); 
.................... //BYTE bcd2bin(BYTE bcd_value); 
....................  
.................... int8 bin2bcd(int8 binary_value) 
.................... { 
....................   int8 temp; 
....................   char retval; 
....................  
....................   temp = binary_value; 
*
020C0:  MOVFF  12E,12F
....................   retval = 0; 
020C4:  MOVLB  1
020C6:  CLRF   x30
....................  
....................   while(1) 
....................   { 
....................     // Get the tens digit by doing multiple subtraction 
....................     // of 10 from the binary value. 
....................     if(temp >= 10) 
020C8:  MOVF   x2F,W
020CA:  SUBLW  09
020CC:  BC    20D8
....................     { 
....................       temp -= 10; 
020CE:  MOVLW  0A
020D0:  SUBWF  x2F,F
....................       retval += 0x10; 
020D2:  MOVLW  10
020D4:  ADDWF  x30,F
....................     } 
020D6:  BRA    20DE
....................     else // Get the ones digit by adding the remainder. 
....................     { 
....................       retval += temp; 
020D8:  MOVF   x2F,W
020DA:  ADDWF  x30,F
....................       break; 
020DC:  BRA    20E0
....................     } 
020DE:  BRA    20C8
....................   } 
....................  
....................   return(retval); 
020E0:  MOVFF  130,01
020E4:  MOVLB  0
020E6:  RETURN 0
.................... } 
....................  
.................... // Input range - 00 to 99. 
.................... char bcd2bin(char bcd_value) 
.................... { 
....................   char temp; 
....................  
....................   temp = bcd_value; 
*
00D4C:  MOVFF  139,13A
....................   // Shifting upper digit right by 1 is same as multiplying by 8. 
....................   temp >>= 1; 
00D50:  BCF    FD8.0
00D52:  MOVLB  1
00D54:  RRCF   x3A,F
....................   // Isolate the bits for the upper digit. 
....................   temp &= 0x78; 
00D56:  MOVLW  78
00D58:  ANDWF  x3A,F
....................  
....................   // Now return: (Tens * 8) + (Tens * 2) + Ones 
....................  
....................   return(temp + (temp >> 2) + (bcd_value & 0x0f)); 
00D5A:  RRCF   x3A,W
00D5C:  MOVWF  00
00D5E:  RRCF   00,F
00D60:  MOVLW  3F
00D62:  ANDWF  00,F
00D64:  MOVF   00,W
00D66:  ADDWF  x3A,W
00D68:  MOVWF  x3B
00D6A:  MOVF   x39,W
00D6C:  ANDLW  0F
00D6E:  ADDWF  x3B,W
00D70:  MOVWF  01
00D72:  MOVLB  0
00D74:  RETURN 0
.................... } 
....................  
.................... void ds1307_init(void) 
*
020E8:  MOVLB  1
020EA:  CLRF   x12
.................... { 
....................    BYTE seconds = 0; 
....................  
....................    i2c_start(); 
020EC:  BSF    F94.4
020EE:  NOP   
020F0:  BSF    F94.3
020F2:  NOP   
020F4:  BCF    F8B.4
020F6:  BCF    F94.4
020F8:  NOP   
020FA:  BCF    F8B.3
020FC:  BCF    F94.3
020FE:  CLRF   19
02100:  BTFSC  FF2.7
02102:  BSF    19.7
02104:  BCF    FF2.7
....................    i2c_write(0xD0);      // WR to RTC 
02106:  MOVLW  D0
02108:  MOVWF  x38
0210A:  MOVLB  0
0210C:  CALL   0CAE
02110:  BTFSC  19.7
02112:  BSF    FF2.7
02114:  CLRF   19
02116:  BTFSC  FF2.7
02118:  BSF    19.7
0211A:  BCF    FF2.7
....................    i2c_write(0x00);      // REG 0 
0211C:  MOVLB  1
0211E:  CLRF   x38
02120:  MOVLB  0
02122:  CALL   0CAE
02126:  BTFSC  19.7
02128:  BSF    FF2.7
....................    i2c_start(); 
0212A:  BSF    F94.4
0212C:  NOP   
0212E:  BSF    F94.3
02130:  NOP   
02132:  BTFSS  F82.3
02134:  BRA    2132
02136:  BCF    F8B.4
02138:  BCF    F94.4
0213A:  NOP   
0213C:  BCF    F8B.3
0213E:  BCF    F94.3
02140:  CLRF   19
02142:  BTFSC  FF2.7
02144:  BSF    19.7
02146:  BCF    FF2.7
....................    i2c_write(0xD1);      // RD from RTC 
02148:  MOVLW  D1
0214A:  MOVLB  1
0214C:  MOVWF  x38
0214E:  MOVLB  0
02150:  CALL   0CAE
02154:  BTFSC  19.7
02156:  BSF    FF2.7
....................    seconds = bcd2bin(i2c_read(0)); // Read current "seconds" in DS1307 
02158:  CLRF   00
0215A:  CLRF   19
0215C:  BTFSC  FF2.7
0215E:  BSF    19.7
02160:  BCF    FF2.7
02162:  CALL   0D00
02166:  BTFSC  19.7
02168:  BSF    FF2.7
0216A:  MOVFF  01,113
0216E:  CLRF   19
02170:  BTFSC  FF2.7
02172:  BSF    19.7
02174:  BCF    FF2.7
02176:  MOVFF  01,139
0217A:  CALL   0D4C
0217E:  BTFSC  19.7
02180:  BSF    FF2.7
02182:  MOVFF  01,112
....................    i2c_stop(); 
02186:  BCF    F94.4
02188:  NOP   
0218A:  BSF    F94.3
0218C:  BTFSS  F82.3
0218E:  BRA    218C
02190:  NOP   
02192:  BRA    2194
02194:  NOP   
02196:  BSF    F94.4
02198:  NOP   
....................    seconds &= 0x7F; 
0219A:  MOVLB  1
0219C:  BCF    x12.7
....................  
....................    delay_us(3); 
0219E:  BRA    21A0
021A0:  NOP   
....................  
....................    i2c_start(); 
021A2:  BSF    F94.4
021A4:  NOP   
021A6:  BSF    F94.3
021A8:  NOP   
021AA:  BCF    F8B.4
021AC:  BCF    F94.4
021AE:  NOP   
021B0:  BCF    F8B.3
021B2:  BCF    F94.3
021B4:  CLRF   19
021B6:  BTFSC  FF2.7
021B8:  BSF    19.7
021BA:  BCF    FF2.7
....................    i2c_write(0xD0);      // WR to RTC 
021BC:  MOVLW  D0
021BE:  MOVWF  x38
021C0:  MOVLB  0
021C2:  CALL   0CAE
021C6:  BTFSC  19.7
021C8:  BSF    FF2.7
021CA:  CLRF   19
021CC:  BTFSC  FF2.7
021CE:  BSF    19.7
021D0:  BCF    FF2.7
....................    i2c_write(0x00);      // REG 0 
021D2:  MOVLB  1
021D4:  CLRF   x38
021D6:  MOVLB  0
021D8:  CALL   0CAE
021DC:  BTFSC  19.7
021DE:  BSF    FF2.7
....................    i2c_write(bin2bcd(seconds));     // Start oscillator with current "seconds value 
021E0:  MOVFF  112,12E
021E4:  RCALL  20C0
021E6:  MOVFF  01,113
021EA:  CLRF   19
021EC:  BTFSC  FF2.7
021EE:  BSF    19.7
021F0:  BCF    FF2.7
021F2:  MOVFF  01,138
021F6:  CALL   0CAE
021FA:  BTFSC  19.7
021FC:  BSF    FF2.7
....................    i2c_start(); 
021FE:  BSF    F94.4
02200:  NOP   
02202:  BSF    F94.3
02204:  NOP   
02206:  BTFSS  F82.3
02208:  BRA    2206
0220A:  BCF    F8B.4
0220C:  BCF    F94.4
0220E:  NOP   
02210:  BCF    F8B.3
02212:  BCF    F94.3
02214:  CLRF   19
02216:  BTFSC  FF2.7
02218:  BSF    19.7
0221A:  BCF    FF2.7
....................    i2c_write(0xD0);      // WR to RTC 
0221C:  MOVLW  D0
0221E:  MOVLB  1
02220:  MOVWF  x38
02222:  MOVLB  0
02224:  CALL   0CAE
02228:  BTFSC  19.7
0222A:  BSF    FF2.7
0222C:  CLRF   19
0222E:  BTFSC  FF2.7
02230:  BSF    19.7
02232:  BCF    FF2.7
....................    i2c_write(0x07);      // Control Register 
02234:  MOVLW  07
02236:  MOVLB  1
02238:  MOVWF  x38
0223A:  MOVLB  0
0223C:  CALL   0CAE
02240:  BTFSC  19.7
02242:  BSF    FF2.7
02244:  CLRF   19
02246:  BTFSC  FF2.7
02248:  BSF    19.7
0224A:  BCF    FF2.7
....................    i2c_write(0x80);     // Disable squarewave output pin 
0224C:  MOVLW  80
0224E:  MOVLB  1
02250:  MOVWF  x38
02252:  MOVLB  0
02254:  CALL   0CAE
02258:  BTFSC  19.7
0225A:  BSF    FF2.7
....................    i2c_stop(); 
0225C:  BCF    F94.4
0225E:  NOP   
02260:  BSF    F94.3
02262:  BTFSS  F82.3
02264:  BRA    2262
02266:  NOP   
02268:  BRA    226A
0226A:  NOP   
0226C:  BSF    F94.4
0226E:  NOP   
02270:  GOTO   250C (RETURN)
....................  
.................... } 
....................  
.................... void ds1307_set_date_time(BYTE day, int8 mth, BYTE year, BYTE dow, BYTE hr, BYTE min, BYTE sec) 
.................... { 
....................   sec &= 0x7F; 
*
0824C:  MOVLB  1
0824E:  BCF    x2D.7
....................   hr &= 0x3F; 
08250:  MOVLW  3F
08252:  ANDWF  x2B,F
....................  
....................   i2c_start(); 
08254:  BSF    F94.4
08256:  NOP   
08258:  BSF    F94.3
0825A:  NOP   
0825C:  BCF    F8B.4
0825E:  BCF    F94.4
08260:  NOP   
08262:  BCF    F8B.3
08264:  BCF    F94.3
08266:  CLRF   19
08268:  BTFSC  FF2.7
0826A:  BSF    19.7
0826C:  BCF    FF2.7
....................   i2c_write(0xD0);            // I2C write address 
0826E:  MOVLW  D0
08270:  MOVWF  x38
08272:  MOVLB  0
08274:  CALL   0CAE
08278:  BTFSC  19.7
0827A:  BSF    FF2.7
0827C:  CLRF   19
0827E:  BTFSC  FF2.7
08280:  BSF    19.7
08282:  BCF    FF2.7
....................   i2c_write(0x00);            // Start at REG 0 - Seconds 
08284:  MOVLB  1
08286:  CLRF   x38
08288:  MOVLB  0
0828A:  CALL   0CAE
0828E:  BTFSC  19.7
08290:  BSF    FF2.7
....................   i2c_write(bin2bcd(sec));      // REG 0 
08292:  MOVFF  12D,12E
08296:  CALL   20C0
0829A:  MOVFF  01,12E
0829E:  CLRF   19
082A0:  BTFSC  FF2.7
082A2:  BSF    19.7
082A4:  BCF    FF2.7
082A6:  MOVFF  01,138
082AA:  CALL   0CAE
082AE:  BTFSC  19.7
082B0:  BSF    FF2.7
....................   i2c_write(bin2bcd(min));      // REG 1 
082B2:  MOVFF  12C,12E
082B6:  CALL   20C0
082BA:  MOVFF  01,12E
082BE:  CLRF   19
082C0:  BTFSC  FF2.7
082C2:  BSF    19.7
082C4:  BCF    FF2.7
082C6:  MOVFF  01,138
082CA:  CALL   0CAE
082CE:  BTFSC  19.7
082D0:  BSF    FF2.7
....................   i2c_write(bin2bcd(hr));      // REG 2 
082D2:  MOVFF  12B,12E
082D6:  CALL   20C0
082DA:  MOVFF  01,12E
082DE:  CLRF   19
082E0:  BTFSC  FF2.7
082E2:  BSF    19.7
082E4:  BCF    FF2.7
082E6:  MOVFF  01,138
082EA:  CALL   0CAE
082EE:  BTFSC  19.7
082F0:  BSF    FF2.7
....................   i2c_write(bin2bcd(dow));      // REG 3 
082F2:  MOVFF  12A,12E
082F6:  CALL   20C0
082FA:  MOVFF  01,12E
082FE:  CLRF   19
08300:  BTFSC  FF2.7
08302:  BSF    19.7
08304:  BCF    FF2.7
08306:  MOVFF  01,138
0830A:  CALL   0CAE
0830E:  BTFSC  19.7
08310:  BSF    FF2.7
....................   i2c_write(bin2bcd(day));      // REG 4 
08312:  MOVFF  127,12E
08316:  CALL   20C0
0831A:  MOVFF  01,12E
0831E:  CLRF   19
08320:  BTFSC  FF2.7
08322:  BSF    19.7
08324:  BCF    FF2.7
08326:  MOVFF  01,138
0832A:  CALL   0CAE
0832E:  BTFSC  19.7
08330:  BSF    FF2.7
....................   i2c_write(bin2bcd(mth));      // REG 5 
08332:  MOVFF  128,12E
08336:  CALL   20C0
0833A:  MOVFF  01,12E
0833E:  CLRF   19
08340:  BTFSC  FF2.7
08342:  BSF    19.7
08344:  BCF    FF2.7
08346:  MOVFF  01,138
0834A:  CALL   0CAE
0834E:  BTFSC  19.7
08350:  BSF    FF2.7
....................   i2c_write(bin2bcd(year));      // REG 6 
08352:  MOVFF  129,12E
08356:  CALL   20C0
0835A:  MOVFF  01,12E
0835E:  CLRF   19
08360:  BTFSC  FF2.7
08362:  BSF    19.7
08364:  BCF    FF2.7
08366:  MOVFF  01,138
0836A:  CALL   0CAE
0836E:  BTFSC  19.7
08370:  BSF    FF2.7
08372:  CLRF   19
08374:  BTFSC  FF2.7
08376:  BSF    19.7
08378:  BCF    FF2.7
....................   i2c_write(0x80);            // REG 7 - Disable squarewave output pin 
0837A:  MOVLW  80
0837C:  MOVLB  1
0837E:  MOVWF  x38
08380:  MOVLB  0
08382:  CALL   0CAE
08386:  BTFSC  19.7
08388:  BSF    FF2.7
....................   i2c_stop(); 
0838A:  BCF    F94.4
0838C:  NOP   
0838E:  BSF    F94.3
08390:  BTFSS  F82.3
08392:  BRA    8390
08394:  NOP   
08396:  BRA    8398
08398:  NOP   
0839A:  BSF    F94.4
0839C:  NOP   
0839E:  RETURN 0
.................... } 
....................  
.................... void ds1307_set_time(byte hr, byte min, byte sec) 
.................... { 
....................   sec &= 0x7F; 
....................   hr &= 0x3F; 
....................   i2c_start(); 
....................   i2c_write(0xD0);            // I2C write address 
....................   i2c_write(0x00);            // Start at REG 0 - Seconds 
....................   i2c_write(bin2bcd(sec));      // REG 0 
....................   i2c_write(bin2bcd(min));      // REG 1 
....................   i2c_write(bin2bcd(hr));      // REG 2 
....................   //i2c_write(0x80);            // REG 7 - Disable squarewave output pin 
....................   i2c_stop(); 
.................... } 
....................  
.................... void ds1307_set_date(byte day, byte mth, byte year, byte dow) 
.................... { 
....................   
....................   i2c_start(); 
....................   i2c_write(0xD0);            // I2C write address 
....................   i2c_write(0x03);            // Start at REG 0 - Seconds 
....................   i2c_write(bin2bcd(dow)); 
....................   i2c_write(bin2bcd(day)); 
....................   i2c_write(bin2bcd(mth)); 
....................   i2c_write(bin2bcd(year)); 
....................   i2c_write(0x80);            // REG 7 - Disable squarewave output pin 
....................   i2c_stop(); 
.................... } 
....................  
.................... void ds1307_get_date(BYTE &day, BYTE &mth, BYTE &year, BYTE &dow) 
.................... { 
....................   i2c_start(); 
*
00DA0:  BSF    F94.4
00DA2:  NOP   
00DA4:  BSF    F94.3
00DA6:  NOP   
00DA8:  BCF    F8B.4
00DAA:  BCF    F94.4
00DAC:  NOP   
00DAE:  BCF    F8B.3
00DB0:  BCF    F94.3
....................   i2c_write(0xD0); 
00DB2:  MOVLW  D0
00DB4:  MOVLB  1
00DB6:  MOVWF  x38
00DB8:  MOVLB  0
00DBA:  RCALL  0CAE
....................   i2c_write(0x03);            // Start at REG 3 - Day of week 
00DBC:  MOVLW  03
00DBE:  MOVLB  1
00DC0:  MOVWF  x38
00DC2:  MOVLB  0
00DC4:  RCALL  0CAE
....................   i2c_start(); 
00DC6:  BSF    F94.4
00DC8:  NOP   
00DCA:  BSF    F94.3
00DCC:  NOP   
00DCE:  BTFSS  F82.3
00DD0:  BRA    0DCE
00DD2:  BCF    F8B.4
00DD4:  BCF    F94.4
00DD6:  NOP   
00DD8:  BCF    F8B.3
00DDA:  BCF    F94.3
....................   i2c_write(0xD1); 
00DDC:  MOVLW  D1
00DDE:  MOVLB  1
00DE0:  MOVWF  x38
00DE2:  MOVLB  0
00DE4:  RCALL  0CAE
....................   dow  = bcd2bin(i2c_read() & 0x7f);   // REG 3 
00DE6:  MOVLW  01
00DE8:  MOVWF  00
00DEA:  RCALL  0D00
00DEC:  MOVF   01,W
00DEE:  ANDLW  7F
00DF0:  MOVLB  1
00DF2:  MOVWF  x34
00DF4:  MOVWF  x39
00DF6:  MOVLB  0
00DF8:  RCALL  0D4C
00DFA:  MOVFF  01,26
....................   day  = bcd2bin(i2c_read() & 0x3f);   // REG 4 
00DFE:  MOVLW  01
00E00:  MOVWF  00
00E02:  RCALL  0D00
00E04:  MOVF   01,W
00E06:  ANDLW  3F
00E08:  MOVLB  1
00E0A:  MOVWF  x34
00E0C:  MOVWF  x39
00E0E:  MOVLB  0
00E10:  RCALL  0D4C
00E12:  MOVFF  01,23
....................   mth  = bcd2bin(i2c_read() & 0x1f);   // REG 5 
00E16:  MOVLW  01
00E18:  MOVWF  00
00E1A:  RCALL  0D00
00E1C:  MOVF   01,W
00E1E:  ANDLW  1F
00E20:  MOVLB  1
00E22:  MOVWF  x34
00E24:  MOVWF  x39
00E26:  MOVLB  0
00E28:  RCALL  0D4C
00E2A:  MOVFF  01,24
....................   year = bcd2bin(i2c_read(0));            // REG 6 
00E2E:  CLRF   00
00E30:  RCALL  0D00
00E32:  MOVFF  01,134
00E36:  MOVFF  01,139
00E3A:  RCALL  0D4C
00E3C:  MOVFF  01,25
....................   i2c_stop(); 
00E40:  BCF    F94.4
00E42:  NOP   
00E44:  BSF    F94.3
00E46:  BTFSS  F82.3
00E48:  BRA    0E46
00E4A:  NOP   
00E4C:  BRA    0E4E
00E4E:  NOP   
00E50:  BSF    F94.4
00E52:  NOP   
.................... } 
....................  
.................... void ds1307_get_time(BYTE &hr, BYTE &min, BYTE &sec) 
.................... { 
....................   i2c_start(); 
*
00E5E:  BSF    F94.4
00E60:  NOP   
00E62:  BSF    F94.3
00E64:  NOP   
00E66:  BCF    F8B.4
00E68:  BCF    F94.4
00E6A:  NOP   
00E6C:  BCF    F8B.3
00E6E:  BCF    F94.3
....................   i2c_write(0xD0); 
00E70:  MOVLW  D0
00E72:  MOVLB  1
00E74:  MOVWF  x38
00E76:  MOVLB  0
00E78:  RCALL  0CAE
....................   i2c_write(0x00);            // Start at REG 0 - Seconds 
00E7A:  MOVLB  1
00E7C:  CLRF   x38
00E7E:  MOVLB  0
00E80:  RCALL  0CAE
....................   i2c_start(); 
00E82:  BSF    F94.4
00E84:  NOP   
00E86:  BSF    F94.3
00E88:  NOP   
00E8A:  BTFSS  F82.3
00E8C:  BRA    0E8A
00E8E:  BCF    F8B.4
00E90:  BCF    F94.4
00E92:  NOP   
00E94:  BCF    F8B.3
00E96:  BCF    F94.3
....................   i2c_write(0xD1); 
00E98:  MOVLW  D1
00E9A:  MOVLB  1
00E9C:  MOVWF  x38
00E9E:  MOVLB  0
00EA0:  RCALL  0CAE
....................   sec = bcd2bin(i2c_read() & 0x7f); 
00EA2:  MOVLW  01
00EA4:  MOVWF  00
00EA6:  RCALL  0D00
00EA8:  MOVF   01,W
00EAA:  ANDLW  7F
00EAC:  MOVLB  1
00EAE:  MOVWF  x34
00EB0:  MOVWF  x39
00EB2:  MOVLB  0
00EB4:  RCALL  0D4C
00EB6:  MOVFF  01,20
....................   min = bcd2bin(i2c_read() & 0x7f); 
00EBA:  MOVLW  01
00EBC:  MOVWF  00
00EBE:  RCALL  0D00
00EC0:  MOVF   01,W
00EC2:  ANDLW  7F
00EC4:  MOVLB  1
00EC6:  MOVWF  x34
00EC8:  MOVWF  x39
00ECA:  MOVLB  0
00ECC:  RCALL  0D4C
00ECE:  MOVFF  01,21
....................   hr  = bcd2bin(i2c_read(0) & 0x3f); 
00ED2:  CLRF   00
00ED4:  RCALL  0D00
00ED6:  MOVF   01,W
00ED8:  ANDLW  3F
00EDA:  MOVLB  1
00EDC:  MOVWF  x34
00EDE:  MOVWF  x39
00EE0:  MOVLB  0
00EE2:  RCALL  0D4C
00EE4:  MOVFF  01,22
....................   i2c_stop(); 
00EE8:  BCF    F94.4
00EEA:  NOP   
00EEC:  BSF    F94.3
00EEE:  BTFSS  F82.3
00EF0:  BRA    0EEE
00EF2:  NOP   
00EF4:  BRA    0EF6
00EF6:  NOP   
00EF8:  BSF    F94.4
00EFA:  NOP   
....................  
.................... }  
....................  
.................... //#include <string.h> 
.................... //#include <internal_eeprom.c>  
....................  
....................  
.................... ///////////////////// Variables y Funciones para DHT11  //////////////////////////////// 
.................... unsigned char values[5];   // Arreglo de valores (Solo nos sirve 0-temp- y 2-humedad-) 
.................... void DHT11_init();         // iniciador estabilizador 
.................... unsigned char get_byte();  // Funcion que arma cada byte 
.................... unsigned char get_data();  // Funcion que asigna los valores a los diferentes bytes 
.................... unsigned char state = 0;   // Estado del sensor 
.................... //////////////////////////////////////////////////////////////////////////////////////// 
....................  
....................  
.................... ////// Variables del DS1307 ///// 
.................... byte sec; 
.................... byte min; 
.................... byte hrs; 
.................... byte day; 
.................... byte month; 
.................... byte year; 
.................... byte dow; 
.................... ///////////////////////////////// 
....................  
....................  
.................... ///////////////// Definiciones de Pines ///////////////////// 
.................... #define DHT11_pin PIN_B5     // Sensor DHT11 
.................... #define LCDLED PIN_D6        // Luz de pantalla led 
.................... #define ARRIBA PIN_B0        // Teclado arriba 
.................... #define ABAJO  PIN_B1        // Teclado abajo 
.................... #define OOKK   PIN_B2        // Teclado ok 
.................... #define CANCEL PIN_B3        // Teclado cancelar 
.................... #define TempIn values[2]     // Temperatura 
.................... #define Hum values[0]        // Humedad 
.................... #define OFFLCDLED output_low(PIN_D6) 
.................... #define ONLCDLED  output_high(PIN_D6) 
.................... #define LIMPIARLCD lcd_putc("\f") 
....................  
.................... //////////////// Definicion de los sensores y Luces protagonistas ///////////////////////////// 
.................... #define SensPasilloCua   44 // Ultimo de modulo 1 (cuartos) 
.................... #define SensEstar        56 // Ultimo de modulo 2 (cuartos) 
.................... #define SensHall         66 // Antepenultimo de modulo 3 (cocina) 
.................... #define SensCocina       67 // Penultimo de modulo 3 (cocina) 
.................... #define SensLiving       68 // Ultimo de modulo 3 (cocina) 
.................... #define SensPasilloLav   79 // Penultimo de modulo 4 (cocina) 
.................... #define SensGarage       80 // Ultimo de modulo 4 (cocina) 
.................... #define SensGaleria1     91 // Penultimo de modulo 5 (galeria) 
.................... #define SensGaleria2     92 // Ultimo de modulo 5 (galeria) 
....................  
.................... #define LHall       57 // Luz del hall 
.................... #define LCocina     58 // Luz de la cocina 
....................  
....................  
.................... ///////////////// Definiciones de posiciones de memoria eeprom ///////////////// 
.................... #define EstAlarma 2          // Estado de la alarma 
.................... #define EstCasandra 3        // Estado de casandra 
.................... #define TpoSil 4             // Tiempo de Alarma Silenciosa (en segundos de 1 a 180) 
.................... #define TpoSal 5             // Tiempo para salir (en segundos de 1 a 180) 
.................... #define Password 6 // y 7    // Puntero de password (OJO!!! es solo el puntero, ocupa 2 bytes de memoria, 6 y 7) 
....................  
.................... #define Luz1 33   // Posiciones de memoria para la intensidad de cada luz 
.................... #define Luz2 34 
.................... #define Luz3 35 
.................... #define Luz4 36 
.................... #define Luz5 37 
.................... #define Luz6 38 
.................... #define Luz7 39 
.................... #define Luz8 40 
.................... #define Luz9 41 
.................... #define Luz10 42 
.................... #define Luz11 43 
.................... #define Luz12 44 
.................... #define Luz13 45 
.................... #define Luz14 46 
.................... #define Luz15 47 
.................... #define Luz16 48 
.................... #define Luz17 49 
.................... #define Luz18 50 
.................... #define Luz19 51 
.................... #define Luz20 52 
.................... #define Luz21 53 
.................... #define Luz22 54 
.................... #define Luz23 55 
.................... #define Luz24 56 
.................... #define Luz25 57 
.................... #define Luz26 58 
.................... #define Luz27 59 
.................... #define Luz28 60 
.................... #define Luz29 61 
.................... #define Luz30 62 
.................... #define Luz31 63 
.................... #define Luz32 64 
.................... #define Luz33 65 
.................... #define Luz34 66 
.................... #define Luz35 67 
.................... #define Luz36 68 
.................... #define Luz37 69 
.................... #define Luz38 70 
.................... #define Luz39 71 
.................... #define Luz40 72 
.................... #define Luz41 73 
.................... #define Luz42 74 
.................... #define Luz43 75 
.................... #define Luz44 76 
.................... #define Luz45 77 
.................... #define Luz46 78 
.................... #define Luz47 79 
.................... #define Luz48 80 
.................... #define Luz49 81 
.................... #define Luz50 82 
.................... #define Luz51 83 
.................... #define Luz52 84 
.................... #define Luz53 85 
.................... #define Luz54 86 
.................... #define Luz55 87 
.................... #define Luz56 88 
.................... #define Luz57 89 
.................... #define Luz58 90 
.................... #define Luz59 91 
.................... #define Luz60 92 
....................  
.................... #define TempMaxLun 100        // Temperatura maxima del lunes 
.................... #define TempMaxMar 105        // Temperatura maxima del martes 
.................... #define TempMaxMie 110        // Temperatura maxima del miercoles 
.................... #define TempMaxJue 115        // Temperatura maxima del jueves 
.................... #define TempMaxVie 120        // Temperatura maxima del viernes 
.................... #define TempMaxSab 125        // Temperatura maxima del sabado 
.................... #define TempMaxDom 130        // Temperatura maxima del domingo 
....................  
.................... #define TempMinLun 135        // Temperatura minima del lunes 
.................... #define TempMinMar 140        // Temperatura minima del martes 
.................... #define TempMinMie 145        // Temperatura minima del miercoles 
.................... #define TempMinJue 150        // Temperatura minima del jueves 
.................... #define TempMinVie 155        // Temperatura minima del viernes 
.................... #define TempMinSab 160        // Temperatura minima del sabado 
.................... #define TempMinDom 165        // Temperatura minima del domingo 
....................  
.................... #define SolLun 170            // Sol maximo del lunes 
.................... #define SolMar 175            // Sol maximo del martes 
.................... #define SolMie 180            // Sol maximo del miercoles 
.................... #define SolJue 185            // Sol maximo del jueves 
.................... #define SolVie 190           // Sol maximo del viernes 
.................... #define SolSab 195           // Sol maximo del sabado 
.................... #define SolDom 200           // Sol maximo del domingo 
....................  
....................  
.................... ///////////////// Funciones Generales //////////////// 
.................... void inicio();     // Configuracion inicial 
.................... void BusData();    // Bus de datos con algo para meter en el comando 
.................... void Comunica();   // Funcion de lectura de puerto serial y armado del comando 
.................... void Teclado();    // Leemos el teclado 
.................... void Pantalla();   // Actualizamos la pantalla (por o general despues de un evento de teclado) 
.................... void Tiempo();     // Funcion para actualizar el tiempo 
.................... void Ambiente();   // Funcion para cargar variables ambientales 
.................... void AcercaDe();   // Acerca de... 
.................... void Holding();    // Pantalla de hold 
.................... void ActAlarma();  // Activador de alarma 
.................... void LuzOnOff();   // Enciende o apaga la luz 
.................... void LuzGrupo();   // Enciende o apaga grupo de luces 
.................... void LuzInt();     // Configuracion de la intensidad de cada luz 
.................... void Ccasandra();  // Configuracion del nivel de automatico 
.................... void ConfAlarma(); // Configuracion de la alarma 
.................... //ACDias(); 
.................... //ACHs(); 
.................... //ACluces(); 
.................... int Autenticar();  // Chequeo de contrasea, devuelve 1 si es correcta y 0 si no 
.................... void CClave();     // Funcion para cambiar la clave 
.................... void CHs();        // Funcion para cambiar la hora 
.................... void CReset();     // Resetea todas las variables del sistema 
.................... void ConfAlarma(); // Configuracion de alarma 
....................  
....................  
.................... /////////////// Variables globales /////////////// 
.................... int Menu;          // Posicion dentro del menu 
.................... int TempMax[4];    // Temperatura maxima de la semana - dia - hora - minuto 
.................... int TempMin[4];    // Temperatura minima de la semana - dia - hora - minuto  
.................... int SolMax[4];     // Maximo nivel de radiacion de sol en la semana - dia - hora - minuto 
.................... short Rebote;      // Antirebote de teclado 
.................... int Comando[4];    // Carga de EVENTO y VALOR 
.................... int i=0;           // Contador puntero para armar el comando recibido por el bus 
.................... char Dia[4];       // Cadena del dia 
.................... char Mes[4];       // Cadena del Mes 
.................... int TempOut;       // Temperatura remota (afuera) 
.................... int Sol;           // Intensidad del sol (remota, afuera) 
.................... int EstadoAl;      // Estado de la alarma 
.................... int ConfCas;       // El 0 es servicios, el 1 es el automatico, el 2 el modulo web y los demas de reserva 
.................... int Tiempo1;       // Tiempo del timer1 
.................... int IntLuz[99];    // Arreglo que guarda los niveles de intensidad de cada luz 
.................... int LGrupo[99];    // Arreglo que avisa que luz forma parte de los diferentes grupos 
.................... int Passwd[2];     // Contrasea en RAM 
.................... int TpoSilencioso; // Tiempo de silencio antes de sirena 
.................... int TpoSalida;     // Tiempo de gracia post activacion 
....................  
.................... ////////////////////////////////////////////////// 
....................  
.................... void main(){ 
*
0916C:  CLRF   FF8
0916E:  BCF    FD0.7
09170:  BSF    07.7
09172:  BCF    F95.4
09174:  BCF    F8C.4
09176:  BCF    FB8.3
09178:  MOVLW  19
0917A:  MOVWF  FAF
0917C:  MOVLW  A6
0917E:  MOVWF  FAC
09180:  MOVLW  90
09182:  MOVWF  FAB
09184:  CLRF   1F
09186:  CLRF   39
09188:  MOVF   FC1,W
0918A:  ANDLW  C0
0918C:  IORLW  0F
0918E:  MOVWF  FC1
09190:  MOVLW  07
09192:  MOVWF  FB4
....................  
.................... inicio(); 
09194:  GOTO   24FC
....................  
.................... while(1){ 
....................  
.................... restart_wdt(); // reiniciamos el perro 
09198:  CLRWDT
....................  
.................... Teclado(); 
0919A:  GOTO   3228
.................... Pantalla(); 
0919E:  CALL   27C2
....................  
.................... if (EstadoAl == 1){ // Si la alarma esta desactivada 
091A2:  DECFSZ 44,W
091A4:  BRA    91A8
.................... // Cool! Nada por aqui :P 
.................... } else { // La alarma esta activada 
091A6:  BRA    91F0
.................... if (Menu > 1){ 
091A8:  MOVF   27,W
091AA:  SUBLW  01
091AC:  BC    91F0
.................... if (Autenticar()) { //autentica ok 
091AE:  CALL   36AE
091B2:  MOVF   01,F
091B4:  BZ    91EE
.................... EstadoAl = 1; // desactivada 
091B6:  MOVLW  01
091B8:  MOVWF  44
.................... write_eeprom(EstAlarma,EstadoAl); 
091BA:  MOVF   FF2,W
091BC:  MOVWF  00
091BE:  BCF    FF2.7
091C0:  CLRF   FAA
091C2:  MOVLW  02
091C4:  MOVWF  FA9
091C6:  MOVFF  44,FA8
091CA:  BCF    FA6.6
091CC:  BCF    FA6.7
091CE:  BSF    FA6.2
091D0:  MOVLB  F
091D2:  MOVLW  55
091D4:  MOVWF  FA7
091D6:  MOVLW  AA
091D8:  MOVWF  FA7
091DA:  BSF    FA6.1
091DC:  BTFSC  FA6.1
091DE:  BRA    91DC
091E0:  BCF    FA6.2
091E2:  MOVF   00,W
091E4:  IORWF  FF2,F
.................... Menu = 1; 
091E6:  MOVLW  01
091E8:  MOVWF  27
.................... } else { // no autentica 
091EA:  BRA    91F2
091EC:  MOVLB  0
.................... Menu = 0; 
091EE:  CLRF   27
091F0:  MOVLB  F
.................... } // no autentica 
.................... } // Menu mas que 1 
.................... } // Alarma activada 
....................  
....................  
.................... if ((Menu == 121) || (Menu == 122) || (Menu == 123)) ActAlarma(); 
091F2:  MOVF   27,W
091F4:  SUBLW  79
091F6:  BZ    9204
091F8:  MOVF   27,W
091FA:  SUBLW  7A
091FC:  BZ    9204
091FE:  MOVF   27,W
09200:  SUBLW  7B
09202:  BNZ   920C
09204:  MOVLB  0
09206:  GOTO   3BA0
0920A:  MOVLB  F
.................... if (Menu == 124) ConfAlarma(); 
0920C:  MOVF   27,W
0920E:  SUBLW  7C
09210:  BNZ   921A
09212:  MOVLB  0
09214:  GOTO   4006
09218:  MOVLB  F
.................... if (Menu == 131) LuzOnOff(); 
0921A:  MOVF   27,W
0921C:  SUBLW  83
0921E:  BNZ   9228
09220:  MOVLB  0
09222:  GOTO   440A
09226:  MOVLB  F
.................... if (Menu == 132) LuzGrupo(); 
09228:  MOVF   27,W
0922A:  SUBLW  84
0922C:  BNZ   9236
0922E:  MOVLB  0
09230:  GOTO   47EE
09234:  MOVLB  F
.................... if (Menu == 133) LuzInt(); 
09236:  MOVF   27,W
09238:  SUBLW  85
0923A:  BNZ   9244
0923C:  MOVLB  0
0923E:  GOTO   6FC4
09242:  MOVLB  F
.................... if (Menu == 41) Ccasandra(); 
09244:  MOVF   27,W
09246:  SUBLW  29
09248:  BNZ   9252
0924A:  MOVLB  0
0924C:  GOTO   747E
09250:  MOVLB  F
.................... //if (Menu == 151) CDias(); 
.................... //if (Menu == 152) ACHs(); 
.................... //if (Menu == 153) Cluces(); 
.................... if (Menu == 161) CClave(); 
09252:  MOVF   27,W
09254:  SUBLW  A1
09256:  BNZ   9260
09258:  MOVLB  0
0925A:  GOTO   7A08
0925E:  MOVLB  F
.................... if (Menu == 162) CHs(); 
09260:  MOVF   27,W
09262:  SUBLW  A2
09264:  BNZ   926E
09266:  MOVLB  0
09268:  GOTO   83A0
0926C:  MOVLB  F
.................... if (Menu == 163) CReset(); 
0926E:  MOVF   27,W
09270:  SUBLW  A3
09272:  BNZ   927A
09274:  MOVLB  0
09276:  BRA    8B80
09278:  MOVLB  F
.................... if (Menu == 164) AcercaDe(); 
0927A:  MOVF   27,W
0927C:  SUBLW  A4
0927E:  BNZ   9284
09280:  MOVLB  0
09282:  BRA    8DA2
09284:  MOVLB  0
09286:  BRA    9198
....................  
.................... } //while 
.................... } // Main 
....................  
09288:  SLEEP 
....................  
....................  
.................... void LuzGrupo(){ 
*
047EE:  MOVLW  01
047F0:  MOVLB  1
047F2:  MOVWF  x11
047F4:  BCF    x12.0
....................  
.................... int submenu = 1; 
.................... short editar = false; 
.................... int ON[8]; 
.................... ON[1] = ON[2] = ON[3] = ON[4] = ON[5] = ON[6] = ON[7] = 0; 
047F6:  CLRF   x1A
047F8:  MOVFF  11A,119
047FC:  MOVFF  119,118
04800:  MOVFF  118,117
04804:  MOVFF  117,116
04808:  MOVFF  116,115
0480C:  MOVFF  115,114
.................... int kk; 
....................  
....................  
.................... while (submenu < 9){ // hasta llenar todas las luces 
04810:  MOVF   x11,W
04812:  SUBLW  08
04814:  BTFSS  FD8.0
04816:  GOTO   6F40
....................  
.................... restart_wdt(); 
0481A:  CLRWDT
....................  
.................... if (input(ARRIBA)==1 && input(ABAJO)==1 && input(OOKK)==1 && input(CANCEL)==1) Rebote = false; // Soltamos las teclas 
0481C:  BSF    F93.0
0481E:  BTFSS  F81.0
04820:  BRA    4836
04822:  BSF    F93.1
04824:  BTFSS  F81.1
04826:  BRA    4836
04828:  BSF    F93.2
0482A:  BTFSS  F81.2
0482C:  BRA    4836
0482E:  BSF    F93.3
04830:  BTFSS  F81.3
04832:  BRA    4836
04834:  BCF    34.0
....................  
.................... if (Rebote == false){ 
04836:  BTFSC  34.0
04838:  BRA    484C
.................... if (input(OOKK) == 0){  
0483A:  BSF    F93.2
0483C:  BTFSC  F81.2
0483E:  BRA    484C
.................... if (editar == false) editar = true; 
04840:  BTFSC  x12.0
04842:  BRA    4848
04844:  BSF    x12.0
04846:  BRA    484A
.................... else editar = false; 
04848:  BCF    x12.0
.................... Rebote = true; 
0484A:  BSF    34.0
.................... } // si ok 
.................... } 
....................  
.................... if (Rebote == false){ 
0484C:  BTFSC  34.0
0484E:  BRA    4868
.................... if (input(CANCEL) == 0){ // salgo al toque con cancel 
04850:  BSF    F93.3
04852:  BTFSC  F81.3
04854:  BRA    4868
.................... if (editar == true) editar = false; 
04856:  BTFSS  x12.0
04858:  BRA    485E
0485A:  BCF    x12.0
0485C:  BRA    4866
.................... else { 
.................... Menu = 32; 
0485E:  MOVLW  20
04860:  MOVWF  27
.................... submenu = 10; 
04862:  MOVLW  0A
04864:  MOVWF  x11
.................... } 
.................... Rebote = true; 
04866:  BSF    34.0
.................... } // si cancel 
.................... } 
....................  
.................... if (Rebote == false){ 
04868:  BTFSC  34.0
0486A:  GOTO   5A30
.................... if (input(ABAJO) == 0){ // si abajo 
0486E:  BSF    F93.1
04870:  BTFSC  F81.1
04872:  GOTO   5A30
.................... if (editar){ // editar habilitado 
04876:  BTFSS  x12.0
04878:  GOTO   5A22
.................... switch (submenu){ 
0487C:  MOVLW  01
0487E:  SUBWF  x11,W
04880:  ADDLW  F8
04882:  BTFSC  FD8.0
04884:  GOTO   5A20
04888:  ADDLW  08
0488A:  MOVLB  0
0488C:  GOTO   6F46
....................  
....................    case 1: // TODOS 
....................       if ((ON[submenu] == 0) || (ON[submenu] == 10)){ // incierto o prendido 
04890:  CLRF   03
04892:  MOVLB  1
04894:  MOVF   x11,W
04896:  ADDLW  13
04898:  MOVWF  FE9
0489A:  MOVLW  01
0489C:  ADDWFC 03,W
0489E:  MOVWF  FEA
048A0:  MOVF   FEF,F
048A2:  BZ    48B8
048A4:  CLRF   03
048A6:  MOVF   x11,W
048A8:  ADDLW  13
048AA:  MOVWF  FE9
048AC:  MOVLW  01
048AE:  ADDWFC 03,W
048B0:  MOVWF  FEA
048B2:  MOVF   FEF,W
048B4:  SUBLW  0A
048B6:  BNZ   49A0
....................       ON[submenu] = 1; // De incierto o prendido --> a apagado 
048B8:  CLRF   03
048BA:  MOVF   x11,W
048BC:  ADDLW  13
048BE:  MOVWF  FE9
048C0:  MOVLW  01
048C2:  ADDWFC 03,W
048C4:  MOVWF  FEA
048C6:  MOVLW  01
048C8:  MOVWF  FEF
....................       for (kk=32;kk<94;kk++) { 
048CA:  MOVLW  20
048CC:  MOVWF  x1B
048CE:  MOVF   x1B,W
048D0:  SUBLW  5D
048D2:  BNC   4970
....................       if (IntLuz[kk] > 99){ // estaba prendido 
048D4:  CLRF   03
048D6:  MOVF   x1B,W
048D8:  ADDLW  47
048DA:  MOVWF  FE9
048DC:  MOVLW  00
048DE:  ADDWFC 03,W
048E0:  MOVWF  FEA
048E2:  MOVF   FEF,W
048E4:  SUBLW  63
048E6:  BC    496C
....................          IntLuz[kk] = IntLuz[kk] - 100; // apago en el arreglo en RAM 
048E8:  CLRF   03
048EA:  MOVF   x1B,W
048EC:  ADDLW  47
048EE:  MOVWF  01
048F0:  MOVLW  00
048F2:  ADDWFC 03,F
048F4:  MOVFF  03,11D
048F8:  CLRF   03
048FA:  MOVF   x1B,W
048FC:  ADDLW  47
048FE:  MOVWF  FE9
04900:  MOVLW  00
04902:  ADDWFC 03,W
04904:  MOVWF  FEA
04906:  MOVLW  64
04908:  SUBWF  FEF,W
0490A:  MOVFF  11D,FEA
0490E:  MOVFF  01,FE9
04912:  MOVWF  FEF
....................          write_eeprom(kk,IntLuz[kk]); // apago en el arreglo en ROM 
04914:  CLRF   03
04916:  MOVF   x1B,W
04918:  ADDLW  47
0491A:  MOVWF  FE9
0491C:  MOVLW  00
0491E:  ADDWFC 03,W
04920:  MOVWF  FEA
04922:  MOVFF  FEF,11C
04926:  MOVF   FF2,W
04928:  MOVWF  00
0492A:  BCF    FF2.7
0492C:  CLRF   FAA
0492E:  MOVFF  11B,FA9
04932:  MOVFF  11C,FA8
04936:  BCF    FA6.6
04938:  BCF    FA6.7
0493A:  BSF    FA6.2
0493C:  MOVLB  F
0493E:  MOVLW  55
04940:  MOVWF  FA7
04942:  MOVLW  AA
04944:  MOVWF  FA7
04946:  BSF    FA6.1
04948:  BTFSC  FA6.1
0494A:  BRA    4948
0494C:  BCF    FA6.2
0494E:  MOVF   00,W
04950:  IORWF  FF2,F
04952:  CLRF   19
04954:  BTFSC  FF2.7
04956:  BSF    19.7
04958:  BCF    FF2.7
....................          delay_ms(1); 
0495A:  MOVLW  01
0495C:  MOVLB  1
0495E:  MOVWF  x37
04960:  MOVLB  0
04962:  CALL   0D76
04966:  BTFSC  19.7
04968:  BSF    FF2.7
0496A:  MOVLB  1
....................       } // si estaba prendido.. 
0496C:  INCF   x1B,F
0496E:  BRA    48CE
....................       } // for... 
....................       printf("%c%c%c%c", 250, 100, 80, 180); // Apagamos todo en la red 
04970:  MOVLW  FA
04972:  MOVWF  x1D
04974:  MOVLB  0
04976:  CALL   23EA
0497A:  MOVLW  64
0497C:  MOVLB  1
0497E:  MOVWF  x1D
04980:  MOVLB  0
04982:  CALL   23EA
04986:  MOVLW  50
04988:  MOVLB  1
0498A:  MOVWF  x1D
0498C:  MOVLB  0
0498E:  CALL   23EA
04992:  MOVLW  B4
04994:  MOVLB  1
04996:  MOVWF  x1D
04998:  MOVLB  0
0499A:  CALL   23EA
0499E:  MOVLB  1
....................       } // si incierto o prendido 
....................       if (ON[submenu] == 1) { // apagado 
049A0:  CLRF   03
049A2:  MOVF   x11,W
049A4:  ADDLW  13
049A6:  MOVWF  FE9
049A8:  MOVLW  01
049AA:  ADDWFC 03,W
049AC:  MOVWF  FEA
049AE:  DECFSZ FEF,W
049B0:  BRA    4A9A
....................       ON[submenu] = 10; // De apagado --> a prendido 
049B2:  CLRF   03
049B4:  MOVF   x11,W
049B6:  ADDLW  13
049B8:  MOVWF  FE9
049BA:  MOVLW  01
049BC:  ADDWFC 03,W
049BE:  MOVWF  FEA
049C0:  MOVLW  0A
049C2:  MOVWF  FEF
....................       for (kk=32;kk<94;kk++) { 
049C4:  MOVLW  20
049C6:  MOVWF  x1B
049C8:  MOVF   x1B,W
049CA:  SUBLW  5D
049CC:  BNC   4A6A
....................       if (IntLuz[kk] < 99){ // estaba apagado 
049CE:  CLRF   03
049D0:  MOVF   x1B,W
049D2:  ADDLW  47
049D4:  MOVWF  FE9
049D6:  MOVLW  00
049D8:  ADDWFC 03,W
049DA:  MOVWF  FEA
049DC:  MOVF   FEF,W
049DE:  SUBLW  62
049E0:  BNC   4A66
....................          IntLuz[kk] = IntLuz[kk] + 100; // prendo en el arreglo 
049E2:  CLRF   03
049E4:  MOVF   x1B,W
049E6:  ADDLW  47
049E8:  MOVWF  01
049EA:  MOVLW  00
049EC:  ADDWFC 03,F
049EE:  MOVFF  03,11D
049F2:  CLRF   03
049F4:  MOVF   x1B,W
049F6:  ADDLW  47
049F8:  MOVWF  FE9
049FA:  MOVLW  00
049FC:  ADDWFC 03,W
049FE:  MOVWF  FEA
04A00:  MOVLW  64
04A02:  ADDWF  FEF,W
04A04:  MOVFF  11D,FEA
04A08:  MOVFF  01,FE9
04A0C:  MOVWF  FEF
....................          write_eeprom(kk,IntLuz[kk]); 
04A0E:  CLRF   03
04A10:  MOVF   x1B,W
04A12:  ADDLW  47
04A14:  MOVWF  FE9
04A16:  MOVLW  00
04A18:  ADDWFC 03,W
04A1A:  MOVWF  FEA
04A1C:  MOVFF  FEF,11C
04A20:  MOVF   FF2,W
04A22:  MOVWF  00
04A24:  BCF    FF2.7
04A26:  CLRF   FAA
04A28:  MOVFF  11B,FA9
04A2C:  MOVFF  11C,FA8
04A30:  BCF    FA6.6
04A32:  BCF    FA6.7
04A34:  BSF    FA6.2
04A36:  MOVLB  F
04A38:  MOVLW  55
04A3A:  MOVWF  FA7
04A3C:  MOVLW  AA
04A3E:  MOVWF  FA7
04A40:  BSF    FA6.1
04A42:  BTFSC  FA6.1
04A44:  BRA    4A42
04A46:  BCF    FA6.2
04A48:  MOVF   00,W
04A4A:  IORWF  FF2,F
04A4C:  CLRF   19
04A4E:  BTFSC  FF2.7
04A50:  BSF    19.7
04A52:  BCF    FF2.7
....................          delay_ms(1); 
04A54:  MOVLW  01
04A56:  MOVLB  1
04A58:  MOVWF  x37
04A5A:  MOVLB  0
04A5C:  CALL   0D76
04A60:  BTFSC  19.7
04A62:  BSF    FF2.7
04A64:  MOVLB  1
....................       } // si estaba apagado.. 
04A66:  INCF   x1B,F
04A68:  BRA    49C8
....................       } // for... 
....................       printf("%c%c%c%c", 250, 100, 90, 180); // Prendemos todo en la red 
04A6A:  MOVLW  FA
04A6C:  MOVWF  x1D
04A6E:  MOVLB  0
04A70:  CALL   23EA
04A74:  MOVLW  64
04A76:  MOVLB  1
04A78:  MOVWF  x1D
04A7A:  MOVLB  0
04A7C:  CALL   23EA
04A80:  MOVLW  5A
04A82:  MOVLB  1
04A84:  MOVWF  x1D
04A86:  MOVLB  0
04A88:  CALL   23EA
04A8C:  MOVLW  B4
04A8E:  MOVLB  1
04A90:  MOVWF  x1D
04A92:  MOVLB  0
04A94:  CALL   23EA
04A98:  MOVLB  1
....................       } // si apagado 
....................    break; 
04A9A:  GOTO   5A20
....................     
....................    case 2: // TODOS INTERIOR // bit 1 de LGrupo 
....................       if ((ON[submenu] == 0) || (ON[submenu] == 10)){ // incierto o prendido 
04A9E:  CLRF   03
04AA0:  MOVLB  1
04AA2:  MOVF   x11,W
04AA4:  ADDLW  13
04AA6:  MOVWF  FE9
04AA8:  MOVLW  01
04AAA:  ADDWFC 03,W
04AAC:  MOVWF  FEA
04AAE:  MOVF   FEF,F
04AB0:  BZ    4AC8
04AB2:  CLRF   03
04AB4:  MOVF   x11,W
04AB6:  ADDLW  13
04AB8:  MOVWF  FE9
04ABA:  MOVLW  01
04ABC:  ADDWFC 03,W
04ABE:  MOVWF  FEA
04AC0:  MOVF   FEF,W
04AC2:  SUBLW  0A
04AC4:  BTFSS  FD8.2
04AC6:  BRA    4BC4
....................       ON[submenu] = 1; // De incierto o prendido --> a apagado 
04AC8:  CLRF   03
04ACA:  MOVF   x11,W
04ACC:  ADDLW  13
04ACE:  MOVWF  FE9
04AD0:  MOVLW  01
04AD2:  ADDWFC 03,W
04AD4:  MOVWF  FEA
04AD6:  MOVLW  01
04AD8:  MOVWF  FEF
....................       for (kk=32;kk<94;kk++) { 
04ADA:  MOVLW  20
04ADC:  MOVWF  x1B
04ADE:  MOVF   x1B,W
04AE0:  SUBLW  5D
04AE2:  BNC   4BC4
....................       if (bit_test(LGrupo[kk],1)){ // si pertenece al grupo 
04AE4:  CLRF   03
04AE6:  MOVF   x1B,W
04AE8:  ADDLW  AA
04AEA:  MOVWF  FE9
04AEC:  MOVLW  00
04AEE:  ADDWFC 03,W
04AF0:  MOVWF  FEA
04AF2:  MOVFF  FEF,11C
04AF6:  BTFSS  x1C.1
04AF8:  BRA    4BC0
....................       if (IntLuz[kk] > 99){ // estaba prendido 
04AFA:  CLRF   03
04AFC:  MOVF   x1B,W
04AFE:  ADDLW  47
04B00:  MOVWF  FE9
04B02:  MOVLW  00
04B04:  ADDWFC 03,W
04B06:  MOVWF  FEA
04B08:  MOVF   FEF,W
04B0A:  SUBLW  63
04B0C:  BC    4BC0
....................          IntLuz[kk] = IntLuz[kk] - 100; // apago en el arreglo en RAM 
04B0E:  CLRF   03
04B10:  MOVF   x1B,W
04B12:  ADDLW  47
04B14:  MOVWF  01
04B16:  MOVLW  00
04B18:  ADDWFC 03,F
04B1A:  MOVFF  03,11D
04B1E:  CLRF   03
04B20:  MOVF   x1B,W
04B22:  ADDLW  47
04B24:  MOVWF  FE9
04B26:  MOVLW  00
04B28:  ADDWFC 03,W
04B2A:  MOVWF  FEA
04B2C:  MOVLW  64
04B2E:  SUBWF  FEF,W
04B30:  MOVFF  11D,FEA
04B34:  MOVFF  01,FE9
04B38:  MOVWF  FEF
....................          write_eeprom(kk,IntLuz[kk]); // apago en el arreglo en ROM 
04B3A:  CLRF   03
04B3C:  MOVF   x1B,W
04B3E:  ADDLW  47
04B40:  MOVWF  FE9
04B42:  MOVLW  00
04B44:  ADDWFC 03,W
04B46:  MOVWF  FEA
04B48:  MOVFF  FEF,11C
04B4C:  MOVF   FF2,W
04B4E:  MOVWF  00
04B50:  BCF    FF2.7
04B52:  CLRF   FAA
04B54:  MOVFF  11B,FA9
04B58:  MOVFF  11C,FA8
04B5C:  BCF    FA6.6
04B5E:  BCF    FA6.7
04B60:  BSF    FA6.2
04B62:  MOVLB  F
04B64:  MOVLW  55
04B66:  MOVWF  FA7
04B68:  MOVLW  AA
04B6A:  MOVWF  FA7
04B6C:  BSF    FA6.1
04B6E:  BTFSC  FA6.1
04B70:  BRA    4B6E
04B72:  BCF    FA6.2
04B74:  MOVF   00,W
04B76:  IORWF  FF2,F
04B78:  CLRF   19
04B7A:  BTFSC  FF2.7
04B7C:  BSF    19.7
04B7E:  BCF    FF2.7
....................          delay_ms(1); 
04B80:  MOVLW  01
04B82:  MOVLB  1
04B84:  MOVWF  x37
04B86:  MOVLB  0
04B88:  CALL   0D76
04B8C:  BTFSC  19.7
04B8E:  BSF    FF2.7
....................          printf("%c%c%c%c", 250, kk, 80, kk+80); // Apagamos  en la red 
04B90:  MOVLW  50
04B92:  MOVLB  1
04B94:  ADDWF  x1B,W
04B96:  MOVWF  x1C
04B98:  MOVLW  FA
04B9A:  MOVWF  x1D
04B9C:  MOVLB  0
04B9E:  CALL   23EA
04BA2:  MOVFF  11B,11D
04BA6:  CALL   23EA
04BAA:  MOVLW  50
04BAC:  MOVLB  1
04BAE:  MOVWF  x1D
04BB0:  MOVLB  0
04BB2:  CALL   23EA
04BB6:  MOVFF  11C,11D
04BBA:  CALL   23EA
04BBE:  MOVLB  1
....................       } // si estaba prendido.. 
....................       } // si pertenece al grupo 
04BC0:  INCF   x1B,F
04BC2:  BRA    4ADE
....................       } // for... 
....................       } // si incierto o prendido 
....................       if (ON[submenu] == 1) { // apagado 
04BC4:  CLRF   03
04BC6:  MOVF   x11,W
04BC8:  ADDLW  13
04BCA:  MOVWF  FE9
04BCC:  MOVLW  01
04BCE:  ADDWFC 03,W
04BD0:  MOVWF  FEA
04BD2:  DECFSZ FEF,W
04BD4:  BRA    4CD2
....................       ON[submenu] = 10; // De apagado --> a prendido 
04BD6:  CLRF   03
04BD8:  MOVF   x11,W
04BDA:  ADDLW  13
04BDC:  MOVWF  FE9
04BDE:  MOVLW  01
04BE0:  ADDWFC 03,W
04BE2:  MOVWF  FEA
04BE4:  MOVLW  0A
04BE6:  MOVWF  FEF
....................       for (kk=32;kk<94;kk++) { 
04BE8:  MOVLW  20
04BEA:  MOVWF  x1B
04BEC:  MOVF   x1B,W
04BEE:  SUBLW  5D
04BF0:  BNC   4CD2
....................       if (bit_test(LGrupo[kk],1)){ // si pertenece al grupo 
04BF2:  CLRF   03
04BF4:  MOVF   x1B,W
04BF6:  ADDLW  AA
04BF8:  MOVWF  FE9
04BFA:  MOVLW  00
04BFC:  ADDWFC 03,W
04BFE:  MOVWF  FEA
04C00:  MOVFF  FEF,11C
04C04:  BTFSS  x1C.1
04C06:  BRA    4CCE
....................       if (IntLuz[kk] < 99){ // estaba apagado 
04C08:  CLRF   03
04C0A:  MOVF   x1B,W
04C0C:  ADDLW  47
04C0E:  MOVWF  FE9
04C10:  MOVLW  00
04C12:  ADDWFC 03,W
04C14:  MOVWF  FEA
04C16:  MOVF   FEF,W
04C18:  SUBLW  62
04C1A:  BNC   4CCE
....................          IntLuz[kk] = IntLuz[kk] + 100; // prendo en el arreglo 
04C1C:  CLRF   03
04C1E:  MOVF   x1B,W
04C20:  ADDLW  47
04C22:  MOVWF  01
04C24:  MOVLW  00
04C26:  ADDWFC 03,F
04C28:  MOVFF  03,11D
04C2C:  CLRF   03
04C2E:  MOVF   x1B,W
04C30:  ADDLW  47
04C32:  MOVWF  FE9
04C34:  MOVLW  00
04C36:  ADDWFC 03,W
04C38:  MOVWF  FEA
04C3A:  MOVLW  64
04C3C:  ADDWF  FEF,W
04C3E:  MOVFF  11D,FEA
04C42:  MOVFF  01,FE9
04C46:  MOVWF  FEF
....................          write_eeprom(kk,IntLuz[kk]); 
04C48:  CLRF   03
04C4A:  MOVF   x1B,W
04C4C:  ADDLW  47
04C4E:  MOVWF  FE9
04C50:  MOVLW  00
04C52:  ADDWFC 03,W
04C54:  MOVWF  FEA
04C56:  MOVFF  FEF,11C
04C5A:  MOVF   FF2,W
04C5C:  MOVWF  00
04C5E:  BCF    FF2.7
04C60:  CLRF   FAA
04C62:  MOVFF  11B,FA9
04C66:  MOVFF  11C,FA8
04C6A:  BCF    FA6.6
04C6C:  BCF    FA6.7
04C6E:  BSF    FA6.2
04C70:  MOVLB  F
04C72:  MOVLW  55
04C74:  MOVWF  FA7
04C76:  MOVLW  AA
04C78:  MOVWF  FA7
04C7A:  BSF    FA6.1
04C7C:  BTFSC  FA6.1
04C7E:  BRA    4C7C
04C80:  BCF    FA6.2
04C82:  MOVF   00,W
04C84:  IORWF  FF2,F
04C86:  CLRF   19
04C88:  BTFSC  FF2.7
04C8A:  BSF    19.7
04C8C:  BCF    FF2.7
....................          delay_ms(1); 
04C8E:  MOVLW  01
04C90:  MOVLB  1
04C92:  MOVWF  x37
04C94:  MOVLB  0
04C96:  CALL   0D76
04C9A:  BTFSC  19.7
04C9C:  BSF    FF2.7
....................          printf("%c%c%c%c", 250, kk, 90, kk+90); // Prendemos  en la red 
04C9E:  MOVLW  5A
04CA0:  MOVLB  1
04CA2:  ADDWF  x1B,W
04CA4:  MOVWF  x1C
04CA6:  MOVLW  FA
04CA8:  MOVWF  x1D
04CAA:  MOVLB  0
04CAC:  CALL   23EA
04CB0:  MOVFF  11B,11D
04CB4:  CALL   23EA
04CB8:  MOVLW  5A
04CBA:  MOVLB  1
04CBC:  MOVWF  x1D
04CBE:  MOVLB  0
04CC0:  CALL   23EA
04CC4:  MOVFF  11C,11D
04CC8:  CALL   23EA
04CCC:  MOVLB  1
....................       } // si estaba apagado.. 
....................       } // si pertenece al grupo 
04CCE:  INCF   x1B,F
04CD0:  BRA    4BEC
....................       } // for... 
....................       } // si apagado 
....................    break; 
04CD2:  GOTO   5A20
....................     
....................    case 3: // TODOS EXTERIOR // bit 2 de LGrupo 
....................       if ((ON[submenu] == 0) || (ON[submenu] == 10)){ // incierto o prendido 
04CD6:  CLRF   03
04CD8:  MOVLB  1
04CDA:  MOVF   x11,W
04CDC:  ADDLW  13
04CDE:  MOVWF  FE9
04CE0:  MOVLW  01
04CE2:  ADDWFC 03,W
04CE4:  MOVWF  FEA
04CE6:  MOVF   FEF,F
04CE8:  BZ    4D00
04CEA:  CLRF   03
04CEC:  MOVF   x11,W
04CEE:  ADDLW  13
04CF0:  MOVWF  FE9
04CF2:  MOVLW  01
04CF4:  ADDWFC 03,W
04CF6:  MOVWF  FEA
04CF8:  MOVF   FEF,W
04CFA:  SUBLW  0A
04CFC:  BTFSS  FD8.2
04CFE:  BRA    4DFC
....................       ON[submenu] = 1; // De incierto o prendido --> a apagado 
04D00:  CLRF   03
04D02:  MOVF   x11,W
04D04:  ADDLW  13
04D06:  MOVWF  FE9
04D08:  MOVLW  01
04D0A:  ADDWFC 03,W
04D0C:  MOVWF  FEA
04D0E:  MOVLW  01
04D10:  MOVWF  FEF
....................       for (kk=32;kk<94;kk++) { 
04D12:  MOVLW  20
04D14:  MOVWF  x1B
04D16:  MOVF   x1B,W
04D18:  SUBLW  5D
04D1A:  BNC   4DFC
....................       if (bit_test(LGrupo[kk],2)){ // si pertenece al grupo 
04D1C:  CLRF   03
04D1E:  MOVF   x1B,W
04D20:  ADDLW  AA
04D22:  MOVWF  FE9
04D24:  MOVLW  00
04D26:  ADDWFC 03,W
04D28:  MOVWF  FEA
04D2A:  MOVFF  FEF,11C
04D2E:  BTFSS  x1C.2
04D30:  BRA    4DF8
....................       if (IntLuz[kk] > 99){ // estaba prendido 
04D32:  CLRF   03
04D34:  MOVF   x1B,W
04D36:  ADDLW  47
04D38:  MOVWF  FE9
04D3A:  MOVLW  00
04D3C:  ADDWFC 03,W
04D3E:  MOVWF  FEA
04D40:  MOVF   FEF,W
04D42:  SUBLW  63
04D44:  BC    4DF8
....................          IntLuz[kk] = IntLuz[kk] - 100; // apago en el arreglo en RAM 
04D46:  CLRF   03
04D48:  MOVF   x1B,W
04D4A:  ADDLW  47
04D4C:  MOVWF  01
04D4E:  MOVLW  00
04D50:  ADDWFC 03,F
04D52:  MOVFF  03,11D
04D56:  CLRF   03
04D58:  MOVF   x1B,W
04D5A:  ADDLW  47
04D5C:  MOVWF  FE9
04D5E:  MOVLW  00
04D60:  ADDWFC 03,W
04D62:  MOVWF  FEA
04D64:  MOVLW  64
04D66:  SUBWF  FEF,W
04D68:  MOVFF  11D,FEA
04D6C:  MOVFF  01,FE9
04D70:  MOVWF  FEF
....................          write_eeprom(kk,IntLuz[kk]); // apago en el arreglo en ROM 
04D72:  CLRF   03
04D74:  MOVF   x1B,W
04D76:  ADDLW  47
04D78:  MOVWF  FE9
04D7A:  MOVLW  00
04D7C:  ADDWFC 03,W
04D7E:  MOVWF  FEA
04D80:  MOVFF  FEF,11C
04D84:  MOVF   FF2,W
04D86:  MOVWF  00
04D88:  BCF    FF2.7
04D8A:  CLRF   FAA
04D8C:  MOVFF  11B,FA9
04D90:  MOVFF  11C,FA8
04D94:  BCF    FA6.6
04D96:  BCF    FA6.7
04D98:  BSF    FA6.2
04D9A:  MOVLB  F
04D9C:  MOVLW  55
04D9E:  MOVWF  FA7
04DA0:  MOVLW  AA
04DA2:  MOVWF  FA7
04DA4:  BSF    FA6.1
04DA6:  BTFSC  FA6.1
04DA8:  BRA    4DA6
04DAA:  BCF    FA6.2
04DAC:  MOVF   00,W
04DAE:  IORWF  FF2,F
04DB0:  CLRF   19
04DB2:  BTFSC  FF2.7
04DB4:  BSF    19.7
04DB6:  BCF    FF2.7
....................          delay_ms(1); 
04DB8:  MOVLW  01
04DBA:  MOVLB  1
04DBC:  MOVWF  x37
04DBE:  MOVLB  0
04DC0:  CALL   0D76
04DC4:  BTFSC  19.7
04DC6:  BSF    FF2.7
....................          printf("%c%c%c%c", 250, kk, 80, kk+80); // Apagamos  en la red 
04DC8:  MOVLW  50
04DCA:  MOVLB  1
04DCC:  ADDWF  x1B,W
04DCE:  MOVWF  x1C
04DD0:  MOVLW  FA
04DD2:  MOVWF  x1D
04DD4:  MOVLB  0
04DD6:  CALL   23EA
04DDA:  MOVFF  11B,11D
04DDE:  CALL   23EA
04DE2:  MOVLW  50
04DE4:  MOVLB  1
04DE6:  MOVWF  x1D
04DE8:  MOVLB  0
04DEA:  CALL   23EA
04DEE:  MOVFF  11C,11D
04DF2:  CALL   23EA
04DF6:  MOVLB  1
....................       } // si estaba prendido.. 
....................       } // si pertenece al grupo 
04DF8:  INCF   x1B,F
04DFA:  BRA    4D16
....................       } // for... 
....................       } // si incierto o prendido 
....................       if (ON[submenu] == 1) { // apagado 
04DFC:  CLRF   03
04DFE:  MOVF   x11,W
04E00:  ADDLW  13
04E02:  MOVWF  FE9
04E04:  MOVLW  01
04E06:  ADDWFC 03,W
04E08:  MOVWF  FEA
04E0A:  DECFSZ FEF,W
04E0C:  BRA    4F0A
....................       ON[submenu] = 10; // De apagado --> a prendido 
04E0E:  CLRF   03
04E10:  MOVF   x11,W
04E12:  ADDLW  13
04E14:  MOVWF  FE9
04E16:  MOVLW  01
04E18:  ADDWFC 03,W
04E1A:  MOVWF  FEA
04E1C:  MOVLW  0A
04E1E:  MOVWF  FEF
....................       for (kk=32;kk<94;kk++) { 
04E20:  MOVLW  20
04E22:  MOVWF  x1B
04E24:  MOVF   x1B,W
04E26:  SUBLW  5D
04E28:  BNC   4F0A
....................       if (bit_test(LGrupo[kk],2)){ // si pertenece al grupo 
04E2A:  CLRF   03
04E2C:  MOVF   x1B,W
04E2E:  ADDLW  AA
04E30:  MOVWF  FE9
04E32:  MOVLW  00
04E34:  ADDWFC 03,W
04E36:  MOVWF  FEA
04E38:  MOVFF  FEF,11C
04E3C:  BTFSS  x1C.2
04E3E:  BRA    4F06
....................       if (IntLuz[kk] < 99){ // estaba apagado 
04E40:  CLRF   03
04E42:  MOVF   x1B,W
04E44:  ADDLW  47
04E46:  MOVWF  FE9
04E48:  MOVLW  00
04E4A:  ADDWFC 03,W
04E4C:  MOVWF  FEA
04E4E:  MOVF   FEF,W
04E50:  SUBLW  62
04E52:  BNC   4F06
....................          IntLuz[kk] = IntLuz[kk] + 100; // prendo en el arreglo 
04E54:  CLRF   03
04E56:  MOVF   x1B,W
04E58:  ADDLW  47
04E5A:  MOVWF  01
04E5C:  MOVLW  00
04E5E:  ADDWFC 03,F
04E60:  MOVFF  03,11D
04E64:  CLRF   03
04E66:  MOVF   x1B,W
04E68:  ADDLW  47
04E6A:  MOVWF  FE9
04E6C:  MOVLW  00
04E6E:  ADDWFC 03,W
04E70:  MOVWF  FEA
04E72:  MOVLW  64
04E74:  ADDWF  FEF,W
04E76:  MOVFF  11D,FEA
04E7A:  MOVFF  01,FE9
04E7E:  MOVWF  FEF
....................          write_eeprom(kk,IntLuz[kk]); 
04E80:  CLRF   03
04E82:  MOVF   x1B,W
04E84:  ADDLW  47
04E86:  MOVWF  FE9
04E88:  MOVLW  00
04E8A:  ADDWFC 03,W
04E8C:  MOVWF  FEA
04E8E:  MOVFF  FEF,11C
04E92:  MOVF   FF2,W
04E94:  MOVWF  00
04E96:  BCF    FF2.7
04E98:  CLRF   FAA
04E9A:  MOVFF  11B,FA9
04E9E:  MOVFF  11C,FA8
04EA2:  BCF    FA6.6
04EA4:  BCF    FA6.7
04EA6:  BSF    FA6.2
04EA8:  MOVLB  F
04EAA:  MOVLW  55
04EAC:  MOVWF  FA7
04EAE:  MOVLW  AA
04EB0:  MOVWF  FA7
04EB2:  BSF    FA6.1
04EB4:  BTFSC  FA6.1
04EB6:  BRA    4EB4
04EB8:  BCF    FA6.2
04EBA:  MOVF   00,W
04EBC:  IORWF  FF2,F
04EBE:  CLRF   19
04EC0:  BTFSC  FF2.7
04EC2:  BSF    19.7
04EC4:  BCF    FF2.7
....................          delay_ms(1); 
04EC6:  MOVLW  01
04EC8:  MOVLB  1
04ECA:  MOVWF  x37
04ECC:  MOVLB  0
04ECE:  CALL   0D76
04ED2:  BTFSC  19.7
04ED4:  BSF    FF2.7
....................          printf("%c%c%c%c", 250, kk, 90, kk+90); // Prendemos  en la red 
04ED6:  MOVLW  5A
04ED8:  MOVLB  1
04EDA:  ADDWF  x1B,W
04EDC:  MOVWF  x1C
04EDE:  MOVLW  FA
04EE0:  MOVWF  x1D
04EE2:  MOVLB  0
04EE4:  CALL   23EA
04EE8:  MOVFF  11B,11D
04EEC:  CALL   23EA
04EF0:  MOVLW  5A
04EF2:  MOVLB  1
04EF4:  MOVWF  x1D
04EF6:  MOVLB  0
04EF8:  CALL   23EA
04EFC:  MOVFF  11C,11D
04F00:  CALL   23EA
04F04:  MOVLB  1
....................       } // si estaba apagado.. 
....................       } // si pertenece al grupo 
04F06:  INCF   x1B,F
04F08:  BRA    4E24
....................       } // for... 
....................       } // si apagado 
....................    break; 
04F0A:  GOTO   5A20
....................     
....................    case 4: // JARDIN // bit 3 de LGrupo 
....................       if ((ON[submenu] == 0) || (ON[submenu] == 10)){ // incierto o prendido 
04F0E:  CLRF   03
04F10:  MOVLB  1
04F12:  MOVF   x11,W
04F14:  ADDLW  13
04F16:  MOVWF  FE9
04F18:  MOVLW  01
04F1A:  ADDWFC 03,W
04F1C:  MOVWF  FEA
04F1E:  MOVF   FEF,F
04F20:  BZ    4F38
04F22:  CLRF   03
04F24:  MOVF   x11,W
04F26:  ADDLW  13
04F28:  MOVWF  FE9
04F2A:  MOVLW  01
04F2C:  ADDWFC 03,W
04F2E:  MOVWF  FEA
04F30:  MOVF   FEF,W
04F32:  SUBLW  0A
04F34:  BTFSS  FD8.2
04F36:  BRA    5034
....................       ON[submenu] = 1; // De incierto o prendido --> a apagado 
04F38:  CLRF   03
04F3A:  MOVF   x11,W
04F3C:  ADDLW  13
04F3E:  MOVWF  FE9
04F40:  MOVLW  01
04F42:  ADDWFC 03,W
04F44:  MOVWF  FEA
04F46:  MOVLW  01
04F48:  MOVWF  FEF
....................       for (kk=32;kk<94;kk++) { 
04F4A:  MOVLW  20
04F4C:  MOVWF  x1B
04F4E:  MOVF   x1B,W
04F50:  SUBLW  5D
04F52:  BNC   5034
....................       if (bit_test(LGrupo[kk],3)){ // si pertenece al grupo 
04F54:  CLRF   03
04F56:  MOVF   x1B,W
04F58:  ADDLW  AA
04F5A:  MOVWF  FE9
04F5C:  MOVLW  00
04F5E:  ADDWFC 03,W
04F60:  MOVWF  FEA
04F62:  MOVFF  FEF,11C
04F66:  BTFSS  x1C.3
04F68:  BRA    5030
....................       if (IntLuz[kk] > 99){ // estaba prendido 
04F6A:  CLRF   03
04F6C:  MOVF   x1B,W
04F6E:  ADDLW  47
04F70:  MOVWF  FE9
04F72:  MOVLW  00
04F74:  ADDWFC 03,W
04F76:  MOVWF  FEA
04F78:  MOVF   FEF,W
04F7A:  SUBLW  63
04F7C:  BC    5030
....................          IntLuz[kk] = IntLuz[kk] - 100; // apago en el arreglo en RAM 
04F7E:  CLRF   03
04F80:  MOVF   x1B,W
04F82:  ADDLW  47
04F84:  MOVWF  01
04F86:  MOVLW  00
04F88:  ADDWFC 03,F
04F8A:  MOVFF  03,11D
04F8E:  CLRF   03
04F90:  MOVF   x1B,W
04F92:  ADDLW  47
04F94:  MOVWF  FE9
04F96:  MOVLW  00
04F98:  ADDWFC 03,W
04F9A:  MOVWF  FEA
04F9C:  MOVLW  64
04F9E:  SUBWF  FEF,W
04FA0:  MOVFF  11D,FEA
04FA4:  MOVFF  01,FE9
04FA8:  MOVWF  FEF
....................          write_eeprom(kk,IntLuz[kk]); // apago en el arreglo en ROM 
04FAA:  CLRF   03
04FAC:  MOVF   x1B,W
04FAE:  ADDLW  47
04FB0:  MOVWF  FE9
04FB2:  MOVLW  00
04FB4:  ADDWFC 03,W
04FB6:  MOVWF  FEA
04FB8:  MOVFF  FEF,11C
04FBC:  MOVF   FF2,W
04FBE:  MOVWF  00
04FC0:  BCF    FF2.7
04FC2:  CLRF   FAA
04FC4:  MOVFF  11B,FA9
04FC8:  MOVFF  11C,FA8
04FCC:  BCF    FA6.6
04FCE:  BCF    FA6.7
04FD0:  BSF    FA6.2
04FD2:  MOVLB  F
04FD4:  MOVLW  55
04FD6:  MOVWF  FA7
04FD8:  MOVLW  AA
04FDA:  MOVWF  FA7
04FDC:  BSF    FA6.1
04FDE:  BTFSC  FA6.1
04FE0:  BRA    4FDE
04FE2:  BCF    FA6.2
04FE4:  MOVF   00,W
04FE6:  IORWF  FF2,F
04FE8:  CLRF   19
04FEA:  BTFSC  FF2.7
04FEC:  BSF    19.7
04FEE:  BCF    FF2.7
....................          delay_ms(1); 
04FF0:  MOVLW  01
04FF2:  MOVLB  1
04FF4:  MOVWF  x37
04FF6:  MOVLB  0
04FF8:  CALL   0D76
04FFC:  BTFSC  19.7
04FFE:  BSF    FF2.7
....................          printf("%c%c%c%c", 250, kk, 80, kk+80); // Apagamos  en la red 
05000:  MOVLW  50
05002:  MOVLB  1
05004:  ADDWF  x1B,W
05006:  MOVWF  x1C
05008:  MOVLW  FA
0500A:  MOVWF  x1D
0500C:  MOVLB  0
0500E:  CALL   23EA
05012:  MOVFF  11B,11D
05016:  CALL   23EA
0501A:  MOVLW  50
0501C:  MOVLB  1
0501E:  MOVWF  x1D
05020:  MOVLB  0
05022:  CALL   23EA
05026:  MOVFF  11C,11D
0502A:  CALL   23EA
0502E:  MOVLB  1
....................       } // si estaba prendido.. 
....................       } // si pertenece al grupo 
05030:  INCF   x1B,F
05032:  BRA    4F4E
....................       } // for... 
....................       } // si incierto o prendido 
....................       if (ON[submenu] == 1) { // apagado 
05034:  CLRF   03
05036:  MOVF   x11,W
05038:  ADDLW  13
0503A:  MOVWF  FE9
0503C:  MOVLW  01
0503E:  ADDWFC 03,W
05040:  MOVWF  FEA
05042:  DECFSZ FEF,W
05044:  BRA    5142
....................       ON[submenu] = 10; // De apagado --> a prendido 
05046:  CLRF   03
05048:  MOVF   x11,W
0504A:  ADDLW  13
0504C:  MOVWF  FE9
0504E:  MOVLW  01
05050:  ADDWFC 03,W
05052:  MOVWF  FEA
05054:  MOVLW  0A
05056:  MOVWF  FEF
....................       for (kk=32;kk<94;kk++) { 
05058:  MOVLW  20
0505A:  MOVWF  x1B
0505C:  MOVF   x1B,W
0505E:  SUBLW  5D
05060:  BNC   5142
....................       if (bit_test(LGrupo[kk],3)){ // si pertenece al grupo 
05062:  CLRF   03
05064:  MOVF   x1B,W
05066:  ADDLW  AA
05068:  MOVWF  FE9
0506A:  MOVLW  00
0506C:  ADDWFC 03,W
0506E:  MOVWF  FEA
05070:  MOVFF  FEF,11C
05074:  BTFSS  x1C.3
05076:  BRA    513E
....................       if (IntLuz[kk] < 99){ // estaba apagado 
05078:  CLRF   03
0507A:  MOVF   x1B,W
0507C:  ADDLW  47
0507E:  MOVWF  FE9
05080:  MOVLW  00
05082:  ADDWFC 03,W
05084:  MOVWF  FEA
05086:  MOVF   FEF,W
05088:  SUBLW  62
0508A:  BNC   513E
....................          IntLuz[kk] = IntLuz[kk] + 100; // prendo en el arreglo 
0508C:  CLRF   03
0508E:  MOVF   x1B,W
05090:  ADDLW  47
05092:  MOVWF  01
05094:  MOVLW  00
05096:  ADDWFC 03,F
05098:  MOVFF  03,11D
0509C:  CLRF   03
0509E:  MOVF   x1B,W
050A0:  ADDLW  47
050A2:  MOVWF  FE9
050A4:  MOVLW  00
050A6:  ADDWFC 03,W
050A8:  MOVWF  FEA
050AA:  MOVLW  64
050AC:  ADDWF  FEF,W
050AE:  MOVFF  11D,FEA
050B2:  MOVFF  01,FE9
050B6:  MOVWF  FEF
....................          write_eeprom(kk,IntLuz[kk]); 
050B8:  CLRF   03
050BA:  MOVF   x1B,W
050BC:  ADDLW  47
050BE:  MOVWF  FE9
050C0:  MOVLW  00
050C2:  ADDWFC 03,W
050C4:  MOVWF  FEA
050C6:  MOVFF  FEF,11C
050CA:  MOVF   FF2,W
050CC:  MOVWF  00
050CE:  BCF    FF2.7
050D0:  CLRF   FAA
050D2:  MOVFF  11B,FA9
050D6:  MOVFF  11C,FA8
050DA:  BCF    FA6.6
050DC:  BCF    FA6.7
050DE:  BSF    FA6.2
050E0:  MOVLB  F
050E2:  MOVLW  55
050E4:  MOVWF  FA7
050E6:  MOVLW  AA
050E8:  MOVWF  FA7
050EA:  BSF    FA6.1
050EC:  BTFSC  FA6.1
050EE:  BRA    50EC
050F0:  BCF    FA6.2
050F2:  MOVF   00,W
050F4:  IORWF  FF2,F
050F6:  CLRF   19
050F8:  BTFSC  FF2.7
050FA:  BSF    19.7
050FC:  BCF    FF2.7
....................          delay_ms(1); 
050FE:  MOVLW  01
05100:  MOVLB  1
05102:  MOVWF  x37
05104:  MOVLB  0
05106:  CALL   0D76
0510A:  BTFSC  19.7
0510C:  BSF    FF2.7
....................          printf("%c%c%c%c", 250, kk, 90, kk+90); // Prendemos  en la red 
0510E:  MOVLW  5A
05110:  MOVLB  1
05112:  ADDWF  x1B,W
05114:  MOVWF  x1C
05116:  MOVLW  FA
05118:  MOVWF  x1D
0511A:  MOVLB  0
0511C:  CALL   23EA
05120:  MOVFF  11B,11D
05124:  CALL   23EA
05128:  MOVLW  5A
0512A:  MOVLB  1
0512C:  MOVWF  x1D
0512E:  MOVLB  0
05130:  CALL   23EA
05134:  MOVFF  11C,11D
05138:  CALL   23EA
0513C:  MOVLB  1
....................       } // si estaba apagado.. 
....................       } // si pertenece al grupo 
0513E:  INCF   x1B,F
05140:  BRA    505C
....................       } // for... 
....................       } // si apagado 
....................    break; 
05142:  GOTO   5A20
....................     
....................    case 5: // FRENTE // bit 4 de LGrupo 
....................       if ((ON[submenu] == 0) || (ON[submenu] == 10)){ // incierto o prendido 
05146:  CLRF   03
05148:  MOVLB  1
0514A:  MOVF   x11,W
0514C:  ADDLW  13
0514E:  MOVWF  FE9
05150:  MOVLW  01
05152:  ADDWFC 03,W
05154:  MOVWF  FEA
05156:  MOVF   FEF,F
05158:  BZ    5170
0515A:  CLRF   03
0515C:  MOVF   x11,W
0515E:  ADDLW  13
05160:  MOVWF  FE9
05162:  MOVLW  01
05164:  ADDWFC 03,W
05166:  MOVWF  FEA
05168:  MOVF   FEF,W
0516A:  SUBLW  0A
0516C:  BTFSS  FD8.2
0516E:  BRA    526C
....................       ON[submenu] = 1; // De incierto o prendido --> a apagado 
05170:  CLRF   03
05172:  MOVF   x11,W
05174:  ADDLW  13
05176:  MOVWF  FE9
05178:  MOVLW  01
0517A:  ADDWFC 03,W
0517C:  MOVWF  FEA
0517E:  MOVLW  01
05180:  MOVWF  FEF
....................       for (kk=32;kk<94;kk++) { 
05182:  MOVLW  20
05184:  MOVWF  x1B
05186:  MOVF   x1B,W
05188:  SUBLW  5D
0518A:  BNC   526C
....................       if (bit_test(LGrupo[kk],4)){ // si pertenece al grupo 
0518C:  CLRF   03
0518E:  MOVF   x1B,W
05190:  ADDLW  AA
05192:  MOVWF  FE9
05194:  MOVLW  00
05196:  ADDWFC 03,W
05198:  MOVWF  FEA
0519A:  MOVFF  FEF,11C
0519E:  BTFSS  x1C.4
051A0:  BRA    5268
....................       if (IntLuz[kk] > 99){ // estaba prendido 
051A2:  CLRF   03
051A4:  MOVF   x1B,W
051A6:  ADDLW  47
051A8:  MOVWF  FE9
051AA:  MOVLW  00
051AC:  ADDWFC 03,W
051AE:  MOVWF  FEA
051B0:  MOVF   FEF,W
051B2:  SUBLW  63
051B4:  BC    5268
....................          IntLuz[kk] = IntLuz[kk] - 100; // apago en el arreglo en RAM 
051B6:  CLRF   03
051B8:  MOVF   x1B,W
051BA:  ADDLW  47
051BC:  MOVWF  01
051BE:  MOVLW  00
051C0:  ADDWFC 03,F
051C2:  MOVFF  03,11D
051C6:  CLRF   03
051C8:  MOVF   x1B,W
051CA:  ADDLW  47
051CC:  MOVWF  FE9
051CE:  MOVLW  00
051D0:  ADDWFC 03,W
051D2:  MOVWF  FEA
051D4:  MOVLW  64
051D6:  SUBWF  FEF,W
051D8:  MOVFF  11D,FEA
051DC:  MOVFF  01,FE9
051E0:  MOVWF  FEF
....................          write_eeprom(kk,IntLuz[kk]); // apago en el arreglo en ROM 
051E2:  CLRF   03
051E4:  MOVF   x1B,W
051E6:  ADDLW  47
051E8:  MOVWF  FE9
051EA:  MOVLW  00
051EC:  ADDWFC 03,W
051EE:  MOVWF  FEA
051F0:  MOVFF  FEF,11C
051F4:  MOVF   FF2,W
051F6:  MOVWF  00
051F8:  BCF    FF2.7
051FA:  CLRF   FAA
051FC:  MOVFF  11B,FA9
05200:  MOVFF  11C,FA8
05204:  BCF    FA6.6
05206:  BCF    FA6.7
05208:  BSF    FA6.2
0520A:  MOVLB  F
0520C:  MOVLW  55
0520E:  MOVWF  FA7
05210:  MOVLW  AA
05212:  MOVWF  FA7
05214:  BSF    FA6.1
05216:  BTFSC  FA6.1
05218:  BRA    5216
0521A:  BCF    FA6.2
0521C:  MOVF   00,W
0521E:  IORWF  FF2,F
05220:  CLRF   19
05222:  BTFSC  FF2.7
05224:  BSF    19.7
05226:  BCF    FF2.7
....................          delay_ms(1); 
05228:  MOVLW  01
0522A:  MOVLB  1
0522C:  MOVWF  x37
0522E:  MOVLB  0
05230:  CALL   0D76
05234:  BTFSC  19.7
05236:  BSF    FF2.7
....................          printf("%c%c%c%c", 250, kk, 80, kk+80); // Apagamos  en la red 
05238:  MOVLW  50
0523A:  MOVLB  1
0523C:  ADDWF  x1B,W
0523E:  MOVWF  x1C
05240:  MOVLW  FA
05242:  MOVWF  x1D
05244:  MOVLB  0
05246:  CALL   23EA
0524A:  MOVFF  11B,11D
0524E:  CALL   23EA
05252:  MOVLW  50
05254:  MOVLB  1
05256:  MOVWF  x1D
05258:  MOVLB  0
0525A:  CALL   23EA
0525E:  MOVFF  11C,11D
05262:  CALL   23EA
05266:  MOVLB  1
....................       } // si estaba prendido.. 
....................       } // si pertenece al grupo 
05268:  INCF   x1B,F
0526A:  BRA    5186
....................       } // for... 
....................       } // si incierto o prendido 
....................       if (ON[submenu] == 1) { // apagado 
0526C:  CLRF   03
0526E:  MOVF   x11,W
05270:  ADDLW  13
05272:  MOVWF  FE9
05274:  MOVLW  01
05276:  ADDWFC 03,W
05278:  MOVWF  FEA
0527A:  DECFSZ FEF,W
0527C:  BRA    537A
....................       ON[submenu] = 10; // De apagado --> a prendido 
0527E:  CLRF   03
05280:  MOVF   x11,W
05282:  ADDLW  13
05284:  MOVWF  FE9
05286:  MOVLW  01
05288:  ADDWFC 03,W
0528A:  MOVWF  FEA
0528C:  MOVLW  0A
0528E:  MOVWF  FEF
....................       for (kk=32;kk<94;kk++) { 
05290:  MOVLW  20
05292:  MOVWF  x1B
05294:  MOVF   x1B,W
05296:  SUBLW  5D
05298:  BNC   537A
....................       if (bit_test(LGrupo[kk],4)){ // si pertenece al grupo 
0529A:  CLRF   03
0529C:  MOVF   x1B,W
0529E:  ADDLW  AA
052A0:  MOVWF  FE9
052A2:  MOVLW  00
052A4:  ADDWFC 03,W
052A6:  MOVWF  FEA
052A8:  MOVFF  FEF,11C
052AC:  BTFSS  x1C.4
052AE:  BRA    5376
....................       if (IntLuz[kk] < 99){ // estaba apagado 
052B0:  CLRF   03
052B2:  MOVF   x1B,W
052B4:  ADDLW  47
052B6:  MOVWF  FE9
052B8:  MOVLW  00
052BA:  ADDWFC 03,W
052BC:  MOVWF  FEA
052BE:  MOVF   FEF,W
052C0:  SUBLW  62
052C2:  BNC   5376
....................          IntLuz[kk] = IntLuz[kk] + 100; // prendo en el arreglo 
052C4:  CLRF   03
052C6:  MOVF   x1B,W
052C8:  ADDLW  47
052CA:  MOVWF  01
052CC:  MOVLW  00
052CE:  ADDWFC 03,F
052D0:  MOVFF  03,11D
052D4:  CLRF   03
052D6:  MOVF   x1B,W
052D8:  ADDLW  47
052DA:  MOVWF  FE9
052DC:  MOVLW  00
052DE:  ADDWFC 03,W
052E0:  MOVWF  FEA
052E2:  MOVLW  64
052E4:  ADDWF  FEF,W
052E6:  MOVFF  11D,FEA
052EA:  MOVFF  01,FE9
052EE:  MOVWF  FEF
....................          write_eeprom(kk,IntLuz[kk]); 
052F0:  CLRF   03
052F2:  MOVF   x1B,W
052F4:  ADDLW  47
052F6:  MOVWF  FE9
052F8:  MOVLW  00
052FA:  ADDWFC 03,W
052FC:  MOVWF  FEA
052FE:  MOVFF  FEF,11C
05302:  MOVF   FF2,W
05304:  MOVWF  00
05306:  BCF    FF2.7
05308:  CLRF   FAA
0530A:  MOVFF  11B,FA9
0530E:  MOVFF  11C,FA8
05312:  BCF    FA6.6
05314:  BCF    FA6.7
05316:  BSF    FA6.2
05318:  MOVLB  F
0531A:  MOVLW  55
0531C:  MOVWF  FA7
0531E:  MOVLW  AA
05320:  MOVWF  FA7
05322:  BSF    FA6.1
05324:  BTFSC  FA6.1
05326:  BRA    5324
05328:  BCF    FA6.2
0532A:  MOVF   00,W
0532C:  IORWF  FF2,F
0532E:  CLRF   19
05330:  BTFSC  FF2.7
05332:  BSF    19.7
05334:  BCF    FF2.7
....................          delay_ms(1); 
05336:  MOVLW  01
05338:  MOVLB  1
0533A:  MOVWF  x37
0533C:  MOVLB  0
0533E:  CALL   0D76
05342:  BTFSC  19.7
05344:  BSF    FF2.7
....................          printf("%c%c%c%c", 250, kk, 90, kk+90); // Prendemos  en la red 
05346:  MOVLW  5A
05348:  MOVLB  1
0534A:  ADDWF  x1B,W
0534C:  MOVWF  x1C
0534E:  MOVLW  FA
05350:  MOVWF  x1D
05352:  MOVLB  0
05354:  CALL   23EA
05358:  MOVFF  11B,11D
0535C:  CALL   23EA
05360:  MOVLW  5A
05362:  MOVLB  1
05364:  MOVWF  x1D
05366:  MOVLB  0
05368:  CALL   23EA
0536C:  MOVFF  11C,11D
05370:  CALL   23EA
05374:  MOVLB  1
....................       } // si estaba apagado.. 
....................       } // si pertenece al grupo 
05376:  INCF   x1B,F
05378:  BRA    5294
....................       } // for... 
....................       } // si apagado 
....................    break; 
0537A:  BRA    5A20
....................     
....................    case 6: // PASILLOS // bit 5 de LGrupo 
....................       if ((ON[submenu] == 0) || (ON[submenu] == 10)){ // incierto o prendido 
0537C:  CLRF   03
0537E:  MOVLB  1
05380:  MOVF   x11,W
05382:  ADDLW  13
05384:  MOVWF  FE9
05386:  MOVLW  01
05388:  ADDWFC 03,W
0538A:  MOVWF  FEA
0538C:  MOVF   FEF,F
0538E:  BZ    53A6
05390:  CLRF   03
05392:  MOVF   x11,W
05394:  ADDLW  13
05396:  MOVWF  FE9
05398:  MOVLW  01
0539A:  ADDWFC 03,W
0539C:  MOVWF  FEA
0539E:  MOVF   FEF,W
053A0:  SUBLW  0A
053A2:  BTFSS  FD8.2
053A4:  BRA    54A2
....................       ON[submenu] = 1; // De incierto o prendido --> a apagado 
053A6:  CLRF   03
053A8:  MOVF   x11,W
053AA:  ADDLW  13
053AC:  MOVWF  FE9
053AE:  MOVLW  01
053B0:  ADDWFC 03,W
053B2:  MOVWF  FEA
053B4:  MOVLW  01
053B6:  MOVWF  FEF
....................       for (kk=32;kk<94;kk++) { 
053B8:  MOVLW  20
053BA:  MOVWF  x1B
053BC:  MOVF   x1B,W
053BE:  SUBLW  5D
053C0:  BNC   54A2
....................       if (bit_test(LGrupo[kk],5)){ // si pertenece al grupo 
053C2:  CLRF   03
053C4:  MOVF   x1B,W
053C6:  ADDLW  AA
053C8:  MOVWF  FE9
053CA:  MOVLW  00
053CC:  ADDWFC 03,W
053CE:  MOVWF  FEA
053D0:  MOVFF  FEF,11C
053D4:  BTFSS  x1C.5
053D6:  BRA    549E
....................       if (IntLuz[kk] > 99){ // estaba prendido 
053D8:  CLRF   03
053DA:  MOVF   x1B,W
053DC:  ADDLW  47
053DE:  MOVWF  FE9
053E0:  MOVLW  00
053E2:  ADDWFC 03,W
053E4:  MOVWF  FEA
053E6:  MOVF   FEF,W
053E8:  SUBLW  63
053EA:  BC    549E
....................          IntLuz[kk] = IntLuz[kk] - 100; // apago en el arreglo en RAM 
053EC:  CLRF   03
053EE:  MOVF   x1B,W
053F0:  ADDLW  47
053F2:  MOVWF  01
053F4:  MOVLW  00
053F6:  ADDWFC 03,F
053F8:  MOVFF  03,11D
053FC:  CLRF   03
053FE:  MOVF   x1B,W
05400:  ADDLW  47
05402:  MOVWF  FE9
05404:  MOVLW  00
05406:  ADDWFC 03,W
05408:  MOVWF  FEA
0540A:  MOVLW  64
0540C:  SUBWF  FEF,W
0540E:  MOVFF  11D,FEA
05412:  MOVFF  01,FE9
05416:  MOVWF  FEF
....................          write_eeprom(kk,IntLuz[kk]); // apago en el arreglo en ROM 
05418:  CLRF   03
0541A:  MOVF   x1B,W
0541C:  ADDLW  47
0541E:  MOVWF  FE9
05420:  MOVLW  00
05422:  ADDWFC 03,W
05424:  MOVWF  FEA
05426:  MOVFF  FEF,11C
0542A:  MOVF   FF2,W
0542C:  MOVWF  00
0542E:  BCF    FF2.7
05430:  CLRF   FAA
05432:  MOVFF  11B,FA9
05436:  MOVFF  11C,FA8
0543A:  BCF    FA6.6
0543C:  BCF    FA6.7
0543E:  BSF    FA6.2
05440:  MOVLB  F
05442:  MOVLW  55
05444:  MOVWF  FA7
05446:  MOVLW  AA
05448:  MOVWF  FA7
0544A:  BSF    FA6.1
0544C:  BTFSC  FA6.1
0544E:  BRA    544C
05450:  BCF    FA6.2
05452:  MOVF   00,W
05454:  IORWF  FF2,F
05456:  CLRF   19
05458:  BTFSC  FF2.7
0545A:  BSF    19.7
0545C:  BCF    FF2.7
....................          delay_ms(1); 
0545E:  MOVLW  01
05460:  MOVLB  1
05462:  MOVWF  x37
05464:  MOVLB  0
05466:  CALL   0D76
0546A:  BTFSC  19.7
0546C:  BSF    FF2.7
....................          printf("%c%c%c%c", 250, kk, 80, kk+80); // Apagamos  en la red 
0546E:  MOVLW  50
05470:  MOVLB  1
05472:  ADDWF  x1B,W
05474:  MOVWF  x1C
05476:  MOVLW  FA
05478:  MOVWF  x1D
0547A:  MOVLB  0
0547C:  CALL   23EA
05480:  MOVFF  11B,11D
05484:  CALL   23EA
05488:  MOVLW  50
0548A:  MOVLB  1
0548C:  MOVWF  x1D
0548E:  MOVLB  0
05490:  CALL   23EA
05494:  MOVFF  11C,11D
05498:  CALL   23EA
0549C:  MOVLB  1
....................       } // si estaba prendido.. 
....................       } // si pertenece al grupo 
0549E:  INCF   x1B,F
054A0:  BRA    53BC
....................       } // for... 
....................       } // si incierto o prendido 
....................       if (ON[submenu] == 1) { // apagado 
054A2:  CLRF   03
054A4:  MOVF   x11,W
054A6:  ADDLW  13
054A8:  MOVWF  FE9
054AA:  MOVLW  01
054AC:  ADDWFC 03,W
054AE:  MOVWF  FEA
054B0:  DECFSZ FEF,W
054B2:  BRA    55B0
....................       ON[submenu] = 10; // De apagado --> a prendido 
054B4:  CLRF   03
054B6:  MOVF   x11,W
054B8:  ADDLW  13
054BA:  MOVWF  FE9
054BC:  MOVLW  01
054BE:  ADDWFC 03,W
054C0:  MOVWF  FEA
054C2:  MOVLW  0A
054C4:  MOVWF  FEF
....................       for (kk=32;kk<94;kk++) { 
054C6:  MOVLW  20
054C8:  MOVWF  x1B
054CA:  MOVF   x1B,W
054CC:  SUBLW  5D
054CE:  BNC   55B0
....................       if (bit_test(LGrupo[kk],5)){ // si pertenece al grupo 
054D0:  CLRF   03
054D2:  MOVF   x1B,W
054D4:  ADDLW  AA
054D6:  MOVWF  FE9
054D8:  MOVLW  00
054DA:  ADDWFC 03,W
054DC:  MOVWF  FEA
054DE:  MOVFF  FEF,11C
054E2:  BTFSS  x1C.5
054E4:  BRA    55AC
....................       if (IntLuz[kk] < 99){ // estaba apagado 
054E6:  CLRF   03
054E8:  MOVF   x1B,W
054EA:  ADDLW  47
054EC:  MOVWF  FE9
054EE:  MOVLW  00
054F0:  ADDWFC 03,W
054F2:  MOVWF  FEA
054F4:  MOVF   FEF,W
054F6:  SUBLW  62
054F8:  BNC   55AC
....................          IntLuz[kk] = IntLuz[kk] + 100; // prendo en el arreglo 
054FA:  CLRF   03
054FC:  MOVF   x1B,W
054FE:  ADDLW  47
05500:  MOVWF  01
05502:  MOVLW  00
05504:  ADDWFC 03,F
05506:  MOVFF  03,11D
0550A:  CLRF   03
0550C:  MOVF   x1B,W
0550E:  ADDLW  47
05510:  MOVWF  FE9
05512:  MOVLW  00
05514:  ADDWFC 03,W
05516:  MOVWF  FEA
05518:  MOVLW  64
0551A:  ADDWF  FEF,W
0551C:  MOVFF  11D,FEA
05520:  MOVFF  01,FE9
05524:  MOVWF  FEF
....................          write_eeprom(kk,IntLuz[kk]); 
05526:  CLRF   03
05528:  MOVF   x1B,W
0552A:  ADDLW  47
0552C:  MOVWF  FE9
0552E:  MOVLW  00
05530:  ADDWFC 03,W
05532:  MOVWF  FEA
05534:  MOVFF  FEF,11C
05538:  MOVF   FF2,W
0553A:  MOVWF  00
0553C:  BCF    FF2.7
0553E:  CLRF   FAA
05540:  MOVFF  11B,FA9
05544:  MOVFF  11C,FA8
05548:  BCF    FA6.6
0554A:  BCF    FA6.7
0554C:  BSF    FA6.2
0554E:  MOVLB  F
05550:  MOVLW  55
05552:  MOVWF  FA7
05554:  MOVLW  AA
05556:  MOVWF  FA7
05558:  BSF    FA6.1
0555A:  BTFSC  FA6.1
0555C:  BRA    555A
0555E:  BCF    FA6.2
05560:  MOVF   00,W
05562:  IORWF  FF2,F
05564:  CLRF   19
05566:  BTFSC  FF2.7
05568:  BSF    19.7
0556A:  BCF    FF2.7
....................          delay_ms(1); 
0556C:  MOVLW  01
0556E:  MOVLB  1
05570:  MOVWF  x37
05572:  MOVLB  0
05574:  CALL   0D76
05578:  BTFSC  19.7
0557A:  BSF    FF2.7
....................          printf("%c%c%c%c", 250, kk, 90, kk+90); // Prendemos  en la red 
0557C:  MOVLW  5A
0557E:  MOVLB  1
05580:  ADDWF  x1B,W
05582:  MOVWF  x1C
05584:  MOVLW  FA
05586:  MOVWF  x1D
05588:  MOVLB  0
0558A:  CALL   23EA
0558E:  MOVFF  11B,11D
05592:  CALL   23EA
05596:  MOVLW  5A
05598:  MOVLB  1
0559A:  MOVWF  x1D
0559C:  MOVLB  0
0559E:  CALL   23EA
055A2:  MOVFF  11C,11D
055A6:  CALL   23EA
055AA:  MOVLB  1
....................       } // si estaba apagado.. 
....................       } // si pertenece al grupo 
055AC:  INCF   x1B,F
055AE:  BRA    54CA
....................       } // for... 
....................       } // si apagado 
....................    break; 
055B0:  BRA    5A20
....................     
....................    case 7: // AUTOMATICO1 // bit 6 de LGrupo 
....................       if ((ON[submenu] == 0) || (ON[submenu] == 10)){ // incierto o prendido 
055B2:  CLRF   03
055B4:  MOVLB  1
055B6:  MOVF   x11,W
055B8:  ADDLW  13
055BA:  MOVWF  FE9
055BC:  MOVLW  01
055BE:  ADDWFC 03,W
055C0:  MOVWF  FEA
055C2:  MOVF   FEF,F
055C4:  BZ    55DC
055C6:  CLRF   03
055C8:  MOVF   x11,W
055CA:  ADDLW  13
055CC:  MOVWF  FE9
055CE:  MOVLW  01
055D0:  ADDWFC 03,W
055D2:  MOVWF  FEA
055D4:  MOVF   FEF,W
055D6:  SUBLW  0A
055D8:  BTFSS  FD8.2
055DA:  BRA    56D8
....................       ON[submenu] = 1; // De incierto o prendido --> a apagado 
055DC:  CLRF   03
055DE:  MOVF   x11,W
055E0:  ADDLW  13
055E2:  MOVWF  FE9
055E4:  MOVLW  01
055E6:  ADDWFC 03,W
055E8:  MOVWF  FEA
055EA:  MOVLW  01
055EC:  MOVWF  FEF
....................       for (kk=32;kk<94;kk++) { 
055EE:  MOVLW  20
055F0:  MOVWF  x1B
055F2:  MOVF   x1B,W
055F4:  SUBLW  5D
055F6:  BNC   56D8
....................       if (bit_test(LGrupo[kk],6)){ // si pertenece al grupo 
055F8:  CLRF   03
055FA:  MOVF   x1B,W
055FC:  ADDLW  AA
055FE:  MOVWF  FE9
05600:  MOVLW  00
05602:  ADDWFC 03,W
05604:  MOVWF  FEA
05606:  MOVFF  FEF,11C
0560A:  BTFSS  x1C.6
0560C:  BRA    56D4
....................       if (IntLuz[kk] > 99){ // estaba prendido 
0560E:  CLRF   03
05610:  MOVF   x1B,W
05612:  ADDLW  47
05614:  MOVWF  FE9
05616:  MOVLW  00
05618:  ADDWFC 03,W
0561A:  MOVWF  FEA
0561C:  MOVF   FEF,W
0561E:  SUBLW  63
05620:  BC    56D4
....................          IntLuz[kk] = IntLuz[kk] - 100; // apago en el arreglo en RAM 
05622:  CLRF   03
05624:  MOVF   x1B,W
05626:  ADDLW  47
05628:  MOVWF  01
0562A:  MOVLW  00
0562C:  ADDWFC 03,F
0562E:  MOVFF  03,11D
05632:  CLRF   03
05634:  MOVF   x1B,W
05636:  ADDLW  47
05638:  MOVWF  FE9
0563A:  MOVLW  00
0563C:  ADDWFC 03,W
0563E:  MOVWF  FEA
05640:  MOVLW  64
05642:  SUBWF  FEF,W
05644:  MOVFF  11D,FEA
05648:  MOVFF  01,FE9
0564C:  MOVWF  FEF
....................          write_eeprom(kk,IntLuz[kk]); // apago en el arreglo en ROM 
0564E:  CLRF   03
05650:  MOVF   x1B,W
05652:  ADDLW  47
05654:  MOVWF  FE9
05656:  MOVLW  00
05658:  ADDWFC 03,W
0565A:  MOVWF  FEA
0565C:  MOVFF  FEF,11C
05660:  MOVF   FF2,W
05662:  MOVWF  00
05664:  BCF    FF2.7
05666:  CLRF   FAA
05668:  MOVFF  11B,FA9
0566C:  MOVFF  11C,FA8
05670:  BCF    FA6.6
05672:  BCF    FA6.7
05674:  BSF    FA6.2
05676:  MOVLB  F
05678:  MOVLW  55
0567A:  MOVWF  FA7
0567C:  MOVLW  AA
0567E:  MOVWF  FA7
05680:  BSF    FA6.1
05682:  BTFSC  FA6.1
05684:  BRA    5682
05686:  BCF    FA6.2
05688:  MOVF   00,W
0568A:  IORWF  FF2,F
0568C:  CLRF   19
0568E:  BTFSC  FF2.7
05690:  BSF    19.7
05692:  BCF    FF2.7
....................          delay_ms(1); 
05694:  MOVLW  01
05696:  MOVLB  1
05698:  MOVWF  x37
0569A:  MOVLB  0
0569C:  CALL   0D76
056A0:  BTFSC  19.7
056A2:  BSF    FF2.7
....................          printf("%c%c%c%c", 250, kk, 80, kk+80); // Apagamos  en la red 
056A4:  MOVLW  50
056A6:  MOVLB  1
056A8:  ADDWF  x1B,W
056AA:  MOVWF  x1C
056AC:  MOVLW  FA
056AE:  MOVWF  x1D
056B0:  MOVLB  0
056B2:  CALL   23EA
056B6:  MOVFF  11B,11D
056BA:  CALL   23EA
056BE:  MOVLW  50
056C0:  MOVLB  1
056C2:  MOVWF  x1D
056C4:  MOVLB  0
056C6:  CALL   23EA
056CA:  MOVFF  11C,11D
056CE:  CALL   23EA
056D2:  MOVLB  1
....................       } // si estaba prendido.. 
....................       } // si pertenece al grupo 
056D4:  INCF   x1B,F
056D6:  BRA    55F2
....................       } // for... 
....................       } // si incierto o prendido 
....................       if (ON[submenu] == 1) { // apagado 
056D8:  CLRF   03
056DA:  MOVF   x11,W
056DC:  ADDLW  13
056DE:  MOVWF  FE9
056E0:  MOVLW  01
056E2:  ADDWFC 03,W
056E4:  MOVWF  FEA
056E6:  DECFSZ FEF,W
056E8:  BRA    57E6
....................       ON[submenu] = 10; // De apagado --> a prendido 
056EA:  CLRF   03
056EC:  MOVF   x11,W
056EE:  ADDLW  13
056F0:  MOVWF  FE9
056F2:  MOVLW  01
056F4:  ADDWFC 03,W
056F6:  MOVWF  FEA
056F8:  MOVLW  0A
056FA:  MOVWF  FEF
....................       for (kk=32;kk<94;kk++) { 
056FC:  MOVLW  20
056FE:  MOVWF  x1B
05700:  MOVF   x1B,W
05702:  SUBLW  5D
05704:  BNC   57E6
....................       if (bit_test(LGrupo[kk],6)){ // si pertenece al grupo 
05706:  CLRF   03
05708:  MOVF   x1B,W
0570A:  ADDLW  AA
0570C:  MOVWF  FE9
0570E:  MOVLW  00
05710:  ADDWFC 03,W
05712:  MOVWF  FEA
05714:  MOVFF  FEF,11C
05718:  BTFSS  x1C.6
0571A:  BRA    57E2
....................       if (IntLuz[kk] < 99){ // estaba apagado 
0571C:  CLRF   03
0571E:  MOVF   x1B,W
05720:  ADDLW  47
05722:  MOVWF  FE9
05724:  MOVLW  00
05726:  ADDWFC 03,W
05728:  MOVWF  FEA
0572A:  MOVF   FEF,W
0572C:  SUBLW  62
0572E:  BNC   57E2
....................          IntLuz[kk] = IntLuz[kk] + 100; // prendo en el arreglo 
05730:  CLRF   03
05732:  MOVF   x1B,W
05734:  ADDLW  47
05736:  MOVWF  01
05738:  MOVLW  00
0573A:  ADDWFC 03,F
0573C:  MOVFF  03,11D
05740:  CLRF   03
05742:  MOVF   x1B,W
05744:  ADDLW  47
05746:  MOVWF  FE9
05748:  MOVLW  00
0574A:  ADDWFC 03,W
0574C:  MOVWF  FEA
0574E:  MOVLW  64
05750:  ADDWF  FEF,W
05752:  MOVFF  11D,FEA
05756:  MOVFF  01,FE9
0575A:  MOVWF  FEF
....................          write_eeprom(kk,IntLuz[kk]); 
0575C:  CLRF   03
0575E:  MOVF   x1B,W
05760:  ADDLW  47
05762:  MOVWF  FE9
05764:  MOVLW  00
05766:  ADDWFC 03,W
05768:  MOVWF  FEA
0576A:  MOVFF  FEF,11C
0576E:  MOVF   FF2,W
05770:  MOVWF  00
05772:  BCF    FF2.7
05774:  CLRF   FAA
05776:  MOVFF  11B,FA9
0577A:  MOVFF  11C,FA8
0577E:  BCF    FA6.6
05780:  BCF    FA6.7
05782:  BSF    FA6.2
05784:  MOVLB  F
05786:  MOVLW  55
05788:  MOVWF  FA7
0578A:  MOVLW  AA
0578C:  MOVWF  FA7
0578E:  BSF    FA6.1
05790:  BTFSC  FA6.1
05792:  BRA    5790
05794:  BCF    FA6.2
05796:  MOVF   00,W
05798:  IORWF  FF2,F
0579A:  CLRF   19
0579C:  BTFSC  FF2.7
0579E:  BSF    19.7
057A0:  BCF    FF2.7
....................          delay_ms(1); 
057A2:  MOVLW  01
057A4:  MOVLB  1
057A6:  MOVWF  x37
057A8:  MOVLB  0
057AA:  CALL   0D76
057AE:  BTFSC  19.7
057B0:  BSF    FF2.7
....................          printf("%c%c%c%c", 250, kk, 90, kk+90); // Prendemos  en la red 
057B2:  MOVLW  5A
057B4:  MOVLB  1
057B6:  ADDWF  x1B,W
057B8:  MOVWF  x1C
057BA:  MOVLW  FA
057BC:  MOVWF  x1D
057BE:  MOVLB  0
057C0:  CALL   23EA
057C4:  MOVFF  11B,11D
057C8:  CALL   23EA
057CC:  MOVLW  5A
057CE:  MOVLB  1
057D0:  MOVWF  x1D
057D2:  MOVLB  0
057D4:  CALL   23EA
057D8:  MOVFF  11C,11D
057DC:  CALL   23EA
057E0:  MOVLB  1
....................       } // si estaba apagado.. 
....................       } // si pertenece al grupo 
057E2:  INCF   x1B,F
057E4:  BRA    5700
....................       } // for... 
....................       } // si apagado 
....................    break; 
057E6:  BRA    5A20
....................        
....................    case 8: // AUTOMATICO2 // bit 7 de LGrupo 
....................       if ((ON[submenu] == 0) || (ON[submenu] == 10)){ // incierto o prendido 
057E8:  CLRF   03
057EA:  MOVLB  1
057EC:  MOVF   x11,W
057EE:  ADDLW  13
057F0:  MOVWF  FE9
057F2:  MOVLW  01
057F4:  ADDWFC 03,W
057F6:  MOVWF  FEA
057F8:  MOVF   FEF,F
057FA:  BZ    5812
057FC:  CLRF   03
057FE:  MOVF   x11,W
05800:  ADDLW  13
05802:  MOVWF  FE9
05804:  MOVLW  01
05806:  ADDWFC 03,W
05808:  MOVWF  FEA
0580A:  MOVF   FEF,W
0580C:  SUBLW  0A
0580E:  BTFSS  FD8.2
05810:  BRA    590E
....................       ON[submenu] = 1; // De incierto o prendido --> a apagado 
05812:  CLRF   03
05814:  MOVF   x11,W
05816:  ADDLW  13
05818:  MOVWF  FE9
0581A:  MOVLW  01
0581C:  ADDWFC 03,W
0581E:  MOVWF  FEA
05820:  MOVLW  01
05822:  MOVWF  FEF
....................       for (kk=32;kk<94;kk++) { 
05824:  MOVLW  20
05826:  MOVWF  x1B
05828:  MOVF   x1B,W
0582A:  SUBLW  5D
0582C:  BNC   590E
....................       if (bit_test(LGrupo[kk],7)){ // si pertenece al grupo 
0582E:  CLRF   03
05830:  MOVF   x1B,W
05832:  ADDLW  AA
05834:  MOVWF  FE9
05836:  MOVLW  00
05838:  ADDWFC 03,W
0583A:  MOVWF  FEA
0583C:  MOVFF  FEF,11C
05840:  BTFSS  x1C.7
05842:  BRA    590A
....................       if (IntLuz[kk] > 99){ // estaba prendido 
05844:  CLRF   03
05846:  MOVF   x1B,W
05848:  ADDLW  47
0584A:  MOVWF  FE9
0584C:  MOVLW  00
0584E:  ADDWFC 03,W
05850:  MOVWF  FEA
05852:  MOVF   FEF,W
05854:  SUBLW  63
05856:  BC    590A
....................          IntLuz[kk] = IntLuz[kk] - 100; // apago en el arreglo en RAM 
05858:  CLRF   03
0585A:  MOVF   x1B,W
0585C:  ADDLW  47
0585E:  MOVWF  01
05860:  MOVLW  00
05862:  ADDWFC 03,F
05864:  MOVFF  03,11D
05868:  CLRF   03
0586A:  MOVF   x1B,W
0586C:  ADDLW  47
0586E:  MOVWF  FE9
05870:  MOVLW  00
05872:  ADDWFC 03,W
05874:  MOVWF  FEA
05876:  MOVLW  64
05878:  SUBWF  FEF,W
0587A:  MOVFF  11D,FEA
0587E:  MOVFF  01,FE9
05882:  MOVWF  FEF
....................          write_eeprom(kk,IntLuz[kk]); // apago en el arreglo en ROM 
05884:  CLRF   03
05886:  MOVF   x1B,W
05888:  ADDLW  47
0588A:  MOVWF  FE9
0588C:  MOVLW  00
0588E:  ADDWFC 03,W
05890:  MOVWF  FEA
05892:  MOVFF  FEF,11C
05896:  MOVF   FF2,W
05898:  MOVWF  00
0589A:  BCF    FF2.7
0589C:  CLRF   FAA
0589E:  MOVFF  11B,FA9
058A2:  MOVFF  11C,FA8
058A6:  BCF    FA6.6
058A8:  BCF    FA6.7
058AA:  BSF    FA6.2
058AC:  MOVLB  F
058AE:  MOVLW  55
058B0:  MOVWF  FA7
058B2:  MOVLW  AA
058B4:  MOVWF  FA7
058B6:  BSF    FA6.1
058B8:  BTFSC  FA6.1
058BA:  BRA    58B8
058BC:  BCF    FA6.2
058BE:  MOVF   00,W
058C0:  IORWF  FF2,F
058C2:  CLRF   19
058C4:  BTFSC  FF2.7
058C6:  BSF    19.7
058C8:  BCF    FF2.7
....................          delay_ms(1); 
058CA:  MOVLW  01
058CC:  MOVLB  1
058CE:  MOVWF  x37
058D0:  MOVLB  0
058D2:  CALL   0D76
058D6:  BTFSC  19.7
058D8:  BSF    FF2.7
....................          printf("%c%c%c%c", 250, kk, 80, kk+80); // Apagamos  en la red 
058DA:  MOVLW  50
058DC:  MOVLB  1
058DE:  ADDWF  x1B,W
058E0:  MOVWF  x1C
058E2:  MOVLW  FA
058E4:  MOVWF  x1D
058E6:  MOVLB  0
058E8:  CALL   23EA
058EC:  MOVFF  11B,11D
058F0:  CALL   23EA
058F4:  MOVLW  50
058F6:  MOVLB  1
058F8:  MOVWF  x1D
058FA:  MOVLB  0
058FC:  CALL   23EA
05900:  MOVFF  11C,11D
05904:  CALL   23EA
05908:  MOVLB  1
....................       } // si estaba prendido.. 
....................       } // si pertenece al grupo 
0590A:  INCF   x1B,F
0590C:  BRA    5828
....................       } // for... 
....................       } // si incierto o prendido 
....................       if (ON[submenu] == 1) { // apagado 
0590E:  CLRF   03
05910:  MOVF   x11,W
05912:  ADDLW  13
05914:  MOVWF  FE9
05916:  MOVLW  01
05918:  ADDWFC 03,W
0591A:  MOVWF  FEA
0591C:  DECFSZ FEF,W
0591E:  BRA    5A1C
....................       ON[submenu] = 10; // De apagado --> a prendido 
05920:  CLRF   03
05922:  MOVF   x11,W
05924:  ADDLW  13
05926:  MOVWF  FE9
05928:  MOVLW  01
0592A:  ADDWFC 03,W
0592C:  MOVWF  FEA
0592E:  MOVLW  0A
05930:  MOVWF  FEF
....................       for (kk=32;kk<94;kk++) { 
05932:  MOVLW  20
05934:  MOVWF  x1B
05936:  MOVF   x1B,W
05938:  SUBLW  5D
0593A:  BNC   5A1C
....................       if (bit_test(LGrupo[kk],7)){ // si pertenece al grupo 
0593C:  CLRF   03
0593E:  MOVF   x1B,W
05940:  ADDLW  AA
05942:  MOVWF  FE9
05944:  MOVLW  00
05946:  ADDWFC 03,W
05948:  MOVWF  FEA
0594A:  MOVFF  FEF,11C
0594E:  BTFSS  x1C.7
05950:  BRA    5A18
....................       if (IntLuz[kk] < 99){ // estaba apagado 
05952:  CLRF   03
05954:  MOVF   x1B,W
05956:  ADDLW  47
05958:  MOVWF  FE9
0595A:  MOVLW  00
0595C:  ADDWFC 03,W
0595E:  MOVWF  FEA
05960:  MOVF   FEF,W
05962:  SUBLW  62
05964:  BNC   5A18
....................          IntLuz[kk] = IntLuz[kk] + 100; // prendo en el arreglo 
05966:  CLRF   03
05968:  MOVF   x1B,W
0596A:  ADDLW  47
0596C:  MOVWF  01
0596E:  MOVLW  00
05970:  ADDWFC 03,F
05972:  MOVFF  03,11D
05976:  CLRF   03
05978:  MOVF   x1B,W
0597A:  ADDLW  47
0597C:  MOVWF  FE9
0597E:  MOVLW  00
05980:  ADDWFC 03,W
05982:  MOVWF  FEA
05984:  MOVLW  64
05986:  ADDWF  FEF,W
05988:  MOVFF  11D,FEA
0598C:  MOVFF  01,FE9
05990:  MOVWF  FEF
....................          write_eeprom(kk,IntLuz[kk]); 
05992:  CLRF   03
05994:  MOVF   x1B,W
05996:  ADDLW  47
05998:  MOVWF  FE9
0599A:  MOVLW  00
0599C:  ADDWFC 03,W
0599E:  MOVWF  FEA
059A0:  MOVFF  FEF,11C
059A4:  MOVF   FF2,W
059A6:  MOVWF  00
059A8:  BCF    FF2.7
059AA:  CLRF   FAA
059AC:  MOVFF  11B,FA9
059B0:  MOVFF  11C,FA8
059B4:  BCF    FA6.6
059B6:  BCF    FA6.7
059B8:  BSF    FA6.2
059BA:  MOVLB  F
059BC:  MOVLW  55
059BE:  MOVWF  FA7
059C0:  MOVLW  AA
059C2:  MOVWF  FA7
059C4:  BSF    FA6.1
059C6:  BTFSC  FA6.1
059C8:  BRA    59C6
059CA:  BCF    FA6.2
059CC:  MOVF   00,W
059CE:  IORWF  FF2,F
059D0:  CLRF   19
059D2:  BTFSC  FF2.7
059D4:  BSF    19.7
059D6:  BCF    FF2.7
....................          delay_ms(1); 
059D8:  MOVLW  01
059DA:  MOVLB  1
059DC:  MOVWF  x37
059DE:  MOVLB  0
059E0:  CALL   0D76
059E4:  BTFSC  19.7
059E6:  BSF    FF2.7
....................          printf("%c%c%c%c", 250, kk, 90, kk+90); // Prendemos  en la red 
059E8:  MOVLW  5A
059EA:  MOVLB  1
059EC:  ADDWF  x1B,W
059EE:  MOVWF  x1C
059F0:  MOVLW  FA
059F2:  MOVWF  x1D
059F4:  MOVLB  0
059F6:  CALL   23EA
059FA:  MOVFF  11B,11D
059FE:  CALL   23EA
05A02:  MOVLW  5A
05A04:  MOVLB  1
05A06:  MOVWF  x1D
05A08:  MOVLB  0
05A0A:  CALL   23EA
05A0E:  MOVFF  11C,11D
05A12:  CALL   23EA
05A16:  MOVLB  1
....................       } // si estaba apagado.. 
....................       } // si pertenece al grupo 
05A18:  INCF   x1B,F
05A1A:  BRA    5936
....................       } // for... 
....................       } // si apagado 
....................    break; 
05A1C:  BRA    5A20
05A1E:  MOVLB  1
.................... } // switch 
.................... //if ((IntLuz[submenu] != 27) && (IntLuz[submenu] != 127)) IntLuz[submenu] = IntLuz[submenu] + 3; 
.................... //write_eeprom(submenu,IntLuz[submenu]); 
.................... } else { // editar no habilitado 
05A20:  BRA    5A2E
.................... ++submenu; 
05A22:  INCF   x11,F
.................... if (submenu == 9) submenu = 8; 
05A24:  MOVF   x11,W
05A26:  SUBLW  09
05A28:  BNZ   5A2E
05A2A:  MOVLW  08
05A2C:  MOVWF  x11
.................... } 
.................... Rebote = true; 
05A2E:  BSF    34.0
.................... } // si Abajo 
.................... } // si rebote 
....................  
....................  
.................... if (Rebote == false){ 
05A30:  BTFSC  34.0
05A32:  GOTO   6BF6
.................... if (input(ARRIBA) == 0){ // si arriba 
05A36:  BSF    F93.0
05A38:  BTFSC  F81.0
05A3A:  GOTO   6BF6
.................... if (editar){ // editar habilitado 
05A3E:  BTFSS  x12.0
05A40:  GOTO   6BEA
....................  
.................... switch (submenu){ 
05A44:  MOVLW  01
05A46:  SUBWF  x11,W
05A48:  ADDLW  F8
05A4A:  BTFSC  FD8.0
05A4C:  GOTO   6BE8
05A50:  ADDLW  08
05A52:  MOVLB  0
05A54:  GOTO   6F70
....................  
....................    case 1: // TODOS 
....................       if ((ON[submenu] == 0) || (ON[submenu] == 10)){ // incierto o prendido 
05A58:  CLRF   03
05A5A:  MOVLB  1
05A5C:  MOVF   x11,W
05A5E:  ADDLW  13
05A60:  MOVWF  FE9
05A62:  MOVLW  01
05A64:  ADDWFC 03,W
05A66:  MOVWF  FEA
05A68:  MOVF   FEF,F
05A6A:  BZ    5A80
05A6C:  CLRF   03
05A6E:  MOVF   x11,W
05A70:  ADDLW  13
05A72:  MOVWF  FE9
05A74:  MOVLW  01
05A76:  ADDWFC 03,W
05A78:  MOVWF  FEA
05A7A:  MOVF   FEF,W
05A7C:  SUBLW  0A
05A7E:  BNZ   5B68
....................       ON[submenu] = 1; // De incierto o prendido --> a apagado 
05A80:  CLRF   03
05A82:  MOVF   x11,W
05A84:  ADDLW  13
05A86:  MOVWF  FE9
05A88:  MOVLW  01
05A8A:  ADDWFC 03,W
05A8C:  MOVWF  FEA
05A8E:  MOVLW  01
05A90:  MOVWF  FEF
....................       for (kk=32;kk<94;kk++) { 
05A92:  MOVLW  20
05A94:  MOVWF  x1B
05A96:  MOVF   x1B,W
05A98:  SUBLW  5D
05A9A:  BNC   5B38
....................       if (IntLuz[kk] > 99){ // estaba prendido 
05A9C:  CLRF   03
05A9E:  MOVF   x1B,W
05AA0:  ADDLW  47
05AA2:  MOVWF  FE9
05AA4:  MOVLW  00
05AA6:  ADDWFC 03,W
05AA8:  MOVWF  FEA
05AAA:  MOVF   FEF,W
05AAC:  SUBLW  63
05AAE:  BC    5B34
....................          IntLuz[kk] = IntLuz[kk] - 100; // apago en el arreglo en RAM 
05AB0:  CLRF   03
05AB2:  MOVF   x1B,W
05AB4:  ADDLW  47
05AB6:  MOVWF  01
05AB8:  MOVLW  00
05ABA:  ADDWFC 03,F
05ABC:  MOVFF  03,11D
05AC0:  CLRF   03
05AC2:  MOVF   x1B,W
05AC4:  ADDLW  47
05AC6:  MOVWF  FE9
05AC8:  MOVLW  00
05ACA:  ADDWFC 03,W
05ACC:  MOVWF  FEA
05ACE:  MOVLW  64
05AD0:  SUBWF  FEF,W
05AD2:  MOVFF  11D,FEA
05AD6:  MOVFF  01,FE9
05ADA:  MOVWF  FEF
....................          write_eeprom(kk,IntLuz[kk]); // apago en el arreglo en ROM 
05ADC:  CLRF   03
05ADE:  MOVF   x1B,W
05AE0:  ADDLW  47
05AE2:  MOVWF  FE9
05AE4:  MOVLW  00
05AE6:  ADDWFC 03,W
05AE8:  MOVWF  FEA
05AEA:  MOVFF  FEF,11C
05AEE:  MOVF   FF2,W
05AF0:  MOVWF  00
05AF2:  BCF    FF2.7
05AF4:  CLRF   FAA
05AF6:  MOVFF  11B,FA9
05AFA:  MOVFF  11C,FA8
05AFE:  BCF    FA6.6
05B00:  BCF    FA6.7
05B02:  BSF    FA6.2
05B04:  MOVLB  F
05B06:  MOVLW  55
05B08:  MOVWF  FA7
05B0A:  MOVLW  AA
05B0C:  MOVWF  FA7
05B0E:  BSF    FA6.1
05B10:  BTFSC  FA6.1
05B12:  BRA    5B10
05B14:  BCF    FA6.2
05B16:  MOVF   00,W
05B18:  IORWF  FF2,F
05B1A:  CLRF   19
05B1C:  BTFSC  FF2.7
05B1E:  BSF    19.7
05B20:  BCF    FF2.7
....................          delay_ms(1); 
05B22:  MOVLW  01
05B24:  MOVLB  1
05B26:  MOVWF  x37
05B28:  MOVLB  0
05B2A:  CALL   0D76
05B2E:  BTFSC  19.7
05B30:  BSF    FF2.7
05B32:  MOVLB  1
....................       } // si estaba prendido.. 
05B34:  INCF   x1B,F
05B36:  BRA    5A96
....................       } // for... 
....................       printf("%c%c%c%c", 250, 100, 80, 180); // Apagamos todo en la red 
05B38:  MOVLW  FA
05B3A:  MOVWF  x1D
05B3C:  MOVLB  0
05B3E:  CALL   23EA
05B42:  MOVLW  64
05B44:  MOVLB  1
05B46:  MOVWF  x1D
05B48:  MOVLB  0
05B4A:  CALL   23EA
05B4E:  MOVLW  50
05B50:  MOVLB  1
05B52:  MOVWF  x1D
05B54:  MOVLB  0
05B56:  CALL   23EA
05B5A:  MOVLW  B4
05B5C:  MOVLB  1
05B5E:  MOVWF  x1D
05B60:  MOVLB  0
05B62:  CALL   23EA
05B66:  MOVLB  1
....................       } // si incierto o prendido 
....................       if (ON[submenu] == 1) { // apagado 
05B68:  CLRF   03
05B6A:  MOVF   x11,W
05B6C:  ADDLW  13
05B6E:  MOVWF  FE9
05B70:  MOVLW  01
05B72:  ADDWFC 03,W
05B74:  MOVWF  FEA
05B76:  DECFSZ FEF,W
05B78:  BRA    5C62
....................       ON[submenu] = 10; // De apagado --> a prendido 
05B7A:  CLRF   03
05B7C:  MOVF   x11,W
05B7E:  ADDLW  13
05B80:  MOVWF  FE9
05B82:  MOVLW  01
05B84:  ADDWFC 03,W
05B86:  MOVWF  FEA
05B88:  MOVLW  0A
05B8A:  MOVWF  FEF
....................       for (kk=32;kk<94;kk++) { 
05B8C:  MOVLW  20
05B8E:  MOVWF  x1B
05B90:  MOVF   x1B,W
05B92:  SUBLW  5D
05B94:  BNC   5C32
....................       if (IntLuz[kk] < 99){ // estaba apagado 
05B96:  CLRF   03
05B98:  MOVF   x1B,W
05B9A:  ADDLW  47
05B9C:  MOVWF  FE9
05B9E:  MOVLW  00
05BA0:  ADDWFC 03,W
05BA2:  MOVWF  FEA
05BA4:  MOVF   FEF,W
05BA6:  SUBLW  62
05BA8:  BNC   5C2E
....................          IntLuz[kk] = IntLuz[kk] + 100; // prendo en el arreglo 
05BAA:  CLRF   03
05BAC:  MOVF   x1B,W
05BAE:  ADDLW  47
05BB0:  MOVWF  01
05BB2:  MOVLW  00
05BB4:  ADDWFC 03,F
05BB6:  MOVFF  03,11D
05BBA:  CLRF   03
05BBC:  MOVF   x1B,W
05BBE:  ADDLW  47
05BC0:  MOVWF  FE9
05BC2:  MOVLW  00
05BC4:  ADDWFC 03,W
05BC6:  MOVWF  FEA
05BC8:  MOVLW  64
05BCA:  ADDWF  FEF,W
05BCC:  MOVFF  11D,FEA
05BD0:  MOVFF  01,FE9
05BD4:  MOVWF  FEF
....................          write_eeprom(kk,IntLuz[kk]); 
05BD6:  CLRF   03
05BD8:  MOVF   x1B,W
05BDA:  ADDLW  47
05BDC:  MOVWF  FE9
05BDE:  MOVLW  00
05BE0:  ADDWFC 03,W
05BE2:  MOVWF  FEA
05BE4:  MOVFF  FEF,11C
05BE8:  MOVF   FF2,W
05BEA:  MOVWF  00
05BEC:  BCF    FF2.7
05BEE:  CLRF   FAA
05BF0:  MOVFF  11B,FA9
05BF4:  MOVFF  11C,FA8
05BF8:  BCF    FA6.6
05BFA:  BCF    FA6.7
05BFC:  BSF    FA6.2
05BFE:  MOVLB  F
05C00:  MOVLW  55
05C02:  MOVWF  FA7
05C04:  MOVLW  AA
05C06:  MOVWF  FA7
05C08:  BSF    FA6.1
05C0A:  BTFSC  FA6.1
05C0C:  BRA    5C0A
05C0E:  BCF    FA6.2
05C10:  MOVF   00,W
05C12:  IORWF  FF2,F
05C14:  CLRF   19
05C16:  BTFSC  FF2.7
05C18:  BSF    19.7
05C1A:  BCF    FF2.7
....................          delay_ms(1); 
05C1C:  MOVLW  01
05C1E:  MOVLB  1
05C20:  MOVWF  x37
05C22:  MOVLB  0
05C24:  CALL   0D76
05C28:  BTFSC  19.7
05C2A:  BSF    FF2.7
05C2C:  MOVLB  1
....................       } // si estaba apagado.. 
05C2E:  INCF   x1B,F
05C30:  BRA    5B90
....................       } // for... 
....................       printf("%c%c%c%c", 250, 100, 90, 180); // Prendemos todo en la red 
05C32:  MOVLW  FA
05C34:  MOVWF  x1D
05C36:  MOVLB  0
05C38:  CALL   23EA
05C3C:  MOVLW  64
05C3E:  MOVLB  1
05C40:  MOVWF  x1D
05C42:  MOVLB  0
05C44:  CALL   23EA
05C48:  MOVLW  5A
05C4A:  MOVLB  1
05C4C:  MOVWF  x1D
05C4E:  MOVLB  0
05C50:  CALL   23EA
05C54:  MOVLW  B4
05C56:  MOVLB  1
05C58:  MOVWF  x1D
05C5A:  MOVLB  0
05C5C:  CALL   23EA
05C60:  MOVLB  1
....................       } // si apagado 
....................    break; 
05C62:  GOTO   6BE8
....................     
....................    case 2: // TODOS INTERIOR // bit 1 de LGrupo 
....................       if ((ON[submenu] == 0) || (ON[submenu] == 10)){ // incierto o prendido 
05C66:  CLRF   03
05C68:  MOVLB  1
05C6A:  MOVF   x11,W
05C6C:  ADDLW  13
05C6E:  MOVWF  FE9
05C70:  MOVLW  01
05C72:  ADDWFC 03,W
05C74:  MOVWF  FEA
05C76:  MOVF   FEF,F
05C78:  BZ    5C90
05C7A:  CLRF   03
05C7C:  MOVF   x11,W
05C7E:  ADDLW  13
05C80:  MOVWF  FE9
05C82:  MOVLW  01
05C84:  ADDWFC 03,W
05C86:  MOVWF  FEA
05C88:  MOVF   FEF,W
05C8A:  SUBLW  0A
05C8C:  BTFSS  FD8.2
05C8E:  BRA    5D8C
....................       ON[submenu] = 1; // De incierto o prendido --> a apagado 
05C90:  CLRF   03
05C92:  MOVF   x11,W
05C94:  ADDLW  13
05C96:  MOVWF  FE9
05C98:  MOVLW  01
05C9A:  ADDWFC 03,W
05C9C:  MOVWF  FEA
05C9E:  MOVLW  01
05CA0:  MOVWF  FEF
....................       for (kk=32;kk<94;kk++) { 
05CA2:  MOVLW  20
05CA4:  MOVWF  x1B
05CA6:  MOVF   x1B,W
05CA8:  SUBLW  5D
05CAA:  BNC   5D8C
....................       if (bit_test(LGrupo[kk],1)){ // si pertenece al grupo 
05CAC:  CLRF   03
05CAE:  MOVF   x1B,W
05CB0:  ADDLW  AA
05CB2:  MOVWF  FE9
05CB4:  MOVLW  00
05CB6:  ADDWFC 03,W
05CB8:  MOVWF  FEA
05CBA:  MOVFF  FEF,11C
05CBE:  BTFSS  x1C.1
05CC0:  BRA    5D88
....................       if (IntLuz[kk] > 99){ // estaba prendido 
05CC2:  CLRF   03
05CC4:  MOVF   x1B,W
05CC6:  ADDLW  47
05CC8:  MOVWF  FE9
05CCA:  MOVLW  00
05CCC:  ADDWFC 03,W
05CCE:  MOVWF  FEA
05CD0:  MOVF   FEF,W
05CD2:  SUBLW  63
05CD4:  BC    5D88
....................          IntLuz[kk] = IntLuz[kk] - 100; // apago en el arreglo en RAM 
05CD6:  CLRF   03
05CD8:  MOVF   x1B,W
05CDA:  ADDLW  47
05CDC:  MOVWF  01
05CDE:  MOVLW  00
05CE0:  ADDWFC 03,F
05CE2:  MOVFF  03,11D
05CE6:  CLRF   03
05CE8:  MOVF   x1B,W
05CEA:  ADDLW  47
05CEC:  MOVWF  FE9
05CEE:  MOVLW  00
05CF0:  ADDWFC 03,W
05CF2:  MOVWF  FEA
05CF4:  MOVLW  64
05CF6:  SUBWF  FEF,W
05CF8:  MOVFF  11D,FEA
05CFC:  MOVFF  01,FE9
05D00:  MOVWF  FEF
....................          write_eeprom(kk,IntLuz[kk]); // apago en el arreglo en ROM 
05D02:  CLRF   03
05D04:  MOVF   x1B,W
05D06:  ADDLW  47
05D08:  MOVWF  FE9
05D0A:  MOVLW  00
05D0C:  ADDWFC 03,W
05D0E:  MOVWF  FEA
05D10:  MOVFF  FEF,11C
05D14:  MOVF   FF2,W
05D16:  MOVWF  00
05D18:  BCF    FF2.7
05D1A:  CLRF   FAA
05D1C:  MOVFF  11B,FA9
05D20:  MOVFF  11C,FA8
05D24:  BCF    FA6.6
05D26:  BCF    FA6.7
05D28:  BSF    FA6.2
05D2A:  MOVLB  F
05D2C:  MOVLW  55
05D2E:  MOVWF  FA7
05D30:  MOVLW  AA
05D32:  MOVWF  FA7
05D34:  BSF    FA6.1
05D36:  BTFSC  FA6.1
05D38:  BRA    5D36
05D3A:  BCF    FA6.2
05D3C:  MOVF   00,W
05D3E:  IORWF  FF2,F
05D40:  CLRF   19
05D42:  BTFSC  FF2.7
05D44:  BSF    19.7
05D46:  BCF    FF2.7
....................          delay_ms(1); 
05D48:  MOVLW  01
05D4A:  MOVLB  1
05D4C:  MOVWF  x37
05D4E:  MOVLB  0
05D50:  CALL   0D76
05D54:  BTFSC  19.7
05D56:  BSF    FF2.7
....................          printf("%c%c%c%c", 250, kk, 80, kk+80); // Apagamos  en la red 
05D58:  MOVLW  50
05D5A:  MOVLB  1
05D5C:  ADDWF  x1B,W
05D5E:  MOVWF  x1C
05D60:  MOVLW  FA
05D62:  MOVWF  x1D
05D64:  MOVLB  0
05D66:  CALL   23EA
05D6A:  MOVFF  11B,11D
05D6E:  CALL   23EA
05D72:  MOVLW  50
05D74:  MOVLB  1
05D76:  MOVWF  x1D
05D78:  MOVLB  0
05D7A:  CALL   23EA
05D7E:  MOVFF  11C,11D
05D82:  CALL   23EA
05D86:  MOVLB  1
....................       } // si estaba prendido.. 
....................       } // si pertenece al grupo 
05D88:  INCF   x1B,F
05D8A:  BRA    5CA6
....................       } // for... 
....................       } // si incierto o prendido 
....................       if (ON[submenu] == 1) { // apagado 
05D8C:  CLRF   03
05D8E:  MOVF   x11,W
05D90:  ADDLW  13
05D92:  MOVWF  FE9
05D94:  MOVLW  01
05D96:  ADDWFC 03,W
05D98:  MOVWF  FEA
05D9A:  DECFSZ FEF,W
05D9C:  BRA    5E9A
....................       ON[submenu] = 10; // De apagado --> a prendido 
05D9E:  CLRF   03
05DA0:  MOVF   x11,W
05DA2:  ADDLW  13
05DA4:  MOVWF  FE9
05DA6:  MOVLW  01
05DA8:  ADDWFC 03,W
05DAA:  MOVWF  FEA
05DAC:  MOVLW  0A
05DAE:  MOVWF  FEF
....................       for (kk=32;kk<94;kk++) { 
05DB0:  MOVLW  20
05DB2:  MOVWF  x1B
05DB4:  MOVF   x1B,W
05DB6:  SUBLW  5D
05DB8:  BNC   5E9A
....................       if (bit_test(LGrupo[kk],1)){ // si pertenece al grupo 
05DBA:  CLRF   03
05DBC:  MOVF   x1B,W
05DBE:  ADDLW  AA
05DC0:  MOVWF  FE9
05DC2:  MOVLW  00
05DC4:  ADDWFC 03,W
05DC6:  MOVWF  FEA
05DC8:  MOVFF  FEF,11C
05DCC:  BTFSS  x1C.1
05DCE:  BRA    5E96
....................       if (IntLuz[kk] < 99){ // estaba apagado 
05DD0:  CLRF   03
05DD2:  MOVF   x1B,W
05DD4:  ADDLW  47
05DD6:  MOVWF  FE9
05DD8:  MOVLW  00
05DDA:  ADDWFC 03,W
05DDC:  MOVWF  FEA
05DDE:  MOVF   FEF,W
05DE0:  SUBLW  62
05DE2:  BNC   5E96
....................          IntLuz[kk] = IntLuz[kk] + 100; // prendo en el arreglo 
05DE4:  CLRF   03
05DE6:  MOVF   x1B,W
05DE8:  ADDLW  47
05DEA:  MOVWF  01
05DEC:  MOVLW  00
05DEE:  ADDWFC 03,F
05DF0:  MOVFF  03,11D
05DF4:  CLRF   03
05DF6:  MOVF   x1B,W
05DF8:  ADDLW  47
05DFA:  MOVWF  FE9
05DFC:  MOVLW  00
05DFE:  ADDWFC 03,W
05E00:  MOVWF  FEA
05E02:  MOVLW  64
05E04:  ADDWF  FEF,W
05E06:  MOVFF  11D,FEA
05E0A:  MOVFF  01,FE9
05E0E:  MOVWF  FEF
....................          write_eeprom(kk,IntLuz[kk]); 
05E10:  CLRF   03
05E12:  MOVF   x1B,W
05E14:  ADDLW  47
05E16:  MOVWF  FE9
05E18:  MOVLW  00
05E1A:  ADDWFC 03,W
05E1C:  MOVWF  FEA
05E1E:  MOVFF  FEF,11C
05E22:  MOVF   FF2,W
05E24:  MOVWF  00
05E26:  BCF    FF2.7
05E28:  CLRF   FAA
05E2A:  MOVFF  11B,FA9
05E2E:  MOVFF  11C,FA8
05E32:  BCF    FA6.6
05E34:  BCF    FA6.7
05E36:  BSF    FA6.2
05E38:  MOVLB  F
05E3A:  MOVLW  55
05E3C:  MOVWF  FA7
05E3E:  MOVLW  AA
05E40:  MOVWF  FA7
05E42:  BSF    FA6.1
05E44:  BTFSC  FA6.1
05E46:  BRA    5E44
05E48:  BCF    FA6.2
05E4A:  MOVF   00,W
05E4C:  IORWF  FF2,F
05E4E:  CLRF   19
05E50:  BTFSC  FF2.7
05E52:  BSF    19.7
05E54:  BCF    FF2.7
....................          delay_ms(1); 
05E56:  MOVLW  01
05E58:  MOVLB  1
05E5A:  MOVWF  x37
05E5C:  MOVLB  0
05E5E:  CALL   0D76
05E62:  BTFSC  19.7
05E64:  BSF    FF2.7
....................          printf("%c%c%c%c", 250, kk, 90, kk+90); // Prendemos  en la red 
05E66:  MOVLW  5A
05E68:  MOVLB  1
05E6A:  ADDWF  x1B,W
05E6C:  MOVWF  x1C
05E6E:  MOVLW  FA
05E70:  MOVWF  x1D
05E72:  MOVLB  0
05E74:  CALL   23EA
05E78:  MOVFF  11B,11D
05E7C:  CALL   23EA
05E80:  MOVLW  5A
05E82:  MOVLB  1
05E84:  MOVWF  x1D
05E86:  MOVLB  0
05E88:  CALL   23EA
05E8C:  MOVFF  11C,11D
05E90:  CALL   23EA
05E94:  MOVLB  1
....................       } // si estaba apagado.. 
....................       } // si pertenece al grupo 
05E96:  INCF   x1B,F
05E98:  BRA    5DB4
....................       } // for... 
....................       } // si apagado 
....................    break; 
05E9A:  GOTO   6BE8
....................     
....................    case 3: // TODOS EXTERIOR // bit 2 de LGrupo 
....................       if ((ON[submenu] == 0) || (ON[submenu] == 10)){ // incierto o prendido 
05E9E:  CLRF   03
05EA0:  MOVLB  1
05EA2:  MOVF   x11,W
05EA4:  ADDLW  13
05EA6:  MOVWF  FE9
05EA8:  MOVLW  01
05EAA:  ADDWFC 03,W
05EAC:  MOVWF  FEA
05EAE:  MOVF   FEF,F
05EB0:  BZ    5EC8
05EB2:  CLRF   03
05EB4:  MOVF   x11,W
05EB6:  ADDLW  13
05EB8:  MOVWF  FE9
05EBA:  MOVLW  01
05EBC:  ADDWFC 03,W
05EBE:  MOVWF  FEA
05EC0:  MOVF   FEF,W
05EC2:  SUBLW  0A
05EC4:  BTFSS  FD8.2
05EC6:  BRA    5FC4
....................       ON[submenu] = 1; // De incierto o prendido --> a apagado 
05EC8:  CLRF   03
05ECA:  MOVF   x11,W
05ECC:  ADDLW  13
05ECE:  MOVWF  FE9
05ED0:  MOVLW  01
05ED2:  ADDWFC 03,W
05ED4:  MOVWF  FEA
05ED6:  MOVLW  01
05ED8:  MOVWF  FEF
....................       for (kk=32;kk<94;kk++) { 
05EDA:  MOVLW  20
05EDC:  MOVWF  x1B
05EDE:  MOVF   x1B,W
05EE0:  SUBLW  5D
05EE2:  BNC   5FC4
....................       if (bit_test(LGrupo[kk],2)){ // si pertenece al grupo 
05EE4:  CLRF   03
05EE6:  MOVF   x1B,W
05EE8:  ADDLW  AA
05EEA:  MOVWF  FE9
05EEC:  MOVLW  00
05EEE:  ADDWFC 03,W
05EF0:  MOVWF  FEA
05EF2:  MOVFF  FEF,11C
05EF6:  BTFSS  x1C.2
05EF8:  BRA    5FC0
....................       if (IntLuz[kk] > 99){ // estaba prendido 
05EFA:  CLRF   03
05EFC:  MOVF   x1B,W
05EFE:  ADDLW  47
05F00:  MOVWF  FE9
05F02:  MOVLW  00
05F04:  ADDWFC 03,W
05F06:  MOVWF  FEA
05F08:  MOVF   FEF,W
05F0A:  SUBLW  63
05F0C:  BC    5FC0
....................          IntLuz[kk] = IntLuz[kk] - 100; // apago en el arreglo en RAM 
05F0E:  CLRF   03
05F10:  MOVF   x1B,W
05F12:  ADDLW  47
05F14:  MOVWF  01
05F16:  MOVLW  00
05F18:  ADDWFC 03,F
05F1A:  MOVFF  03,11D
05F1E:  CLRF   03
05F20:  MOVF   x1B,W
05F22:  ADDLW  47
05F24:  MOVWF  FE9
05F26:  MOVLW  00
05F28:  ADDWFC 03,W
05F2A:  MOVWF  FEA
05F2C:  MOVLW  64
05F2E:  SUBWF  FEF,W
05F30:  MOVFF  11D,FEA
05F34:  MOVFF  01,FE9
05F38:  MOVWF  FEF
....................          write_eeprom(kk,IntLuz[kk]); // apago en el arreglo en ROM 
05F3A:  CLRF   03
05F3C:  MOVF   x1B,W
05F3E:  ADDLW  47
05F40:  MOVWF  FE9
05F42:  MOVLW  00
05F44:  ADDWFC 03,W
05F46:  MOVWF  FEA
05F48:  MOVFF  FEF,11C
05F4C:  MOVF   FF2,W
05F4E:  MOVWF  00
05F50:  BCF    FF2.7
05F52:  CLRF   FAA
05F54:  MOVFF  11B,FA9
05F58:  MOVFF  11C,FA8
05F5C:  BCF    FA6.6
05F5E:  BCF    FA6.7
05F60:  BSF    FA6.2
05F62:  MOVLB  F
05F64:  MOVLW  55
05F66:  MOVWF  FA7
05F68:  MOVLW  AA
05F6A:  MOVWF  FA7
05F6C:  BSF    FA6.1
05F6E:  BTFSC  FA6.1
05F70:  BRA    5F6E
05F72:  BCF    FA6.2
05F74:  MOVF   00,W
05F76:  IORWF  FF2,F
05F78:  CLRF   19
05F7A:  BTFSC  FF2.7
05F7C:  BSF    19.7
05F7E:  BCF    FF2.7
....................          delay_ms(1); 
05F80:  MOVLW  01
05F82:  MOVLB  1
05F84:  MOVWF  x37
05F86:  MOVLB  0
05F88:  CALL   0D76
05F8C:  BTFSC  19.7
05F8E:  BSF    FF2.7
....................          printf("%c%c%c%c", 250, kk, 80, kk+80); // Apagamos  en la red 
05F90:  MOVLW  50
05F92:  MOVLB  1
05F94:  ADDWF  x1B,W
05F96:  MOVWF  x1C
05F98:  MOVLW  FA
05F9A:  MOVWF  x1D
05F9C:  MOVLB  0
05F9E:  CALL   23EA
05FA2:  MOVFF  11B,11D
05FA6:  CALL   23EA
05FAA:  MOVLW  50
05FAC:  MOVLB  1
05FAE:  MOVWF  x1D
05FB0:  MOVLB  0
05FB2:  CALL   23EA
05FB6:  MOVFF  11C,11D
05FBA:  CALL   23EA
05FBE:  MOVLB  1
....................       } // si estaba prendido.. 
....................       } // si pertenece al grupo 
05FC0:  INCF   x1B,F
05FC2:  BRA    5EDE
....................       } // for... 
....................       } // si incierto o prendido 
....................       if (ON[submenu] == 1) { // apagado 
05FC4:  CLRF   03
05FC6:  MOVF   x11,W
05FC8:  ADDLW  13
05FCA:  MOVWF  FE9
05FCC:  MOVLW  01
05FCE:  ADDWFC 03,W
05FD0:  MOVWF  FEA
05FD2:  DECFSZ FEF,W
05FD4:  BRA    60D2
....................       ON[submenu] = 10; // De apagado --> a prendido 
05FD6:  CLRF   03
05FD8:  MOVF   x11,W
05FDA:  ADDLW  13
05FDC:  MOVWF  FE9
05FDE:  MOVLW  01
05FE0:  ADDWFC 03,W
05FE2:  MOVWF  FEA
05FE4:  MOVLW  0A
05FE6:  MOVWF  FEF
....................       for (kk=32;kk<94;kk++) { 
05FE8:  MOVLW  20
05FEA:  MOVWF  x1B
05FEC:  MOVF   x1B,W
05FEE:  SUBLW  5D
05FF0:  BNC   60D2
....................       if (bit_test(LGrupo[kk],2)){ // si pertenece al grupo 
05FF2:  CLRF   03
05FF4:  MOVF   x1B,W
05FF6:  ADDLW  AA
05FF8:  MOVWF  FE9
05FFA:  MOVLW  00
05FFC:  ADDWFC 03,W
05FFE:  MOVWF  FEA
06000:  MOVFF  FEF,11C
06004:  BTFSS  x1C.2
06006:  BRA    60CE
....................       if (IntLuz[kk] < 99){ // estaba apagado 
06008:  CLRF   03
0600A:  MOVF   x1B,W
0600C:  ADDLW  47
0600E:  MOVWF  FE9
06010:  MOVLW  00
06012:  ADDWFC 03,W
06014:  MOVWF  FEA
06016:  MOVF   FEF,W
06018:  SUBLW  62
0601A:  BNC   60CE
....................          IntLuz[kk] = IntLuz[kk] + 100; // prendo en el arreglo 
0601C:  CLRF   03
0601E:  MOVF   x1B,W
06020:  ADDLW  47
06022:  MOVWF  01
06024:  MOVLW  00
06026:  ADDWFC 03,F
06028:  MOVFF  03,11D
0602C:  CLRF   03
0602E:  MOVF   x1B,W
06030:  ADDLW  47
06032:  MOVWF  FE9
06034:  MOVLW  00
06036:  ADDWFC 03,W
06038:  MOVWF  FEA
0603A:  MOVLW  64
0603C:  ADDWF  FEF,W
0603E:  MOVFF  11D,FEA
06042:  MOVFF  01,FE9
06046:  MOVWF  FEF
....................          write_eeprom(kk,IntLuz[kk]); 
06048:  CLRF   03
0604A:  MOVF   x1B,W
0604C:  ADDLW  47
0604E:  MOVWF  FE9
06050:  MOVLW  00
06052:  ADDWFC 03,W
06054:  MOVWF  FEA
06056:  MOVFF  FEF,11C
0605A:  MOVF   FF2,W
0605C:  MOVWF  00
0605E:  BCF    FF2.7
06060:  CLRF   FAA
06062:  MOVFF  11B,FA9
06066:  MOVFF  11C,FA8
0606A:  BCF    FA6.6
0606C:  BCF    FA6.7
0606E:  BSF    FA6.2
06070:  MOVLB  F
06072:  MOVLW  55
06074:  MOVWF  FA7
06076:  MOVLW  AA
06078:  MOVWF  FA7
0607A:  BSF    FA6.1
0607C:  BTFSC  FA6.1
0607E:  BRA    607C
06080:  BCF    FA6.2
06082:  MOVF   00,W
06084:  IORWF  FF2,F
06086:  CLRF   19
06088:  BTFSC  FF2.7
0608A:  BSF    19.7
0608C:  BCF    FF2.7
....................          delay_ms(1); 
0608E:  MOVLW  01
06090:  MOVLB  1
06092:  MOVWF  x37
06094:  MOVLB  0
06096:  CALL   0D76
0609A:  BTFSC  19.7
0609C:  BSF    FF2.7
....................          printf("%c%c%c%c", 250, kk, 90, kk+90); // Prendemos  en la red 
0609E:  MOVLW  5A
060A0:  MOVLB  1
060A2:  ADDWF  x1B,W
060A4:  MOVWF  x1C
060A6:  MOVLW  FA
060A8:  MOVWF  x1D
060AA:  MOVLB  0
060AC:  CALL   23EA
060B0:  MOVFF  11B,11D
060B4:  CALL   23EA
060B8:  MOVLW  5A
060BA:  MOVLB  1
060BC:  MOVWF  x1D
060BE:  MOVLB  0
060C0:  CALL   23EA
060C4:  MOVFF  11C,11D
060C8:  CALL   23EA
060CC:  MOVLB  1
....................       } // si estaba apagado.. 
....................       } // si pertenece al grupo 
060CE:  INCF   x1B,F
060D0:  BRA    5FEC
....................       } // for... 
....................       } // si apagado 
....................    break; 
060D2:  GOTO   6BE8
....................     
....................    case 4: // JARDIN // bit 3 de LGrupo 
....................       if ((ON[submenu] == 0) || (ON[submenu] == 10)){ // incierto o prendido 
060D6:  CLRF   03
060D8:  MOVLB  1
060DA:  MOVF   x11,W
060DC:  ADDLW  13
060DE:  MOVWF  FE9
060E0:  MOVLW  01
060E2:  ADDWFC 03,W
060E4:  MOVWF  FEA
060E6:  MOVF   FEF,F
060E8:  BZ    6100
060EA:  CLRF   03
060EC:  MOVF   x11,W
060EE:  ADDLW  13
060F0:  MOVWF  FE9
060F2:  MOVLW  01
060F4:  ADDWFC 03,W
060F6:  MOVWF  FEA
060F8:  MOVF   FEF,W
060FA:  SUBLW  0A
060FC:  BTFSS  FD8.2
060FE:  BRA    61FC
....................       ON[submenu] = 1; // De incierto o prendido --> a apagado 
06100:  CLRF   03
06102:  MOVF   x11,W
06104:  ADDLW  13
06106:  MOVWF  FE9
06108:  MOVLW  01
0610A:  ADDWFC 03,W
0610C:  MOVWF  FEA
0610E:  MOVLW  01
06110:  MOVWF  FEF
....................       for (kk=32;kk<94;kk++) { 
06112:  MOVLW  20
06114:  MOVWF  x1B
06116:  MOVF   x1B,W
06118:  SUBLW  5D
0611A:  BNC   61FC
....................       if (bit_test(LGrupo[kk],3)){ // si pertenece al grupo 
0611C:  CLRF   03
0611E:  MOVF   x1B,W
06120:  ADDLW  AA
06122:  MOVWF  FE9
06124:  MOVLW  00
06126:  ADDWFC 03,W
06128:  MOVWF  FEA
0612A:  MOVFF  FEF,11C
0612E:  BTFSS  x1C.3
06130:  BRA    61F8
....................       if (IntLuz[kk] > 99){ // estaba prendido 
06132:  CLRF   03
06134:  MOVF   x1B,W
06136:  ADDLW  47
06138:  MOVWF  FE9
0613A:  MOVLW  00
0613C:  ADDWFC 03,W
0613E:  MOVWF  FEA
06140:  MOVF   FEF,W
06142:  SUBLW  63
06144:  BC    61F8
....................          IntLuz[kk] = IntLuz[kk] - 100; // apago en el arreglo en RAM 
06146:  CLRF   03
06148:  MOVF   x1B,W
0614A:  ADDLW  47
0614C:  MOVWF  01
0614E:  MOVLW  00
06150:  ADDWFC 03,F
06152:  MOVFF  03,11D
06156:  CLRF   03
06158:  MOVF   x1B,W
0615A:  ADDLW  47
0615C:  MOVWF  FE9
0615E:  MOVLW  00
06160:  ADDWFC 03,W
06162:  MOVWF  FEA
06164:  MOVLW  64
06166:  SUBWF  FEF,W
06168:  MOVFF  11D,FEA
0616C:  MOVFF  01,FE9
06170:  MOVWF  FEF
....................          write_eeprom(kk,IntLuz[kk]); // apago en el arreglo en ROM 
06172:  CLRF   03
06174:  MOVF   x1B,W
06176:  ADDLW  47
06178:  MOVWF  FE9
0617A:  MOVLW  00
0617C:  ADDWFC 03,W
0617E:  MOVWF  FEA
06180:  MOVFF  FEF,11C
06184:  MOVF   FF2,W
06186:  MOVWF  00
06188:  BCF    FF2.7
0618A:  CLRF   FAA
0618C:  MOVFF  11B,FA9
06190:  MOVFF  11C,FA8
06194:  BCF    FA6.6
06196:  BCF    FA6.7
06198:  BSF    FA6.2
0619A:  MOVLB  F
0619C:  MOVLW  55
0619E:  MOVWF  FA7
061A0:  MOVLW  AA
061A2:  MOVWF  FA7
061A4:  BSF    FA6.1
061A6:  BTFSC  FA6.1
061A8:  BRA    61A6
061AA:  BCF    FA6.2
061AC:  MOVF   00,W
061AE:  IORWF  FF2,F
061B0:  CLRF   19
061B2:  BTFSC  FF2.7
061B4:  BSF    19.7
061B6:  BCF    FF2.7
....................          delay_ms(1); 
061B8:  MOVLW  01
061BA:  MOVLB  1
061BC:  MOVWF  x37
061BE:  MOVLB  0
061C0:  CALL   0D76
061C4:  BTFSC  19.7
061C6:  BSF    FF2.7
....................          printf("%c%c%c%c", 250, kk, 80, kk+80); // Apagamos  en la red 
061C8:  MOVLW  50
061CA:  MOVLB  1
061CC:  ADDWF  x1B,W
061CE:  MOVWF  x1C
061D0:  MOVLW  FA
061D2:  MOVWF  x1D
061D4:  MOVLB  0
061D6:  CALL   23EA
061DA:  MOVFF  11B,11D
061DE:  CALL   23EA
061E2:  MOVLW  50
061E4:  MOVLB  1
061E6:  MOVWF  x1D
061E8:  MOVLB  0
061EA:  CALL   23EA
061EE:  MOVFF  11C,11D
061F2:  CALL   23EA
061F6:  MOVLB  1
....................       } // si estaba prendido.. 
....................       } // si pertenece al grupo 
061F8:  INCF   x1B,F
061FA:  BRA    6116
....................       } // for... 
....................       } // si incierto o prendido 
....................       if (ON[submenu] == 1) { // apagado 
061FC:  CLRF   03
061FE:  MOVF   x11,W
06200:  ADDLW  13
06202:  MOVWF  FE9
06204:  MOVLW  01
06206:  ADDWFC 03,W
06208:  MOVWF  FEA
0620A:  DECFSZ FEF,W
0620C:  BRA    630A
....................       ON[submenu] = 10; // De apagado --> a prendido 
0620E:  CLRF   03
06210:  MOVF   x11,W
06212:  ADDLW  13
06214:  MOVWF  FE9
06216:  MOVLW  01
06218:  ADDWFC 03,W
0621A:  MOVWF  FEA
0621C:  MOVLW  0A
0621E:  MOVWF  FEF
....................       for (kk=32;kk<94;kk++) { 
06220:  MOVLW  20
06222:  MOVWF  x1B
06224:  MOVF   x1B,W
06226:  SUBLW  5D
06228:  BNC   630A
....................       if (bit_test(LGrupo[kk],3)){ // si pertenece al grupo 
0622A:  CLRF   03
0622C:  MOVF   x1B,W
0622E:  ADDLW  AA
06230:  MOVWF  FE9
06232:  MOVLW  00
06234:  ADDWFC 03,W
06236:  MOVWF  FEA
06238:  MOVFF  FEF,11C
0623C:  BTFSS  x1C.3
0623E:  BRA    6306
....................       if (IntLuz[kk] < 99){ // estaba apagado 
06240:  CLRF   03
06242:  MOVF   x1B,W
06244:  ADDLW  47
06246:  MOVWF  FE9
06248:  MOVLW  00
0624A:  ADDWFC 03,W
0624C:  MOVWF  FEA
0624E:  MOVF   FEF,W
06250:  SUBLW  62
06252:  BNC   6306
....................          IntLuz[kk] = IntLuz[kk] + 100; // prendo en el arreglo 
06254:  CLRF   03
06256:  MOVF   x1B,W
06258:  ADDLW  47
0625A:  MOVWF  01
0625C:  MOVLW  00
0625E:  ADDWFC 03,F
06260:  MOVFF  03,11D
06264:  CLRF   03
06266:  MOVF   x1B,W
06268:  ADDLW  47
0626A:  MOVWF  FE9
0626C:  MOVLW  00
0626E:  ADDWFC 03,W
06270:  MOVWF  FEA
06272:  MOVLW  64
06274:  ADDWF  FEF,W
06276:  MOVFF  11D,FEA
0627A:  MOVFF  01,FE9
0627E:  MOVWF  FEF
....................          write_eeprom(kk,IntLuz[kk]); 
06280:  CLRF   03
06282:  MOVF   x1B,W
06284:  ADDLW  47
06286:  MOVWF  FE9
06288:  MOVLW  00
0628A:  ADDWFC 03,W
0628C:  MOVWF  FEA
0628E:  MOVFF  FEF,11C
06292:  MOVF   FF2,W
06294:  MOVWF  00
06296:  BCF    FF2.7
06298:  CLRF   FAA
0629A:  MOVFF  11B,FA9
0629E:  MOVFF  11C,FA8
062A2:  BCF    FA6.6
062A4:  BCF    FA6.7
062A6:  BSF    FA6.2
062A8:  MOVLB  F
062AA:  MOVLW  55
062AC:  MOVWF  FA7
062AE:  MOVLW  AA
062B0:  MOVWF  FA7
062B2:  BSF    FA6.1
062B4:  BTFSC  FA6.1
062B6:  BRA    62B4
062B8:  BCF    FA6.2
062BA:  MOVF   00,W
062BC:  IORWF  FF2,F
062BE:  CLRF   19
062C0:  BTFSC  FF2.7
062C2:  BSF    19.7
062C4:  BCF    FF2.7
....................          delay_ms(1); 
062C6:  MOVLW  01
062C8:  MOVLB  1
062CA:  MOVWF  x37
062CC:  MOVLB  0
062CE:  CALL   0D76
062D2:  BTFSC  19.7
062D4:  BSF    FF2.7
....................          printf("%c%c%c%c", 250, kk, 90, kk+90); // Prendemos  en la red 
062D6:  MOVLW  5A
062D8:  MOVLB  1
062DA:  ADDWF  x1B,W
062DC:  MOVWF  x1C
062DE:  MOVLW  FA
062E0:  MOVWF  x1D
062E2:  MOVLB  0
062E4:  CALL   23EA
062E8:  MOVFF  11B,11D
062EC:  CALL   23EA
062F0:  MOVLW  5A
062F2:  MOVLB  1
062F4:  MOVWF  x1D
062F6:  MOVLB  0
062F8:  CALL   23EA
062FC:  MOVFF  11C,11D
06300:  CALL   23EA
06304:  MOVLB  1
....................       } // si estaba apagado.. 
....................       } // si pertenece al grupo 
06306:  INCF   x1B,F
06308:  BRA    6224
....................       } // for... 
....................       } // si apagado 
....................    break; 
0630A:  GOTO   6BE8
....................     
....................    case 5: // FRENTE // bit 4 de LGrupo 
....................       if ((ON[submenu] == 0) || (ON[submenu] == 10)){ // incierto o prendido 
0630E:  CLRF   03
06310:  MOVLB  1
06312:  MOVF   x11,W
06314:  ADDLW  13
06316:  MOVWF  FE9
06318:  MOVLW  01
0631A:  ADDWFC 03,W
0631C:  MOVWF  FEA
0631E:  MOVF   FEF,F
06320:  BZ    6338
06322:  CLRF   03
06324:  MOVF   x11,W
06326:  ADDLW  13
06328:  MOVWF  FE9
0632A:  MOVLW  01
0632C:  ADDWFC 03,W
0632E:  MOVWF  FEA
06330:  MOVF   FEF,W
06332:  SUBLW  0A
06334:  BTFSS  FD8.2
06336:  BRA    6434
....................       ON[submenu] = 1; // De incierto o prendido --> a apagado 
06338:  CLRF   03
0633A:  MOVF   x11,W
0633C:  ADDLW  13
0633E:  MOVWF  FE9
06340:  MOVLW  01
06342:  ADDWFC 03,W
06344:  MOVWF  FEA
06346:  MOVLW  01
06348:  MOVWF  FEF
....................       for (kk=32;kk<94;kk++) { 
0634A:  MOVLW  20
0634C:  MOVWF  x1B
0634E:  MOVF   x1B,W
06350:  SUBLW  5D
06352:  BNC   6434
....................       if (bit_test(LGrupo[kk],4)){ // si pertenece al grupo 
06354:  CLRF   03
06356:  MOVF   x1B,W
06358:  ADDLW  AA
0635A:  MOVWF  FE9
0635C:  MOVLW  00
0635E:  ADDWFC 03,W
06360:  MOVWF  FEA
06362:  MOVFF  FEF,11C
06366:  BTFSS  x1C.4
06368:  BRA    6430
....................       if (IntLuz[kk] > 99){ // estaba prendido 
0636A:  CLRF   03
0636C:  MOVF   x1B,W
0636E:  ADDLW  47
06370:  MOVWF  FE9
06372:  MOVLW  00
06374:  ADDWFC 03,W
06376:  MOVWF  FEA
06378:  MOVF   FEF,W
0637A:  SUBLW  63
0637C:  BC    6430
....................          IntLuz[kk] = IntLuz[kk] - 100; // apago en el arreglo en RAM 
0637E:  CLRF   03
06380:  MOVF   x1B,W
06382:  ADDLW  47
06384:  MOVWF  01
06386:  MOVLW  00
06388:  ADDWFC 03,F
0638A:  MOVFF  03,11D
0638E:  CLRF   03
06390:  MOVF   x1B,W
06392:  ADDLW  47
06394:  MOVWF  FE9
06396:  MOVLW  00
06398:  ADDWFC 03,W
0639A:  MOVWF  FEA
0639C:  MOVLW  64
0639E:  SUBWF  FEF,W
063A0:  MOVFF  11D,FEA
063A4:  MOVFF  01,FE9
063A8:  MOVWF  FEF
....................          write_eeprom(kk,IntLuz[kk]); // apago en el arreglo en ROM 
063AA:  CLRF   03
063AC:  MOVF   x1B,W
063AE:  ADDLW  47
063B0:  MOVWF  FE9
063B2:  MOVLW  00
063B4:  ADDWFC 03,W
063B6:  MOVWF  FEA
063B8:  MOVFF  FEF,11C
063BC:  MOVF   FF2,W
063BE:  MOVWF  00
063C0:  BCF    FF2.7
063C2:  CLRF   FAA
063C4:  MOVFF  11B,FA9
063C8:  MOVFF  11C,FA8
063CC:  BCF    FA6.6
063CE:  BCF    FA6.7
063D0:  BSF    FA6.2
063D2:  MOVLB  F
063D4:  MOVLW  55
063D6:  MOVWF  FA7
063D8:  MOVLW  AA
063DA:  MOVWF  FA7
063DC:  BSF    FA6.1
063DE:  BTFSC  FA6.1
063E0:  BRA    63DE
063E2:  BCF    FA6.2
063E4:  MOVF   00,W
063E6:  IORWF  FF2,F
063E8:  CLRF   19
063EA:  BTFSC  FF2.7
063EC:  BSF    19.7
063EE:  BCF    FF2.7
....................          delay_ms(1); 
063F0:  MOVLW  01
063F2:  MOVLB  1
063F4:  MOVWF  x37
063F6:  MOVLB  0
063F8:  CALL   0D76
063FC:  BTFSC  19.7
063FE:  BSF    FF2.7
....................          printf("%c%c%c%c", 250, kk, 80, kk+80); // Apagamos  en la red 
06400:  MOVLW  50
06402:  MOVLB  1
06404:  ADDWF  x1B,W
06406:  MOVWF  x1C
06408:  MOVLW  FA
0640A:  MOVWF  x1D
0640C:  MOVLB  0
0640E:  CALL   23EA
06412:  MOVFF  11B,11D
06416:  CALL   23EA
0641A:  MOVLW  50
0641C:  MOVLB  1
0641E:  MOVWF  x1D
06420:  MOVLB  0
06422:  CALL   23EA
06426:  MOVFF  11C,11D
0642A:  CALL   23EA
0642E:  MOVLB  1
....................       } // si estaba prendido.. 
....................       } // si pertenece al grupo 
06430:  INCF   x1B,F
06432:  BRA    634E
....................       } // for... 
....................       } // si incierto o prendido 
....................       if (ON[submenu] == 1) { // apagado 
06434:  CLRF   03
06436:  MOVF   x11,W
06438:  ADDLW  13
0643A:  MOVWF  FE9
0643C:  MOVLW  01
0643E:  ADDWFC 03,W
06440:  MOVWF  FEA
06442:  DECFSZ FEF,W
06444:  BRA    6542
....................       ON[submenu] = 10; // De apagado --> a prendido 
06446:  CLRF   03
06448:  MOVF   x11,W
0644A:  ADDLW  13
0644C:  MOVWF  FE9
0644E:  MOVLW  01
06450:  ADDWFC 03,W
06452:  MOVWF  FEA
06454:  MOVLW  0A
06456:  MOVWF  FEF
....................       for (kk=32;kk<94;kk++) { 
06458:  MOVLW  20
0645A:  MOVWF  x1B
0645C:  MOVF   x1B,W
0645E:  SUBLW  5D
06460:  BNC   6542
....................       if (bit_test(LGrupo[kk],4)){ // si pertenece al grupo 
06462:  CLRF   03
06464:  MOVF   x1B,W
06466:  ADDLW  AA
06468:  MOVWF  FE9
0646A:  MOVLW  00
0646C:  ADDWFC 03,W
0646E:  MOVWF  FEA
06470:  MOVFF  FEF,11C
06474:  BTFSS  x1C.4
06476:  BRA    653E
....................       if (IntLuz[kk] < 99){ // estaba apagado 
06478:  CLRF   03
0647A:  MOVF   x1B,W
0647C:  ADDLW  47
0647E:  MOVWF  FE9
06480:  MOVLW  00
06482:  ADDWFC 03,W
06484:  MOVWF  FEA
06486:  MOVF   FEF,W
06488:  SUBLW  62
0648A:  BNC   653E
....................          IntLuz[kk] = IntLuz[kk] + 100; // prendo en el arreglo 
0648C:  CLRF   03
0648E:  MOVF   x1B,W
06490:  ADDLW  47
06492:  MOVWF  01
06494:  MOVLW  00
06496:  ADDWFC 03,F
06498:  MOVFF  03,11D
0649C:  CLRF   03
0649E:  MOVF   x1B,W
064A0:  ADDLW  47
064A2:  MOVWF  FE9
064A4:  MOVLW  00
064A6:  ADDWFC 03,W
064A8:  MOVWF  FEA
064AA:  MOVLW  64
064AC:  ADDWF  FEF,W
064AE:  MOVFF  11D,FEA
064B2:  MOVFF  01,FE9
064B6:  MOVWF  FEF
....................          write_eeprom(kk,IntLuz[kk]); 
064B8:  CLRF   03
064BA:  MOVF   x1B,W
064BC:  ADDLW  47
064BE:  MOVWF  FE9
064C0:  MOVLW  00
064C2:  ADDWFC 03,W
064C4:  MOVWF  FEA
064C6:  MOVFF  FEF,11C
064CA:  MOVF   FF2,W
064CC:  MOVWF  00
064CE:  BCF    FF2.7
064D0:  CLRF   FAA
064D2:  MOVFF  11B,FA9
064D6:  MOVFF  11C,FA8
064DA:  BCF    FA6.6
064DC:  BCF    FA6.7
064DE:  BSF    FA6.2
064E0:  MOVLB  F
064E2:  MOVLW  55
064E4:  MOVWF  FA7
064E6:  MOVLW  AA
064E8:  MOVWF  FA7
064EA:  BSF    FA6.1
064EC:  BTFSC  FA6.1
064EE:  BRA    64EC
064F0:  BCF    FA6.2
064F2:  MOVF   00,W
064F4:  IORWF  FF2,F
064F6:  CLRF   19
064F8:  BTFSC  FF2.7
064FA:  BSF    19.7
064FC:  BCF    FF2.7
....................          delay_ms(1); 
064FE:  MOVLW  01
06500:  MOVLB  1
06502:  MOVWF  x37
06504:  MOVLB  0
06506:  CALL   0D76
0650A:  BTFSC  19.7
0650C:  BSF    FF2.7
....................          printf("%c%c%c%c", 250, kk, 90, kk+90); // Prendemos  en la red 
0650E:  MOVLW  5A
06510:  MOVLB  1
06512:  ADDWF  x1B,W
06514:  MOVWF  x1C
06516:  MOVLW  FA
06518:  MOVWF  x1D
0651A:  MOVLB  0
0651C:  CALL   23EA
06520:  MOVFF  11B,11D
06524:  CALL   23EA
06528:  MOVLW  5A
0652A:  MOVLB  1
0652C:  MOVWF  x1D
0652E:  MOVLB  0
06530:  CALL   23EA
06534:  MOVFF  11C,11D
06538:  CALL   23EA
0653C:  MOVLB  1
....................       } // si estaba apagado.. 
....................       } // si pertenece al grupo 
0653E:  INCF   x1B,F
06540:  BRA    645C
....................       } // for... 
....................       } // si apagado 
....................    break; 
06542:  BRA    6BE8
....................     
....................    case 6: // PASILLOS // bit 5 de LGrupo 
....................       if ((ON[submenu] == 0) || (ON[submenu] == 10)){ // incierto o prendido 
06544:  CLRF   03
06546:  MOVLB  1
06548:  MOVF   x11,W
0654A:  ADDLW  13
0654C:  MOVWF  FE9
0654E:  MOVLW  01
06550:  ADDWFC 03,W
06552:  MOVWF  FEA
06554:  MOVF   FEF,F
06556:  BZ    656E
06558:  CLRF   03
0655A:  MOVF   x11,W
0655C:  ADDLW  13
0655E:  MOVWF  FE9
06560:  MOVLW  01
06562:  ADDWFC 03,W
06564:  MOVWF  FEA
06566:  MOVF   FEF,W
06568:  SUBLW  0A
0656A:  BTFSS  FD8.2
0656C:  BRA    666A
....................       ON[submenu] = 1; // De incierto o prendido --> a apagado 
0656E:  CLRF   03
06570:  MOVF   x11,W
06572:  ADDLW  13
06574:  MOVWF  FE9
06576:  MOVLW  01
06578:  ADDWFC 03,W
0657A:  MOVWF  FEA
0657C:  MOVLW  01
0657E:  MOVWF  FEF
....................       for (kk=32;kk<94;kk++) { 
06580:  MOVLW  20
06582:  MOVWF  x1B
06584:  MOVF   x1B,W
06586:  SUBLW  5D
06588:  BNC   666A
....................       if (bit_test(LGrupo[kk],5)){ // si pertenece al grupo 
0658A:  CLRF   03
0658C:  MOVF   x1B,W
0658E:  ADDLW  AA
06590:  MOVWF  FE9
06592:  MOVLW  00
06594:  ADDWFC 03,W
06596:  MOVWF  FEA
06598:  MOVFF  FEF,11C
0659C:  BTFSS  x1C.5
0659E:  BRA    6666
....................       if (IntLuz[kk] > 99){ // estaba prendido 
065A0:  CLRF   03
065A2:  MOVF   x1B,W
065A4:  ADDLW  47
065A6:  MOVWF  FE9
065A8:  MOVLW  00
065AA:  ADDWFC 03,W
065AC:  MOVWF  FEA
065AE:  MOVF   FEF,W
065B0:  SUBLW  63
065B2:  BC    6666
....................          IntLuz[kk] = IntLuz[kk] - 100; // apago en el arreglo en RAM 
065B4:  CLRF   03
065B6:  MOVF   x1B,W
065B8:  ADDLW  47
065BA:  MOVWF  01
065BC:  MOVLW  00
065BE:  ADDWFC 03,F
065C0:  MOVFF  03,11D
065C4:  CLRF   03
065C6:  MOVF   x1B,W
065C8:  ADDLW  47
065CA:  MOVWF  FE9
065CC:  MOVLW  00
065CE:  ADDWFC 03,W
065D0:  MOVWF  FEA
065D2:  MOVLW  64
065D4:  SUBWF  FEF,W
065D6:  MOVFF  11D,FEA
065DA:  MOVFF  01,FE9
065DE:  MOVWF  FEF
....................          write_eeprom(kk,IntLuz[kk]); // apago en el arreglo en ROM 
065E0:  CLRF   03
065E2:  MOVF   x1B,W
065E4:  ADDLW  47
065E6:  MOVWF  FE9
065E8:  MOVLW  00
065EA:  ADDWFC 03,W
065EC:  MOVWF  FEA
065EE:  MOVFF  FEF,11C
065F2:  MOVF   FF2,W
065F4:  MOVWF  00
065F6:  BCF    FF2.7
065F8:  CLRF   FAA
065FA:  MOVFF  11B,FA9
065FE:  MOVFF  11C,FA8
06602:  BCF    FA6.6
06604:  BCF    FA6.7
06606:  BSF    FA6.2
06608:  MOVLB  F
0660A:  MOVLW  55
0660C:  MOVWF  FA7
0660E:  MOVLW  AA
06610:  MOVWF  FA7
06612:  BSF    FA6.1
06614:  BTFSC  FA6.1
06616:  BRA    6614
06618:  BCF    FA6.2
0661A:  MOVF   00,W
0661C:  IORWF  FF2,F
0661E:  CLRF   19
06620:  BTFSC  FF2.7
06622:  BSF    19.7
06624:  BCF    FF2.7
....................          delay_ms(1); 
06626:  MOVLW  01
06628:  MOVLB  1
0662A:  MOVWF  x37
0662C:  MOVLB  0
0662E:  CALL   0D76
06632:  BTFSC  19.7
06634:  BSF    FF2.7
....................          printf("%c%c%c%c", 250, kk, 80, kk+80); // Apagamos  en la red 
06636:  MOVLW  50
06638:  MOVLB  1
0663A:  ADDWF  x1B,W
0663C:  MOVWF  x1C
0663E:  MOVLW  FA
06640:  MOVWF  x1D
06642:  MOVLB  0
06644:  CALL   23EA
06648:  MOVFF  11B,11D
0664C:  CALL   23EA
06650:  MOVLW  50
06652:  MOVLB  1
06654:  MOVWF  x1D
06656:  MOVLB  0
06658:  CALL   23EA
0665C:  MOVFF  11C,11D
06660:  CALL   23EA
06664:  MOVLB  1
....................       } // si estaba prendido.. 
....................       } // si pertenece al grupo 
06666:  INCF   x1B,F
06668:  BRA    6584
....................       } // for... 
....................       } // si incierto o prendido 
....................       if (ON[submenu] == 1) { // apagado 
0666A:  CLRF   03
0666C:  MOVF   x11,W
0666E:  ADDLW  13
06670:  MOVWF  FE9
06672:  MOVLW  01
06674:  ADDWFC 03,W
06676:  MOVWF  FEA
06678:  DECFSZ FEF,W
0667A:  BRA    6778
....................       ON[submenu] = 10; // De apagado --> a prendido 
0667C:  CLRF   03
0667E:  MOVF   x11,W
06680:  ADDLW  13
06682:  MOVWF  FE9
06684:  MOVLW  01
06686:  ADDWFC 03,W
06688:  MOVWF  FEA
0668A:  MOVLW  0A
0668C:  MOVWF  FEF
....................       for (kk=32;kk<94;kk++) { 
0668E:  MOVLW  20
06690:  MOVWF  x1B
06692:  MOVF   x1B,W
06694:  SUBLW  5D
06696:  BNC   6778
....................       if (bit_test(LGrupo[kk],5)){ // si pertenece al grupo 
06698:  CLRF   03
0669A:  MOVF   x1B,W
0669C:  ADDLW  AA
0669E:  MOVWF  FE9
066A0:  MOVLW  00
066A2:  ADDWFC 03,W
066A4:  MOVWF  FEA
066A6:  MOVFF  FEF,11C
066AA:  BTFSS  x1C.5
066AC:  BRA    6774
....................       if (IntLuz[kk] < 99){ // estaba apagado 
066AE:  CLRF   03
066B0:  MOVF   x1B,W
066B2:  ADDLW  47
066B4:  MOVWF  FE9
066B6:  MOVLW  00
066B8:  ADDWFC 03,W
066BA:  MOVWF  FEA
066BC:  MOVF   FEF,W
066BE:  SUBLW  62
066C0:  BNC   6774
....................          IntLuz[kk] = IntLuz[kk] + 100; // prendo en el arreglo 
066C2:  CLRF   03
066C4:  MOVF   x1B,W
066C6:  ADDLW  47
066C8:  MOVWF  01
066CA:  MOVLW  00
066CC:  ADDWFC 03,F
066CE:  MOVFF  03,11D
066D2:  CLRF   03
066D4:  MOVF   x1B,W
066D6:  ADDLW  47
066D8:  MOVWF  FE9
066DA:  MOVLW  00
066DC:  ADDWFC 03,W
066DE:  MOVWF  FEA
066E0:  MOVLW  64
066E2:  ADDWF  FEF,W
066E4:  MOVFF  11D,FEA
066E8:  MOVFF  01,FE9
066EC:  MOVWF  FEF
....................          write_eeprom(kk,IntLuz[kk]); 
066EE:  CLRF   03
066F0:  MOVF   x1B,W
066F2:  ADDLW  47
066F4:  MOVWF  FE9
066F6:  MOVLW  00
066F8:  ADDWFC 03,W
066FA:  MOVWF  FEA
066FC:  MOVFF  FEF,11C
06700:  MOVF   FF2,W
06702:  MOVWF  00
06704:  BCF    FF2.7
06706:  CLRF   FAA
06708:  MOVFF  11B,FA9
0670C:  MOVFF  11C,FA8
06710:  BCF    FA6.6
06712:  BCF    FA6.7
06714:  BSF    FA6.2
06716:  MOVLB  F
06718:  MOVLW  55
0671A:  MOVWF  FA7
0671C:  MOVLW  AA
0671E:  MOVWF  FA7
06720:  BSF    FA6.1
06722:  BTFSC  FA6.1
06724:  BRA    6722
06726:  BCF    FA6.2
06728:  MOVF   00,W
0672A:  IORWF  FF2,F
0672C:  CLRF   19
0672E:  BTFSC  FF2.7
06730:  BSF    19.7
06732:  BCF    FF2.7
....................          delay_ms(1); 
06734:  MOVLW  01
06736:  MOVLB  1
06738:  MOVWF  x37
0673A:  MOVLB  0
0673C:  CALL   0D76
06740:  BTFSC  19.7
06742:  BSF    FF2.7
....................          printf("%c%c%c%c", 250, kk, 90, kk+90); // Prendemos  en la red 
06744:  MOVLW  5A
06746:  MOVLB  1
06748:  ADDWF  x1B,W
0674A:  MOVWF  x1C
0674C:  MOVLW  FA
0674E:  MOVWF  x1D
06750:  MOVLB  0
06752:  CALL   23EA
06756:  MOVFF  11B,11D
0675A:  CALL   23EA
0675E:  MOVLW  5A
06760:  MOVLB  1
06762:  MOVWF  x1D
06764:  MOVLB  0
06766:  CALL   23EA
0676A:  MOVFF  11C,11D
0676E:  CALL   23EA
06772:  MOVLB  1
....................       } // si estaba apagado.. 
....................       } // si pertenece al grupo 
06774:  INCF   x1B,F
06776:  BRA    6692
....................       } // for... 
....................       } // si apagado 
....................    break; 
06778:  BRA    6BE8
....................     
....................    case 7: // AUTOMATICO1 // bit 6 de LGrupo 
....................       if ((ON[submenu] == 0) || (ON[submenu] == 10)){ // incierto o prendido 
0677A:  CLRF   03
0677C:  MOVLB  1
0677E:  MOVF   x11,W
06780:  ADDLW  13
06782:  MOVWF  FE9
06784:  MOVLW  01
06786:  ADDWFC 03,W
06788:  MOVWF  FEA
0678A:  MOVF   FEF,F
0678C:  BZ    67A4
0678E:  CLRF   03
06790:  MOVF   x11,W
06792:  ADDLW  13
06794:  MOVWF  FE9
06796:  MOVLW  01
06798:  ADDWFC 03,W
0679A:  MOVWF  FEA
0679C:  MOVF   FEF,W
0679E:  SUBLW  0A
067A0:  BTFSS  FD8.2
067A2:  BRA    68A0
....................       ON[submenu] = 1; // De incierto o prendido --> a apagado 
067A4:  CLRF   03
067A6:  MOVF   x11,W
067A8:  ADDLW  13
067AA:  MOVWF  FE9
067AC:  MOVLW  01
067AE:  ADDWFC 03,W
067B0:  MOVWF  FEA
067B2:  MOVLW  01
067B4:  MOVWF  FEF
....................       for (kk=32;kk<94;kk++) { 
067B6:  MOVLW  20
067B8:  MOVWF  x1B
067BA:  MOVF   x1B,W
067BC:  SUBLW  5D
067BE:  BNC   68A0
....................       if (bit_test(LGrupo[kk],6)){ // si pertenece al grupo 
067C0:  CLRF   03
067C2:  MOVF   x1B,W
067C4:  ADDLW  AA
067C6:  MOVWF  FE9
067C8:  MOVLW  00
067CA:  ADDWFC 03,W
067CC:  MOVWF  FEA
067CE:  MOVFF  FEF,11C
067D2:  BTFSS  x1C.6
067D4:  BRA    689C
....................       if (IntLuz[kk] > 99){ // estaba prendido 
067D6:  CLRF   03
067D8:  MOVF   x1B,W
067DA:  ADDLW  47
067DC:  MOVWF  FE9
067DE:  MOVLW  00
067E0:  ADDWFC 03,W
067E2:  MOVWF  FEA
067E4:  MOVF   FEF,W
067E6:  SUBLW  63
067E8:  BC    689C
....................          IntLuz[kk] = IntLuz[kk] - 100; // apago en el arreglo en RAM 
067EA:  CLRF   03
067EC:  MOVF   x1B,W
067EE:  ADDLW  47
067F0:  MOVWF  01
067F2:  MOVLW  00
067F4:  ADDWFC 03,F
067F6:  MOVFF  03,11D
067FA:  CLRF   03
067FC:  MOVF   x1B,W
067FE:  ADDLW  47
06800:  MOVWF  FE9
06802:  MOVLW  00
06804:  ADDWFC 03,W
06806:  MOVWF  FEA
06808:  MOVLW  64
0680A:  SUBWF  FEF,W
0680C:  MOVFF  11D,FEA
06810:  MOVFF  01,FE9
06814:  MOVWF  FEF
....................          write_eeprom(kk,IntLuz[kk]); // apago en el arreglo en ROM 
06816:  CLRF   03
06818:  MOVF   x1B,W
0681A:  ADDLW  47
0681C:  MOVWF  FE9
0681E:  MOVLW  00
06820:  ADDWFC 03,W
06822:  MOVWF  FEA
06824:  MOVFF  FEF,11C
06828:  MOVF   FF2,W
0682A:  MOVWF  00
0682C:  BCF    FF2.7
0682E:  CLRF   FAA
06830:  MOVFF  11B,FA9
06834:  MOVFF  11C,FA8
06838:  BCF    FA6.6
0683A:  BCF    FA6.7
0683C:  BSF    FA6.2
0683E:  MOVLB  F
06840:  MOVLW  55
06842:  MOVWF  FA7
06844:  MOVLW  AA
06846:  MOVWF  FA7
06848:  BSF    FA6.1
0684A:  BTFSC  FA6.1
0684C:  BRA    684A
0684E:  BCF    FA6.2
06850:  MOVF   00,W
06852:  IORWF  FF2,F
06854:  CLRF   19
06856:  BTFSC  FF2.7
06858:  BSF    19.7
0685A:  BCF    FF2.7
....................          delay_ms(1); 
0685C:  MOVLW  01
0685E:  MOVLB  1
06860:  MOVWF  x37
06862:  MOVLB  0
06864:  CALL   0D76
06868:  BTFSC  19.7
0686A:  BSF    FF2.7
....................          printf("%c%c%c%c", 250, kk, 80, kk+80); // Apagamos  en la red 
0686C:  MOVLW  50
0686E:  MOVLB  1
06870:  ADDWF  x1B,W
06872:  MOVWF  x1C
06874:  MOVLW  FA
06876:  MOVWF  x1D
06878:  MOVLB  0
0687A:  CALL   23EA
0687E:  MOVFF  11B,11D
06882:  CALL   23EA
06886:  MOVLW  50
06888:  MOVLB  1
0688A:  MOVWF  x1D
0688C:  MOVLB  0
0688E:  CALL   23EA
06892:  MOVFF  11C,11D
06896:  CALL   23EA
0689A:  MOVLB  1
....................       } // si estaba prendido.. 
....................       } // si pertenece al grupo 
0689C:  INCF   x1B,F
0689E:  BRA    67BA
....................       } // for... 
....................       } // si incierto o prendido 
....................       if (ON[submenu] == 1) { // apagado 
068A0:  CLRF   03
068A2:  MOVF   x11,W
068A4:  ADDLW  13
068A6:  MOVWF  FE9
068A8:  MOVLW  01
068AA:  ADDWFC 03,W
068AC:  MOVWF  FEA
068AE:  DECFSZ FEF,W
068B0:  BRA    69AE
....................       ON[submenu] = 10; // De apagado --> a prendido 
068B2:  CLRF   03
068B4:  MOVF   x11,W
068B6:  ADDLW  13
068B8:  MOVWF  FE9
068BA:  MOVLW  01
068BC:  ADDWFC 03,W
068BE:  MOVWF  FEA
068C0:  MOVLW  0A
068C2:  MOVWF  FEF
....................       for (kk=32;kk<94;kk++) { 
068C4:  MOVLW  20
068C6:  MOVWF  x1B
068C8:  MOVF   x1B,W
068CA:  SUBLW  5D
068CC:  BNC   69AE
....................       if (bit_test(LGrupo[kk],6)){ // si pertenece al grupo 
068CE:  CLRF   03
068D0:  MOVF   x1B,W
068D2:  ADDLW  AA
068D4:  MOVWF  FE9
068D6:  MOVLW  00
068D8:  ADDWFC 03,W
068DA:  MOVWF  FEA
068DC:  MOVFF  FEF,11C
068E0:  BTFSS  x1C.6
068E2:  BRA    69AA
....................       if (IntLuz[kk] < 99){ // estaba apagado 
068E4:  CLRF   03
068E6:  MOVF   x1B,W
068E8:  ADDLW  47
068EA:  MOVWF  FE9
068EC:  MOVLW  00
068EE:  ADDWFC 03,W
068F0:  MOVWF  FEA
068F2:  MOVF   FEF,W
068F4:  SUBLW  62
068F6:  BNC   69AA
....................          IntLuz[kk] = IntLuz[kk] + 100; // prendo en el arreglo 
068F8:  CLRF   03
068FA:  MOVF   x1B,W
068FC:  ADDLW  47
068FE:  MOVWF  01
06900:  MOVLW  00
06902:  ADDWFC 03,F
06904:  MOVFF  03,11D
06908:  CLRF   03
0690A:  MOVF   x1B,W
0690C:  ADDLW  47
0690E:  MOVWF  FE9
06910:  MOVLW  00
06912:  ADDWFC 03,W
06914:  MOVWF  FEA
06916:  MOVLW  64
06918:  ADDWF  FEF,W
0691A:  MOVFF  11D,FEA
0691E:  MOVFF  01,FE9
06922:  MOVWF  FEF
....................          write_eeprom(kk,IntLuz[kk]); 
06924:  CLRF   03
06926:  MOVF   x1B,W
06928:  ADDLW  47
0692A:  MOVWF  FE9
0692C:  MOVLW  00
0692E:  ADDWFC 03,W
06930:  MOVWF  FEA
06932:  MOVFF  FEF,11C
06936:  MOVF   FF2,W
06938:  MOVWF  00
0693A:  BCF    FF2.7
0693C:  CLRF   FAA
0693E:  MOVFF  11B,FA9
06942:  MOVFF  11C,FA8
06946:  BCF    FA6.6
06948:  BCF    FA6.7
0694A:  BSF    FA6.2
0694C:  MOVLB  F
0694E:  MOVLW  55
06950:  MOVWF  FA7
06952:  MOVLW  AA
06954:  MOVWF  FA7
06956:  BSF    FA6.1
06958:  BTFSC  FA6.1
0695A:  BRA    6958
0695C:  BCF    FA6.2
0695E:  MOVF   00,W
06960:  IORWF  FF2,F
06962:  CLRF   19
06964:  BTFSC  FF2.7
06966:  BSF    19.7
06968:  BCF    FF2.7
....................          delay_ms(1); 
0696A:  MOVLW  01
0696C:  MOVLB  1
0696E:  MOVWF  x37
06970:  MOVLB  0
06972:  CALL   0D76
06976:  BTFSC  19.7
06978:  BSF    FF2.7
....................          printf("%c%c%c%c", 250, kk, 90, kk+90); // Prendemos  en la red 
0697A:  MOVLW  5A
0697C:  MOVLB  1
0697E:  ADDWF  x1B,W
06980:  MOVWF  x1C
06982:  MOVLW  FA
06984:  MOVWF  x1D
06986:  MOVLB  0
06988:  CALL   23EA
0698C:  MOVFF  11B,11D
06990:  CALL   23EA
06994:  MOVLW  5A
06996:  MOVLB  1
06998:  MOVWF  x1D
0699A:  MOVLB  0
0699C:  CALL   23EA
069A0:  MOVFF  11C,11D
069A4:  CALL   23EA
069A8:  MOVLB  1
....................       } // si estaba apagado.. 
....................       } // si pertenece al grupo 
069AA:  INCF   x1B,F
069AC:  BRA    68C8
....................       } // for... 
....................       } // si apagado 
....................    break; 
069AE:  BRA    6BE8
....................        
....................    case 8: // AUTOMATICO2 // bit 7 de LGrupo 
....................       if ((ON[submenu] == 0) || (ON[submenu] == 10)){ // incierto o prendido 
069B0:  CLRF   03
069B2:  MOVLB  1
069B4:  MOVF   x11,W
069B6:  ADDLW  13
069B8:  MOVWF  FE9
069BA:  MOVLW  01
069BC:  ADDWFC 03,W
069BE:  MOVWF  FEA
069C0:  MOVF   FEF,F
069C2:  BZ    69DA
069C4:  CLRF   03
069C6:  MOVF   x11,W
069C8:  ADDLW  13
069CA:  MOVWF  FE9
069CC:  MOVLW  01
069CE:  ADDWFC 03,W
069D0:  MOVWF  FEA
069D2:  MOVF   FEF,W
069D4:  SUBLW  0A
069D6:  BTFSS  FD8.2
069D8:  BRA    6AD6
....................       ON[submenu] = 1; // De incierto o prendido --> a apagado 
069DA:  CLRF   03
069DC:  MOVF   x11,W
069DE:  ADDLW  13
069E0:  MOVWF  FE9
069E2:  MOVLW  01
069E4:  ADDWFC 03,W
069E6:  MOVWF  FEA
069E8:  MOVLW  01
069EA:  MOVWF  FEF
....................       for (kk=32;kk<94;kk++) { 
069EC:  MOVLW  20
069EE:  MOVWF  x1B
069F0:  MOVF   x1B,W
069F2:  SUBLW  5D
069F4:  BNC   6AD6
....................       if (bit_test(LGrupo[kk],7)){ // si pertenece al grupo 
069F6:  CLRF   03
069F8:  MOVF   x1B,W
069FA:  ADDLW  AA
069FC:  MOVWF  FE9
069FE:  MOVLW  00
06A00:  ADDWFC 03,W
06A02:  MOVWF  FEA
06A04:  MOVFF  FEF,11C
06A08:  BTFSS  x1C.7
06A0A:  BRA    6AD2
....................       if (IntLuz[kk] > 99){ // estaba prendido 
06A0C:  CLRF   03
06A0E:  MOVF   x1B,W
06A10:  ADDLW  47
06A12:  MOVWF  FE9
06A14:  MOVLW  00
06A16:  ADDWFC 03,W
06A18:  MOVWF  FEA
06A1A:  MOVF   FEF,W
06A1C:  SUBLW  63
06A1E:  BC    6AD2
....................          IntLuz[kk] = IntLuz[kk] - 100; // apago en el arreglo en RAM 
06A20:  CLRF   03
06A22:  MOVF   x1B,W
06A24:  ADDLW  47
06A26:  MOVWF  01
06A28:  MOVLW  00
06A2A:  ADDWFC 03,F
06A2C:  MOVFF  03,11D
06A30:  CLRF   03
06A32:  MOVF   x1B,W
06A34:  ADDLW  47
06A36:  MOVWF  FE9
06A38:  MOVLW  00
06A3A:  ADDWFC 03,W
06A3C:  MOVWF  FEA
06A3E:  MOVLW  64
06A40:  SUBWF  FEF,W
06A42:  MOVFF  11D,FEA
06A46:  MOVFF  01,FE9
06A4A:  MOVWF  FEF
....................          write_eeprom(kk,IntLuz[kk]); // apago en el arreglo en ROM 
06A4C:  CLRF   03
06A4E:  MOVF   x1B,W
06A50:  ADDLW  47
06A52:  MOVWF  FE9
06A54:  MOVLW  00
06A56:  ADDWFC 03,W
06A58:  MOVWF  FEA
06A5A:  MOVFF  FEF,11C
06A5E:  MOVF   FF2,W
06A60:  MOVWF  00
06A62:  BCF    FF2.7
06A64:  CLRF   FAA
06A66:  MOVFF  11B,FA9
06A6A:  MOVFF  11C,FA8
06A6E:  BCF    FA6.6
06A70:  BCF    FA6.7
06A72:  BSF    FA6.2
06A74:  MOVLB  F
06A76:  MOVLW  55
06A78:  MOVWF  FA7
06A7A:  MOVLW  AA
06A7C:  MOVWF  FA7
06A7E:  BSF    FA6.1
06A80:  BTFSC  FA6.1
06A82:  BRA    6A80
06A84:  BCF    FA6.2
06A86:  MOVF   00,W
06A88:  IORWF  FF2,F
06A8A:  CLRF   19
06A8C:  BTFSC  FF2.7
06A8E:  BSF    19.7
06A90:  BCF    FF2.7
....................          delay_ms(1); 
06A92:  MOVLW  01
06A94:  MOVLB  1
06A96:  MOVWF  x37
06A98:  MOVLB  0
06A9A:  CALL   0D76
06A9E:  BTFSC  19.7
06AA0:  BSF    FF2.7
....................          printf("%c%c%c%c", 250, kk, 80, kk+80); // Apagamos  en la red 
06AA2:  MOVLW  50
06AA4:  MOVLB  1
06AA6:  ADDWF  x1B,W
06AA8:  MOVWF  x1C
06AAA:  MOVLW  FA
06AAC:  MOVWF  x1D
06AAE:  MOVLB  0
06AB0:  CALL   23EA
06AB4:  MOVFF  11B,11D
06AB8:  CALL   23EA
06ABC:  MOVLW  50
06ABE:  MOVLB  1
06AC0:  MOVWF  x1D
06AC2:  MOVLB  0
06AC4:  CALL   23EA
06AC8:  MOVFF  11C,11D
06ACC:  CALL   23EA
06AD0:  MOVLB  1
....................       } // si estaba prendido.. 
....................       } // si pertenece al grupo 
06AD2:  INCF   x1B,F
06AD4:  BRA    69F0
....................       } // for... 
....................       } // si incierto o prendido 
....................       if (ON[submenu] == 1) { // apagado 
06AD6:  CLRF   03
06AD8:  MOVF   x11,W
06ADA:  ADDLW  13
06ADC:  MOVWF  FE9
06ADE:  MOVLW  01
06AE0:  ADDWFC 03,W
06AE2:  MOVWF  FEA
06AE4:  DECFSZ FEF,W
06AE6:  BRA    6BE4
....................       ON[submenu] = 10; // De apagado --> a prendido 
06AE8:  CLRF   03
06AEA:  MOVF   x11,W
06AEC:  ADDLW  13
06AEE:  MOVWF  FE9
06AF0:  MOVLW  01
06AF2:  ADDWFC 03,W
06AF4:  MOVWF  FEA
06AF6:  MOVLW  0A
06AF8:  MOVWF  FEF
....................       for (kk=32;kk<94;kk++) { 
06AFA:  MOVLW  20
06AFC:  MOVWF  x1B
06AFE:  MOVF   x1B,W
06B00:  SUBLW  5D
06B02:  BNC   6BE4
....................       if (bit_test(LGrupo[kk],7)){ // si pertenece al grupo 
06B04:  CLRF   03
06B06:  MOVF   x1B,W
06B08:  ADDLW  AA
06B0A:  MOVWF  FE9
06B0C:  MOVLW  00
06B0E:  ADDWFC 03,W
06B10:  MOVWF  FEA
06B12:  MOVFF  FEF,11C
06B16:  BTFSS  x1C.7
06B18:  BRA    6BE0
....................       if (IntLuz[kk] < 99){ // estaba apagado 
06B1A:  CLRF   03
06B1C:  MOVF   x1B,W
06B1E:  ADDLW  47
06B20:  MOVWF  FE9
06B22:  MOVLW  00
06B24:  ADDWFC 03,W
06B26:  MOVWF  FEA
06B28:  MOVF   FEF,W
06B2A:  SUBLW  62
06B2C:  BNC   6BE0
....................          IntLuz[kk] = IntLuz[kk] + 100; // prendo en el arreglo 
06B2E:  CLRF   03
06B30:  MOVF   x1B,W
06B32:  ADDLW  47
06B34:  MOVWF  01
06B36:  MOVLW  00
06B38:  ADDWFC 03,F
06B3A:  MOVFF  03,11D
06B3E:  CLRF   03
06B40:  MOVF   x1B,W
06B42:  ADDLW  47
06B44:  MOVWF  FE9
06B46:  MOVLW  00
06B48:  ADDWFC 03,W
06B4A:  MOVWF  FEA
06B4C:  MOVLW  64
06B4E:  ADDWF  FEF,W
06B50:  MOVFF  11D,FEA
06B54:  MOVFF  01,FE9
06B58:  MOVWF  FEF
....................          write_eeprom(kk,IntLuz[kk]); 
06B5A:  CLRF   03
06B5C:  MOVF   x1B,W
06B5E:  ADDLW  47
06B60:  MOVWF  FE9
06B62:  MOVLW  00
06B64:  ADDWFC 03,W
06B66:  MOVWF  FEA
06B68:  MOVFF  FEF,11C
06B6C:  MOVF   FF2,W
06B6E:  MOVWF  00
06B70:  BCF    FF2.7
06B72:  CLRF   FAA
06B74:  MOVFF  11B,FA9
06B78:  MOVFF  11C,FA8
06B7C:  BCF    FA6.6
06B7E:  BCF    FA6.7
06B80:  BSF    FA6.2
06B82:  MOVLB  F
06B84:  MOVLW  55
06B86:  MOVWF  FA7
06B88:  MOVLW  AA
06B8A:  MOVWF  FA7
06B8C:  BSF    FA6.1
06B8E:  BTFSC  FA6.1
06B90:  BRA    6B8E
06B92:  BCF    FA6.2
06B94:  MOVF   00,W
06B96:  IORWF  FF2,F
06B98:  CLRF   19
06B9A:  BTFSC  FF2.7
06B9C:  BSF    19.7
06B9E:  BCF    FF2.7
....................          delay_ms(1); 
06BA0:  MOVLW  01
06BA2:  MOVLB  1
06BA4:  MOVWF  x37
06BA6:  MOVLB  0
06BA8:  CALL   0D76
06BAC:  BTFSC  19.7
06BAE:  BSF    FF2.7
....................          printf("%c%c%c%c", 250, kk, 90, kk+90); // Prendemos  en la red 
06BB0:  MOVLW  5A
06BB2:  MOVLB  1
06BB4:  ADDWF  x1B,W
06BB6:  MOVWF  x1C
06BB8:  MOVLW  FA
06BBA:  MOVWF  x1D
06BBC:  MOVLB  0
06BBE:  CALL   23EA
06BC2:  MOVFF  11B,11D
06BC6:  CALL   23EA
06BCA:  MOVLW  5A
06BCC:  MOVLB  1
06BCE:  MOVWF  x1D
06BD0:  MOVLB  0
06BD2:  CALL   23EA
06BD6:  MOVFF  11C,11D
06BDA:  CALL   23EA
06BDE:  MOVLB  1
....................       } // si estaba apagado.. 
....................       } // si pertenece al grupo 
06BE0:  INCF   x1B,F
06BE2:  BRA    6AFE
....................       } // for... 
....................       } // si apagado 
....................    break; 
06BE4:  BRA    6BE8
06BE6:  MOVLB  1
.................... } // switch 
....................  
.................... //if ((IntLuz[submenu] != 0 ) && (IntLuz[submenu] != 100 )) IntLuz[submenu] = IntLuz[submenu] - 3; 
.................... //write_eeprom(submenu,IntLuz[submenu]); 
.................... } else { // editar no habilitado 
06BE8:  BRA    6BF4
.................... --submenu; 
06BEA:  DECF   x11,F
.................... if (submenu == 0) submenu = 1; 
06BEC:  MOVF   x11,F
06BEE:  BNZ   6BF4
06BF0:  MOVLW  01
06BF2:  MOVWF  x11
.................... } 
.................... Rebote = true; 
06BF4:  BSF    34.0
.................... } // si Abajo 
.................... } // si rebote 
....................  
.................... lcd_gotoxy(1,1); 
06BF6:  MOVLW  01
06BF8:  MOVWF  x2B
06BFA:  MOVWF  x2C
06BFC:  MOVLB  0
06BFE:  CALL   240A
.................... printf(lcd_putc, "== Control Grupal =="); 
06C02:  MOVLW  3C
06C04:  MOVWF  FF6
06C06:  MOVLW  03
06C08:  MOVWF  FF7
06C0A:  CALL   24DC
.................... lcd_gotoxy(1,2); 
06C0E:  MOVLW  01
06C10:  MOVLB  1
06C12:  MOVWF  x2B
06C14:  MOVLW  02
06C16:  MOVWF  x2C
06C18:  MOVLB  0
06C1A:  CALL   240A
.................... printf(lcd_putc, "                    "); 
06C1E:  MOVLW  52
06C20:  MOVWF  FF6
06C22:  MOVLW  03
06C24:  MOVWF  FF7
06C26:  CALL   24DC
.................... lcd_gotoxy(1,3); 
06C2A:  MOVLW  01
06C2C:  MOVLB  1
06C2E:  MOVWF  x2B
06C30:  MOVLW  03
06C32:  MOVWF  x2C
06C34:  MOVLB  0
06C36:  CALL   240A
.................... switch (submenu){ 
06C3A:  MOVLW  01
06C3C:  MOVLB  1
06C3E:  SUBWF  x11,W
06C40:  ADDLW  F8
06C42:  BTFSC  FD8.0
06C44:  BRA    6E40
06C46:  ADDLW  08
06C48:  MOVLB  0
06C4A:  GOTO   6F9A
....................    case 1: 
....................       if (editar == false) { 
06C4E:  MOVLB  1
06C50:  BTFSC  x12.0
06C52:  BRA    6C7C
....................       if (bit_test(tiempo1,0)) printf(lcd_putc, " Grupo TODAS:       "); 
06C54:  BTFSS  46.0
06C56:  BRA    6C6A
06C58:  MOVLW  68
06C5A:  MOVWF  FF6
06C5C:  MOVLW  03
06C5E:  MOVWF  FF7
06C60:  MOVLB  0
06C62:  CALL   24DC
06C66:  BRA    6C78
06C68:  MOVLB  1
....................       else printf(lcd_putc, " Grupo      :       "); 
06C6A:  MOVLW  7E
06C6C:  MOVWF  FF6
06C6E:  MOVLW  03
06C70:  MOVWF  FF7
06C72:  MOVLB  0
06C74:  CALL   24DC
....................       } else printf(lcd_putc, " Grupo TODAS:       "); 
06C78:  BRA    6C8A
06C7A:  MOVLB  1
06C7C:  MOVLW  94
06C7E:  MOVWF  FF6
06C80:  MOVLW  03
06C82:  MOVWF  FF7
06C84:  MOVLB  0
06C86:  CALL   24DC
....................    return; 
06C8A:  BRA    6F40
....................  
....................    case 2: 
....................       if (editar == false) { 
06C8C:  MOVLB  1
06C8E:  BTFSC  x12.0
06C90:  BRA    6CBA
....................       if (bit_test(tiempo1,0)) printf(lcd_putc, " Grupo INTERIOR:    "); 
06C92:  BTFSS  46.0
06C94:  BRA    6CA8
06C96:  MOVLW  AA
06C98:  MOVWF  FF6
06C9A:  MOVLW  03
06C9C:  MOVWF  FF7
06C9E:  MOVLB  0
06CA0:  CALL   24DC
06CA4:  BRA    6CB6
06CA6:  MOVLB  1
....................       else printf(lcd_putc, " Grupo         :    "); 
06CA8:  MOVLW  C0
06CAA:  MOVWF  FF6
06CAC:  MOVLW  03
06CAE:  MOVWF  FF7
06CB0:  MOVLB  0
06CB2:  CALL   24DC
....................       } else printf(lcd_putc, " Grupo INTERIOR:    "); 
06CB6:  BRA    6CC8
06CB8:  MOVLB  1
06CBA:  MOVLW  D6
06CBC:  MOVWF  FF6
06CBE:  MOVLW  03
06CC0:  MOVWF  FF7
06CC2:  MOVLB  0
06CC4:  CALL   24DC
....................    return; 
06CC8:  BRA    6F40
....................  
....................    case 3: 
....................       if (editar == false) { 
06CCA:  MOVLB  1
06CCC:  BTFSC  x12.0
06CCE:  BRA    6CF8
....................       if (bit_test(tiempo1,0)) printf(lcd_putc, " Grupo EXTERIOR:    "); 
06CD0:  BTFSS  46.0
06CD2:  BRA    6CE6
06CD4:  MOVLW  EC
06CD6:  MOVWF  FF6
06CD8:  MOVLW  03
06CDA:  MOVWF  FF7
06CDC:  MOVLB  0
06CDE:  CALL   24DC
06CE2:  BRA    6CF4
06CE4:  MOVLB  1
....................       else printf(lcd_putc, " Grupo         :    "); 
06CE6:  MOVLW  02
06CE8:  MOVWF  FF6
06CEA:  MOVLW  04
06CEC:  MOVWF  FF7
06CEE:  MOVLB  0
06CF0:  CALL   24DC
....................       } else printf(lcd_putc, " Grupo EXTERIOR:    "); 
06CF4:  BRA    6D06
06CF6:  MOVLB  1
06CF8:  MOVLW  18
06CFA:  MOVWF  FF6
06CFC:  MOVLW  04
06CFE:  MOVWF  FF7
06D00:  MOVLB  0
06D02:  CALL   24DC
....................    return; 
06D06:  BRA    6F40
....................  
....................    case 4: 
....................       if (editar == false) { 
06D08:  MOVLB  1
06D0A:  BTFSC  x12.0
06D0C:  BRA    6D36
....................       if (bit_test(tiempo1,0)) printf(lcd_putc, " Grupo JARDIN:      "); 
06D0E:  BTFSS  46.0
06D10:  BRA    6D24
06D12:  MOVLW  2E
06D14:  MOVWF  FF6
06D16:  MOVLW  04
06D18:  MOVWF  FF7
06D1A:  MOVLB  0
06D1C:  CALL   24DC
06D20:  BRA    6D32
06D22:  MOVLB  1
....................       else printf(lcd_putc, " Grupo       :      "); 
06D24:  MOVLW  44
06D26:  MOVWF  FF6
06D28:  MOVLW  04
06D2A:  MOVWF  FF7
06D2C:  MOVLB  0
06D2E:  CALL   24DC
....................       } else printf(lcd_putc, " Grupo JARDIN:      "); 
06D32:  BRA    6D44
06D34:  MOVLB  1
06D36:  MOVLW  5A
06D38:  MOVWF  FF6
06D3A:  MOVLW  04
06D3C:  MOVWF  FF7
06D3E:  MOVLB  0
06D40:  CALL   24DC
....................    return; 
06D44:  BRA    6F40
....................  
....................    case 5: 
....................       if (editar == false) { 
06D46:  MOVLB  1
06D48:  BTFSC  x12.0
06D4A:  BRA    6D74
....................       if (bit_test(tiempo1,0)) printf(lcd_putc, " Grupo FRENTE:       "); 
06D4C:  BTFSS  46.0
06D4E:  BRA    6D62
06D50:  MOVLW  70
06D52:  MOVWF  FF6
06D54:  MOVLW  04
06D56:  MOVWF  FF7
06D58:  MOVLB  0
06D5A:  CALL   24DC
06D5E:  BRA    6D70
06D60:  MOVLB  1
....................       else printf(lcd_putc, " Grupo       :       "); 
06D62:  MOVLW  86
06D64:  MOVWF  FF6
06D66:  MOVLW  04
06D68:  MOVWF  FF7
06D6A:  MOVLB  0
06D6C:  CALL   24DC
....................       } else printf(lcd_putc, " Grupo FRENTE:       "); 
06D70:  BRA    6D82
06D72:  MOVLB  1
06D74:  MOVLW  9C
06D76:  MOVWF  FF6
06D78:  MOVLW  04
06D7A:  MOVWF  FF7
06D7C:  MOVLB  0
06D7E:  CALL   24DC
....................    return; 
06D82:  BRA    6F40
....................  
....................    case 6: 
....................       if (editar == false) { 
06D84:  MOVLB  1
06D86:  BTFSC  x12.0
06D88:  BRA    6DB2
....................       if (bit_test(tiempo1,0)) printf(lcd_putc, " Grupo PASILLOS:       "); 
06D8A:  BTFSS  46.0
06D8C:  BRA    6DA0
06D8E:  MOVLW  B2
06D90:  MOVWF  FF6
06D92:  MOVLW  04
06D94:  MOVWF  FF7
06D96:  MOVLB  0
06D98:  CALL   24DC
06D9C:  BRA    6DAE
06D9E:  MOVLB  1
....................       else printf(lcd_putc, " Grupo         :       "); 
06DA0:  MOVLW  CA
06DA2:  MOVWF  FF6
06DA4:  MOVLW  04
06DA6:  MOVWF  FF7
06DA8:  MOVLB  0
06DAA:  CALL   24DC
....................       } else printf(lcd_putc, " Grupo PASILLOS:       "); 
06DAE:  BRA    6DC0
06DB0:  MOVLB  1
06DB2:  MOVLW  E2
06DB4:  MOVWF  FF6
06DB6:  MOVLW  04
06DB8:  MOVWF  FF7
06DBA:  MOVLB  0
06DBC:  CALL   24DC
....................    return; 
06DC0:  BRA    6F40
....................  
....................    case 7: 
....................       if (editar == false) { 
06DC2:  MOVLB  1
06DC4:  BTFSC  x12.0
06DC6:  BRA    6DF0
....................       if (bit_test(tiempo1,0)) printf(lcd_putc, " Grupo AUTOMATICO 1:   "); 
06DC8:  BTFSS  46.0
06DCA:  BRA    6DDE
06DCC:  MOVLW  FA
06DCE:  MOVWF  FF6
06DD0:  MOVLW  04
06DD2:  MOVWF  FF7
06DD4:  MOVLB  0
06DD6:  CALL   24DC
06DDA:  BRA    6DEC
06DDC:  MOVLB  1
....................       else printf(lcd_putc, " Grupo             :   "); 
06DDE:  MOVLW  12
06DE0:  MOVWF  FF6
06DE2:  MOVLW  05
06DE4:  MOVWF  FF7
06DE6:  MOVLB  0
06DE8:  CALL   24DC
....................       } else printf(lcd_putc, " Grupo AUTOMATICO 1:   "); 
06DEC:  BRA    6DFE
06DEE:  MOVLB  1
06DF0:  MOVLW  2A
06DF2:  MOVWF  FF6
06DF4:  MOVLW  05
06DF6:  MOVWF  FF7
06DF8:  MOVLB  0
06DFA:  CALL   24DC
....................    return; 
06DFE:  BRA    6F40
....................  
....................    case 8: 
....................       if (editar == false) { 
06E00:  MOVLB  1
06E02:  BTFSC  x12.0
06E04:  BRA    6E2E
....................       if (bit_test(tiempo1,0)) printf(lcd_putc, " Grupo AUTOMATICO 2:   "); 
06E06:  BTFSS  46.0
06E08:  BRA    6E1C
06E0A:  MOVLW  42
06E0C:  MOVWF  FF6
06E0E:  MOVLW  05
06E10:  MOVWF  FF7
06E12:  MOVLB  0
06E14:  CALL   24DC
06E18:  BRA    6E2A
06E1A:  MOVLB  1
....................       else printf(lcd_putc, " Grupo             :   "); 
06E1C:  MOVLW  5A
06E1E:  MOVWF  FF6
06E20:  MOVLW  05
06E22:  MOVWF  FF7
06E24:  MOVLB  0
06E26:  CALL   24DC
....................       } else printf(lcd_putc, " Grupo AUTOMATICO 2:   "); 
06E2A:  BRA    6E3C
06E2C:  MOVLB  1
06E2E:  MOVLW  72
06E30:  MOVWF  FF6
06E32:  MOVLW  05
06E34:  MOVWF  FF7
06E36:  MOVLB  0
06E38:  CALL   24DC
....................    return; 
06E3C:  BRA    6F40
06E3E:  MOVLB  1
.................... } // switch 
....................  
.................... lcd_gotoxy(1,4); 
06E40:  MOVLW  01
06E42:  MOVWF  x2B
06E44:  MOVLW  04
06E46:  MOVWF  x2C
06E48:  MOVLB  0
06E4A:  CALL   240A
.................... if (ON[submenu] == 0) { // si incierto 
06E4E:  CLRF   03
06E50:  MOVLB  1
06E52:  MOVF   x11,W
06E54:  ADDLW  13
06E56:  MOVWF  FE9
06E58:  MOVLW  01
06E5A:  ADDWFC 03,W
06E5C:  MOVWF  FEA
06E5E:  MOVF   FEF,F
06E60:  BNZ   6E9E
.................... if (editar){ // editar el grupo encendido 
06E62:  BTFSS  x12.0
06E64:  BRA    6E8E
.................... if (bit_test(tiempo1,0)) printf(lcd_putc, "        ???         "); 
06E66:  BTFSS  46.0
06E68:  BRA    6E7C
06E6A:  MOVLW  8A
06E6C:  MOVWF  FF6
06E6E:  MOVLW  05
06E70:  MOVWF  FF7
06E72:  MOVLB  0
06E74:  CALL   24DC
06E78:  BRA    6E8A
06E7A:  MOVLB  1
.................... else printf(lcd_putc, "                    "); 
06E7C:  MOVLW  A0
06E7E:  MOVWF  FF6
06E80:  MOVLW  05
06E82:  MOVWF  FF7
06E84:  MOVLB  0
06E86:  CALL   24DC
.................... } else printf(lcd_putc, "        ???         "); 
06E8A:  BRA    6E9C
06E8C:  MOVLB  1
06E8E:  MOVLW  B6
06E90:  MOVWF  FF6
06E92:  MOVLW  05
06E94:  MOVWF  FF7
06E96:  MOVLB  0
06E98:  CALL   24DC
06E9C:  MOVLB  1
.................... } // si incierto 
....................  
.................... if (ON[submenu] == 1) { 
06E9E:  CLRF   03
06EA0:  MOVF   x11,W
06EA2:  ADDLW  13
06EA4:  MOVWF  FE9
06EA6:  MOVLW  01
06EA8:  ADDWFC 03,W
06EAA:  MOVWF  FEA
06EAC:  DECFSZ FEF,W
06EAE:  BRA    6EEC
.................... if (editar){ // editar el grupo encendido 
06EB0:  BTFSS  x12.0
06EB2:  BRA    6EDC
.................... if (bit_test(tiempo1,0)) printf(lcd_putc, "       APAGADO      "); 
06EB4:  BTFSS  46.0
06EB6:  BRA    6ECA
06EB8:  MOVLW  CC
06EBA:  MOVWF  FF6
06EBC:  MOVLW  05
06EBE:  MOVWF  FF7
06EC0:  MOVLB  0
06EC2:  CALL   24DC
06EC6:  BRA    6ED8
06EC8:  MOVLB  1
.................... else printf(lcd_putc, "                    "); 
06ECA:  MOVLW  E2
06ECC:  MOVWF  FF6
06ECE:  MOVLW  05
06ED0:  MOVWF  FF7
06ED2:  MOVLB  0
06ED4:  CALL   24DC
.................... } else printf(lcd_putc, "       APAGADO      "); 
06ED8:  BRA    6EEA
06EDA:  MOVLB  1
06EDC:  MOVLW  F8
06EDE:  MOVWF  FF6
06EE0:  MOVLW  05
06EE2:  MOVWF  FF7
06EE4:  MOVLB  0
06EE6:  CALL   24DC
06EEA:  MOVLB  1
.................... } 
....................  
.................... if (ON[submenu] == 10) { 
06EEC:  CLRF   03
06EEE:  MOVF   x11,W
06EF0:  ADDLW  13
06EF2:  MOVWF  FE9
06EF4:  MOVLW  01
06EF6:  ADDWFC 03,W
06EF8:  MOVWF  FEA
06EFA:  MOVF   FEF,W
06EFC:  SUBLW  0A
06EFE:  BNZ   6F3C
.................... if (editar){ // editar el grupo encendido 
06F00:  BTFSS  x12.0
06F02:  BRA    6F2C
.................... if (bit_test(tiempo1,0)) printf(lcd_putc, "     ENCENDIDO      "); 
06F04:  BTFSS  46.0
06F06:  BRA    6F1A
06F08:  MOVLW  0E
06F0A:  MOVWF  FF6
06F0C:  MOVLW  06
06F0E:  MOVWF  FF7
06F10:  MOVLB  0
06F12:  CALL   24DC
06F16:  BRA    6F28
06F18:  MOVLB  1
.................... else printf(lcd_putc, "                    "); 
06F1A:  MOVLW  24
06F1C:  MOVWF  FF6
06F1E:  MOVLW  06
06F20:  MOVWF  FF7
06F22:  MOVLB  0
06F24:  CALL   24DC
.................... } else printf(lcd_putc, "     ENCENDIDO      "); 
06F28:  BRA    6F3A
06F2A:  MOVLB  1
06F2C:  MOVLW  3A
06F2E:  MOVWF  FF6
06F30:  MOVLW  06
06F32:  MOVWF  FF7
06F34:  MOVLB  0
06F36:  CALL   24DC
06F3A:  MOVLB  1
.................... } 
06F3C:  GOTO   4810
06F40:  MOVLB  0
....................  
....................  
.................... } // dentro de while 
06F42:  GOTO   9234 (RETURN)
....................  
.................... } // fn 
....................  
....................  
.................... void LuzInt(){ 
*
06FC4:  MOVLW  21
06FC6:  MOVLB  1
06FC8:  MOVWF  x11
06FCA:  BCF    x12.0
....................  
.................... int submenu = 33; 
.................... short editar = false; 
.................... //short ON[99]; 
....................  
.................... while (submenu < 93){ // hasta llenar todas las luces 
06FCC:  MOVF   x11,W
06FCE:  SUBLW  5C
06FD0:  BTFSS  FD8.0
06FD2:  BRA    7478
....................  
.................... restart_wdt(); 
06FD4:  CLRWDT
....................  
.................... if (input(ARRIBA)==1 && input(ABAJO)==1 && input(OOKK)==1 && input(CANCEL)==1) Rebote = false; // Soltamos las teclas 
06FD6:  BSF    F93.0
06FD8:  BTFSS  F81.0
06FDA:  BRA    6FF0
06FDC:  BSF    F93.1
06FDE:  BTFSS  F81.1
06FE0:  BRA    6FF0
06FE2:  BSF    F93.2
06FE4:  BTFSS  F81.2
06FE6:  BRA    6FF0
06FE8:  BSF    F93.3
06FEA:  BTFSS  F81.3
06FEC:  BRA    6FF0
06FEE:  BCF    34.0
....................  
.................... if (Rebote == false){ 
06FF0:  BTFSC  34.0
06FF2:  BRA    7006
.................... if (input(OOKK) == 0){  
06FF4:  BSF    F93.2
06FF6:  BTFSC  F81.2
06FF8:  BRA    7006
.................... if (editar == false) editar = true; 
06FFA:  BTFSC  x12.0
06FFC:  BRA    7002
06FFE:  BSF    x12.0
07000:  BRA    7004
.................... else editar = false; 
07002:  BCF    x12.0
.................... Rebote = true; 
07004:  BSF    34.0
.................... } // si ok 
.................... } 
....................  
.................... if (Rebote == false){ 
07006:  BTFSC  34.0
07008:  BRA    7022
.................... if (input(CANCEL) == 0){ // salgo al toque con cancel 
0700A:  BSF    F93.3
0700C:  BTFSC  F81.3
0700E:  BRA    7022
.................... if (editar == true) editar = false; 
07010:  BTFSS  x12.0
07012:  BRA    7018
07014:  BCF    x12.0
07016:  BRA    7020
.................... else { 
.................... Menu = 33; 
07018:  MOVLW  21
0701A:  MOVWF  27
.................... submenu = 95; 
0701C:  MOVLW  5F
0701E:  MOVWF  x11
.................... } 
.................... Rebote = true; 
07020:  BSF    34.0
.................... } // si cancel 
.................... } 
....................  
.................... if (Rebote == false){ 
07022:  BTFSC  34.0
07024:  BRA    70D8
.................... if (input(ABAJO) == 0){ // si abajo 
07026:  BSF    F93.1
07028:  BTFSC  F81.1
0702A:  BRA    70D8
.................... if (editar){ // editar habilitado 
0702C:  BTFSS  x12.0
0702E:  BRA    70C6
.................... if ((IntLuz[submenu] != 27) && (IntLuz[submenu] != 127)) IntLuz[submenu] = IntLuz[submenu] + 3; 
07030:  CLRF   03
07032:  MOVF   x11,W
07034:  ADDLW  47
07036:  MOVWF  FE9
07038:  MOVLW  00
0703A:  ADDWFC 03,W
0703C:  MOVWF  FEA
0703E:  MOVF   FEF,W
07040:  SUBLW  1B
07042:  BZ    7084
07044:  CLRF   03
07046:  MOVF   x11,W
07048:  ADDLW  47
0704A:  MOVWF  FE9
0704C:  MOVLW  00
0704E:  ADDWFC 03,W
07050:  MOVWF  FEA
07052:  MOVF   FEF,W
07054:  SUBLW  7F
07056:  BZ    7084
07058:  CLRF   03
0705A:  MOVF   x11,W
0705C:  ADDLW  47
0705E:  MOVWF  01
07060:  MOVLW  00
07062:  ADDWFC 03,F
07064:  MOVFF  03,114
07068:  CLRF   03
0706A:  MOVF   x11,W
0706C:  ADDLW  47
0706E:  MOVWF  FE9
07070:  MOVLW  00
07072:  ADDWFC 03,W
07074:  MOVWF  FEA
07076:  MOVLW  03
07078:  ADDWF  FEF,W
0707A:  MOVFF  114,FEA
0707E:  MOVFF  01,FE9
07082:  MOVWF  FEF
.................... write_eeprom(submenu,IntLuz[submenu]); 
07084:  CLRF   03
07086:  MOVF   x11,W
07088:  ADDLW  47
0708A:  MOVWF  FE9
0708C:  MOVLW  00
0708E:  ADDWFC 03,W
07090:  MOVWF  FEA
07092:  MOVFF  FEF,113
07096:  MOVF   FF2,W
07098:  MOVWF  00
0709A:  BCF    FF2.7
0709C:  CLRF   FAA
0709E:  MOVFF  111,FA9
070A2:  MOVFF  113,FA8
070A6:  BCF    FA6.6
070A8:  BCF    FA6.7
070AA:  BSF    FA6.2
070AC:  MOVLB  F
070AE:  MOVLW  55
070B0:  MOVWF  FA7
070B2:  MOVLW  AA
070B4:  MOVWF  FA7
070B6:  BSF    FA6.1
070B8:  BTFSC  FA6.1
070BA:  BRA    70B8
070BC:  BCF    FA6.2
070BE:  MOVF   00,W
070C0:  IORWF  FF2,F
.................... } else { // editar no habilitado 
070C2:  BRA    70D4
070C4:  MOVLB  1
.................... ++submenu; 
070C6:  INCF   x11,F
.................... if (submenu == 93) submenu = 33; 
070C8:  MOVF   x11,W
070CA:  SUBLW  5D
070CC:  BNZ   70D2
070CE:  MOVLW  21
070D0:  MOVWF  x11
070D2:  MOVLB  F
.................... } 
.................... Rebote = true; 
070D4:  BSF    34.0
070D6:  MOVLB  1
.................... } // si Abajo 
.................... } // si rebote 
....................  
....................  
.................... if (Rebote == false){ 
070D8:  BTFSC  34.0
070DA:  BRA    718C
.................... if (input(ARRIBA) == 0){ // si arriba 
070DC:  BSF    F93.0
070DE:  BTFSC  F81.0
070E0:  BRA    718C
.................... if (editar){ // editar habilitado 
070E2:  BTFSS  x12.0
070E4:  BRA    717A
.................... if ((IntLuz[submenu] != 0 ) && (IntLuz[submenu] != 100 )) IntLuz[submenu] = IntLuz[submenu] - 3; 
070E6:  CLRF   03
070E8:  MOVF   x11,W
070EA:  ADDLW  47
070EC:  MOVWF  FE9
070EE:  MOVLW  00
070F0:  ADDWFC 03,W
070F2:  MOVWF  FEA
070F4:  MOVF   FEF,F
070F6:  BZ    7138
070F8:  CLRF   03
070FA:  MOVF   x11,W
070FC:  ADDLW  47
070FE:  MOVWF  FE9
07100:  MOVLW  00
07102:  ADDWFC 03,W
07104:  MOVWF  FEA
07106:  MOVF   FEF,W
07108:  SUBLW  64
0710A:  BZ    7138
0710C:  CLRF   03
0710E:  MOVF   x11,W
07110:  ADDLW  47
07112:  MOVWF  01
07114:  MOVLW  00
07116:  ADDWFC 03,F
07118:  MOVFF  03,114
0711C:  CLRF   03
0711E:  MOVF   x11,W
07120:  ADDLW  47
07122:  MOVWF  FE9
07124:  MOVLW  00
07126:  ADDWFC 03,W
07128:  MOVWF  FEA
0712A:  MOVLW  03
0712C:  SUBWF  FEF,W
0712E:  MOVFF  114,FEA
07132:  MOVFF  01,FE9
07136:  MOVWF  FEF
.................... write_eeprom(submenu,IntLuz[submenu]); 
07138:  CLRF   03
0713A:  MOVF   x11,W
0713C:  ADDLW  47
0713E:  MOVWF  FE9
07140:  MOVLW  00
07142:  ADDWFC 03,W
07144:  MOVWF  FEA
07146:  MOVFF  FEF,113
0714A:  MOVF   FF2,W
0714C:  MOVWF  00
0714E:  BCF    FF2.7
07150:  CLRF   FAA
07152:  MOVFF  111,FA9
07156:  MOVFF  113,FA8
0715A:  BCF    FA6.6
0715C:  BCF    FA6.7
0715E:  BSF    FA6.2
07160:  MOVLB  F
07162:  MOVLW  55
07164:  MOVWF  FA7
07166:  MOVLW  AA
07168:  MOVWF  FA7
0716A:  BSF    FA6.1
0716C:  BTFSC  FA6.1
0716E:  BRA    716C
07170:  BCF    FA6.2
07172:  MOVF   00,W
07174:  IORWF  FF2,F
.................... } else { // editar no habilitado 
07176:  BRA    7188
07178:  MOVLB  1
.................... --submenu; 
0717A:  DECF   x11,F
.................... if (submenu == 32) submenu = 92; 
0717C:  MOVF   x11,W
0717E:  SUBLW  20
07180:  BNZ   7186
07182:  MOVLW  5C
07184:  MOVWF  x11
07186:  MOVLB  F
.................... } 
.................... Rebote = true; 
07188:  BSF    34.0
0718A:  MOVLB  1
.................... } // si Abajo 
.................... } // si rebote 
....................  
.................... lcd_gotoxy(1,1); 
0718C:  MOVLW  01
0718E:  MOVWF  x2B
07190:  MOVWF  x2C
07192:  MOVLB  0
07194:  CALL   240A
.................... printf(lcd_putc, "= Control de luces ="); 
07198:  MOVLW  50
0719A:  MOVWF  FF6
0719C:  MOVLW  06
0719E:  MOVWF  FF7
071A0:  CALL   24DC
.................... lcd_gotoxy(1,2); 
071A4:  MOVLW  01
071A6:  MOVLB  1
071A8:  MOVWF  x2B
071AA:  MOVLW  02
071AC:  MOVWF  x2C
071AE:  MOVLB  0
071B0:  CALL   240A
.................... printf(lcd_putc, "   Configurar la    "); 
071B4:  MOVLW  66
071B6:  MOVWF  FF6
071B8:  MOVLW  06
071BA:  MOVWF  FF7
071BC:  CALL   24DC
.................... lcd_gotoxy(1,3); 
071C0:  MOVLW  01
071C2:  MOVLB  1
071C4:  MOVWF  x2B
071C6:  MOVLW  03
071C8:  MOVWF  x2C
071CA:  MOVLB  0
071CC:  CALL   240A
.................... if (!editar){ // editar falso 
071D0:  MOVLB  1
071D2:  BTFSC  x12.0
071D4:  BRA    7224
.................... if (bit_test(tiempo1,0)){ 
071D6:  BTFSS  46.0
071D8:  BRA    7212
.................... printf(lcd_putc, " intensidad Luz #%02u ",(submenu-32)); 
071DA:  MOVLW  20
071DC:  SUBWF  x11,W
071DE:  MOVWF  x13
071E0:  MOVLW  7C
071E2:  MOVWF  FF6
071E4:  MOVLW  06
071E6:  MOVWF  FF7
071E8:  MOVLW  11
071EA:  MOVWF  x27
071EC:  MOVLB  0
071EE:  CALL   279A
071F2:  MOVFF  113,127
071F6:  MOVLW  01
071F8:  MOVLB  1
071FA:  MOVWF  x28
071FC:  MOVLB  0
071FE:  CALL   271E
07202:  MOVLW  20
07204:  MOVLB  1
07206:  MOVWF  x2A
07208:  MOVLB  0
0720A:  CALL   2474
.................... } else printf(lcd_putc, " intensidad Luz     "); 
0720E:  BRA    7220
07210:  MOVLB  1
07212:  MOVLW  94
07214:  MOVWF  FF6
07216:  MOVLW  06
07218:  MOVWF  FF7
0721A:  MOVLB  0
0721C:  CALL   24DC
.................... }else { // editar verdadero 
07220:  BRA    7258
07222:  MOVLB  1
.................... printf(lcd_putc, " intensidad Luz #%02u ",(submenu-32)); 
07224:  MOVLW  20
07226:  SUBWF  x11,W
07228:  MOVWF  x13
0722A:  MOVLW  AA
0722C:  MOVWF  FF6
0722E:  MOVLW  06
07230:  MOVWF  FF7
07232:  MOVLW  11
07234:  MOVWF  x27
07236:  MOVLB  0
07238:  CALL   279A
0723C:  MOVFF  113,127
07240:  MOVLW  01
07242:  MOVLB  1
07244:  MOVWF  x28
07246:  MOVLB  0
07248:  CALL   271E
0724C:  MOVLW  20
0724E:  MOVLB  1
07250:  MOVWF  x2A
07252:  MOVLB  0
07254:  CALL   2474
.................... } 
.................... lcd_gotoxy(1,4); 
07258:  MOVLW  01
0725A:  MOVLB  1
0725C:  MOVWF  x2B
0725E:  MOVLW  04
07260:  MOVWF  x2C
07262:  MOVLB  0
07264:  CALL   240A
.................... if (editar) { // si editar prendido 
07268:  MOVLB  1
0726A:  BTFSS  x12.0
0726C:  BRA    737E
.................... if (bit_test(tiempo1,0)){ 
0726E:  BTFSS  46.0
07270:  BRA    736C
.................... if (IntLuz[submenu] > 80){ // La luz esta prendida 
07272:  CLRF   03
07274:  MOVF   x11,W
07276:  ADDLW  47
07278:  MOVWF  FE9
0727A:  MOVLW  00
0727C:  ADDWFC 03,W
0727E:  MOVWF  FEA
07280:  MOVF   FEF,W
07282:  SUBLW  50
07284:  BC    72FA
.................... printf(lcd_putc, "         %u%%        ",( ( 30 - (IntLuz[submenu]-100) ) / 3 ) * 10); 
07286:  CLRF   03
07288:  MOVF   x11,W
0728A:  ADDLW  47
0728C:  MOVWF  FE9
0728E:  MOVLW  00
07290:  ADDWFC 03,W
07292:  MOVWF  FEA
07294:  MOVLW  64
07296:  SUBWF  FEF,W
07298:  XORLW  FF
0729A:  ADDLW  1F
0729C:  MOVWF  x14
0729E:  MOVWF  x29
072A0:  MOVLW  03
072A2:  MOVWF  x2A
072A4:  MOVLB  0
072A6:  CALL   26F2
072AA:  MOVF   01,W
072AC:  MULLW  0A
072AE:  MOVFF  FF3,113
072B2:  MOVLB  1
072B4:  MOVLW  C2
072B6:  MOVWF  FF6
072B8:  MOVLW  06
072BA:  MOVWF  FF7
072BC:  MOVLW  09
072BE:  MOVWF  x27
072C0:  MOVLB  0
072C2:  CALL   279A
072C6:  MOVFF  113,127
072CA:  MOVLW  1B
072CC:  MOVLB  1
072CE:  MOVWF  x28
072D0:  MOVLB  0
072D2:  CALL   271E
072D6:  MOVLW  25
072D8:  MOVLB  1
072DA:  MOVWF  x2A
072DC:  MOVLB  0
072DE:  CALL   2474
072E2:  MOVLW  CF
072E4:  MOVWF  FF6
072E6:  MOVLW  06
072E8:  MOVWF  FF7
072EA:  MOVLW  08
072EC:  MOVLB  1
072EE:  MOVWF  x27
072F0:  MOVLB  0
072F2:  CALL   279A
.................... } else { // Luz apagada 
072F6:  BRA    7368
072F8:  MOVLB  1
.................... printf(lcd_putc, "         %u%%        ",( ( 30 - (IntLuz[submenu]) ) / 3 ) * 10); 
072FA:  CLRF   03
072FC:  MOVF   x11,W
072FE:  ADDLW  47
07300:  MOVWF  FE9
07302:  MOVLW  00
07304:  ADDWFC 03,W
07306:  MOVWF  FEA
07308:  MOVF   FEF,W
0730A:  XORLW  FF
0730C:  ADDLW  1F
0730E:  MOVWF  x14
07310:  MOVWF  x29
07312:  MOVLW  03
07314:  MOVWF  x2A
07316:  MOVLB  0
07318:  CALL   26F2
0731C:  MOVF   01,W
0731E:  MULLW  0A
07320:  MOVFF  FF3,113
07324:  MOVLB  1
07326:  MOVLW  D8
07328:  MOVWF  FF6
0732A:  MOVLW  06
0732C:  MOVWF  FF7
0732E:  MOVLW  09
07330:  MOVWF  x27
07332:  MOVLB  0
07334:  CALL   279A
07338:  MOVFF  113,127
0733C:  MOVLW  1B
0733E:  MOVLB  1
07340:  MOVWF  x28
07342:  MOVLB  0
07344:  CALL   271E
07348:  MOVLW  25
0734A:  MOVLB  1
0734C:  MOVWF  x2A
0734E:  MOVLB  0
07350:  CALL   2474
07354:  MOVLW  E5
07356:  MOVWF  FF6
07358:  MOVLW  06
0735A:  MOVWF  FF7
0735C:  MOVLW  08
0735E:  MOVLB  1
07360:  MOVWF  x27
07362:  MOVLB  0
07364:  CALL   279A
.................... } 
.................... } else { // si bit si 
07368:  BRA    737A
0736A:  MOVLB  1
.................... printf(lcd_putc, "                    "); 
0736C:  MOVLW  EE
0736E:  MOVWF  FF6
07370:  MOVLW  06
07372:  MOVWF  FF7
07374:  MOVLB  0
07376:  CALL   24DC
.................... } 
.................... } else {  // Editar apagado 
0737A:  BRA    7474
0737C:  MOVLB  1
.................... if (IntLuz[submenu] > 80){ // La luz esta prendida 
0737E:  CLRF   03
07380:  MOVF   x11,W
07382:  ADDLW  47
07384:  MOVWF  FE9
07386:  MOVLW  00
07388:  ADDWFC 03,W
0738A:  MOVWF  FEA
0738C:  MOVF   FEF,W
0738E:  SUBLW  50
07390:  BC    7406
.................... printf(lcd_putc, "         %u%%        ",( ( 30 - (IntLuz[submenu]-100) ) / 3 ) * 10); 
07392:  CLRF   03
07394:  MOVF   x11,W
07396:  ADDLW  47
07398:  MOVWF  FE9
0739A:  MOVLW  00
0739C:  ADDWFC 03,W
0739E:  MOVWF  FEA
073A0:  MOVLW  64
073A2:  SUBWF  FEF,W
073A4:  XORLW  FF
073A6:  ADDLW  1F
073A8:  MOVWF  x14
073AA:  MOVWF  x29
073AC:  MOVLW  03
073AE:  MOVWF  x2A
073B0:  MOVLB  0
073B2:  CALL   26F2
073B6:  MOVF   01,W
073B8:  MULLW  0A
073BA:  MOVFF  FF3,113
073BE:  MOVLB  1
073C0:  MOVLW  04
073C2:  MOVWF  FF6
073C4:  MOVLW  07
073C6:  MOVWF  FF7
073C8:  MOVLW  09
073CA:  MOVWF  x27
073CC:  MOVLB  0
073CE:  CALL   279A
073D2:  MOVFF  113,127
073D6:  MOVLW  1B
073D8:  MOVLB  1
073DA:  MOVWF  x28
073DC:  MOVLB  0
073DE:  CALL   271E
073E2:  MOVLW  25
073E4:  MOVLB  1
073E6:  MOVWF  x2A
073E8:  MOVLB  0
073EA:  CALL   2474
073EE:  MOVLW  11
073F0:  MOVWF  FF6
073F2:  MOVLW  07
073F4:  MOVWF  FF7
073F6:  MOVLW  08
073F8:  MOVLB  1
073FA:  MOVWF  x27
073FC:  MOVLB  0
073FE:  CALL   279A
.................... } else { // luz apagada 
07402:  BRA    7474
07404:  MOVLB  1
.................... printf(lcd_putc, "         %u%%        ",( ( 30 - (IntLuz[submenu]) ) / 3 ) * 10); 
07406:  CLRF   03
07408:  MOVF   x11,W
0740A:  ADDLW  47
0740C:  MOVWF  FE9
0740E:  MOVLW  00
07410:  ADDWFC 03,W
07412:  MOVWF  FEA
07414:  MOVF   FEF,W
07416:  XORLW  FF
07418:  ADDLW  1F
0741A:  MOVWF  x14
0741C:  MOVWF  x29
0741E:  MOVLW  03
07420:  MOVWF  x2A
07422:  MOVLB  0
07424:  CALL   26F2
07428:  MOVF   01,W
0742A:  MULLW  0A
0742C:  MOVFF  FF3,113
07430:  MOVLB  1
07432:  MOVLW  1A
07434:  MOVWF  FF6
07436:  MOVLW  07
07438:  MOVWF  FF7
0743A:  MOVLW  09
0743C:  MOVWF  x27
0743E:  MOVLB  0
07440:  CALL   279A
07444:  MOVFF  113,127
07448:  MOVLW  1B
0744A:  MOVLB  1
0744C:  MOVWF  x28
0744E:  MOVLB  0
07450:  CALL   271E
07454:  MOVLW  25
07456:  MOVLB  1
07458:  MOVWF  x2A
0745A:  MOVLB  0
0745C:  CALL   2474
07460:  MOVLW  27
07462:  MOVWF  FF6
07464:  MOVLW  07
07466:  MOVWF  FF7
07468:  MOVLW  08
0746A:  MOVLB  1
0746C:  MOVWF  x27
0746E:  MOVLB  0
07470:  CALL   279A
.................... } 
.................... } // else editar (apagado) 
07474:  MOVLB  1
07476:  BRA    6FCC
....................  
....................  
.................... } // dentro de while 
07478:  MOVLB  0
0747A:  GOTO   9242 (RETURN)
....................  
....................  
....................  
.................... } // fn 
....................  
.................... void LuzOnOff(){ 
*
0440A:  MOVLW  21
0440C:  MOVLB  1
0440E:  MOVWF  x11
....................  
.................... int submenu = 33; 
....................  
.................... while (submenu < 93){ // hasta llenar todas las luces 
04410:  MOVF   x11,W
04412:  SUBLW  5C
04414:  BTFSS  FD8.0
04416:  BRA    47E8
....................  
.................... restart_wdt(); 
04418:  CLRWDT
....................  
.................... if (input(ARRIBA)==1 && input(ABAJO)==1 && input(OOKK)==1 && input(CANCEL)==1) Rebote = false; // Soltamos las teclas 
0441A:  BSF    F93.0
0441C:  BTFSS  F81.0
0441E:  BRA    4434
04420:  BSF    F93.1
04422:  BTFSS  F81.1
04424:  BRA    4434
04426:  BSF    F93.2
04428:  BTFSS  F81.2
0442A:  BRA    4434
0442C:  BSF    F93.3
0442E:  BTFSS  F81.3
04430:  BRA    4434
04432:  BCF    34.0
....................  
.................... if (Rebote == false){ 
04434:  BTFSC  34.0
04436:  BRA    45BA
.................... if (input(OOKK) == 0){ // si ok, solo sumo 
04438:  BSF    F93.2
0443A:  BTFSC  F81.2
0443C:  BRA    45BA
.................... if (IntLuz[submenu] > 80){ // La luz esta prendida 
0443E:  CLRF   03
04440:  MOVF   x11,W
04442:  ADDLW  47
04444:  MOVWF  FE9
04446:  MOVLW  00
04448:  ADDWFC 03,W
0444A:  MOVWF  FEA
0444C:  MOVF   FEF,W
0444E:  SUBLW  50
04450:  BC    4506
.................... IntLuz[submenu] = IntLuz[submenu] - 100; // (la apagamos en ram) 
04452:  CLRF   03
04454:  MOVF   x11,W
04456:  ADDLW  47
04458:  MOVWF  01
0445A:  MOVLW  00
0445C:  ADDWFC 03,F
0445E:  MOVFF  03,113
04462:  CLRF   03
04464:  MOVF   x11,W
04466:  ADDLW  47
04468:  MOVWF  FE9
0446A:  MOVLW  00
0446C:  ADDWFC 03,W
0446E:  MOVWF  FEA
04470:  MOVLW  64
04472:  SUBWF  FEF,W
04474:  MOVFF  113,FEA
04478:  MOVFF  01,FE9
0447C:  MOVWF  FEF
.................... write_eeprom(submenu,IntLuz[submenu]); 
0447E:  CLRF   03
04480:  MOVF   x11,W
04482:  ADDLW  47
04484:  MOVWF  FE9
04486:  MOVLW  00
04488:  ADDWFC 03,W
0448A:  MOVWF  FEA
0448C:  MOVFF  FEF,112
04490:  MOVF   FF2,W
04492:  MOVWF  00
04494:  BCF    FF2.7
04496:  CLRF   FAA
04498:  MOVFF  111,FA9
0449C:  MOVFF  112,FA8
044A0:  BCF    FA6.6
044A2:  BCF    FA6.7
044A4:  BSF    FA6.2
044A6:  MOVLB  F
044A8:  MOVLW  55
044AA:  MOVWF  FA7
044AC:  MOVLW  AA
044AE:  MOVWF  FA7
044B0:  BSF    FA6.1
044B2:  BTFSC  FA6.1
044B4:  BRA    44B2
044B6:  BCF    FA6.2
044B8:  MOVF   00,W
044BA:  IORWF  FF2,F
044BC:  CLRF   19
044BE:  BTFSC  FF2.7
044C0:  BSF    19.7
044C2:  BCF    FF2.7
.................... delay_ms(1); 
044C4:  MOVLW  01
044C6:  MOVLB  1
044C8:  MOVWF  x37
044CA:  MOVLB  0
044CC:  CALL   0D76
044D0:  BTFSC  19.7
044D2:  BSF    FF2.7
.................... printf("%c%c%c%c", 250, submenu, 80, submenu + 80); // La apagamos en la red 
044D4:  MOVLW  50
044D6:  MOVLB  1
044D8:  ADDWF  x11,W
044DA:  MOVWF  x12
044DC:  MOVLW  FA
044DE:  MOVWF  x1D
044E0:  MOVLB  0
044E2:  CALL   23EA
044E6:  MOVFF  111,11D
044EA:  CALL   23EA
044EE:  MOVLW  50
044F0:  MOVLB  1
044F2:  MOVWF  x1D
044F4:  MOVLB  0
044F6:  CALL   23EA
044FA:  MOVFF  112,11D
044FE:  CALL   23EA
.................... } else { // La luz esta apagada 
04502:  BRA    45B6
04504:  MOVLB  1
.................... IntLuz[submenu] = IntLuz[submenu] + 100; // (la prendemos en ram) 
04506:  CLRF   03
04508:  MOVF   x11,W
0450A:  ADDLW  47
0450C:  MOVWF  01
0450E:  MOVLW  00
04510:  ADDWFC 03,F
04512:  MOVFF  03,113
04516:  CLRF   03
04518:  MOVF   x11,W
0451A:  ADDLW  47
0451C:  MOVWF  FE9
0451E:  MOVLW  00
04520:  ADDWFC 03,W
04522:  MOVWF  FEA
04524:  MOVLW  64
04526:  ADDWF  FEF,W
04528:  MOVFF  113,FEA
0452C:  MOVFF  01,FE9
04530:  MOVWF  FEF
.................... write_eeprom(submenu,IntLuz[submenu]); 
04532:  CLRF   03
04534:  MOVF   x11,W
04536:  ADDLW  47
04538:  MOVWF  FE9
0453A:  MOVLW  00
0453C:  ADDWFC 03,W
0453E:  MOVWF  FEA
04540:  MOVFF  FEF,112
04544:  MOVF   FF2,W
04546:  MOVWF  00
04548:  BCF    FF2.7
0454A:  CLRF   FAA
0454C:  MOVFF  111,FA9
04550:  MOVFF  112,FA8
04554:  BCF    FA6.6
04556:  BCF    FA6.7
04558:  BSF    FA6.2
0455A:  MOVLB  F
0455C:  MOVLW  55
0455E:  MOVWF  FA7
04560:  MOVLW  AA
04562:  MOVWF  FA7
04564:  BSF    FA6.1
04566:  BTFSC  FA6.1
04568:  BRA    4566
0456A:  BCF    FA6.2
0456C:  MOVF   00,W
0456E:  IORWF  FF2,F
04570:  CLRF   19
04572:  BTFSC  FF2.7
04574:  BSF    19.7
04576:  BCF    FF2.7
.................... delay_ms(1); 
04578:  MOVLW  01
0457A:  MOVLB  1
0457C:  MOVWF  x37
0457E:  MOVLB  0
04580:  CALL   0D76
04584:  BTFSC  19.7
04586:  BSF    FF2.7
.................... printf("%c%c%c%c", 250, submenu, 90, submenu + 90); // La prendemos en la red 
04588:  MOVLW  5A
0458A:  MOVLB  1
0458C:  ADDWF  x11,W
0458E:  MOVWF  x12
04590:  MOVLW  FA
04592:  MOVWF  x1D
04594:  MOVLB  0
04596:  CALL   23EA
0459A:  MOVFF  111,11D
0459E:  CALL   23EA
045A2:  MOVLW  5A
045A4:  MOVLB  1
045A6:  MOVWF  x1D
045A8:  MOVLB  0
045AA:  CALL   23EA
045AE:  MOVFF  112,11D
045B2:  CALL   23EA
.................... } 
.................... Rebote = true; 
045B6:  BSF    34.0
045B8:  MOVLB  1
.................... } // si ok 
.................... } 
....................  
.................... if (Rebote == false){ 
045BA:  BTFSC  34.0
045BC:  BRA    45CE
.................... if (input(CANCEL) == 0){ // salgo al toque con cancel 
045BE:  BSF    F93.3
045C0:  BTFSC  F81.3
045C2:  BRA    45CE
.................... Rebote = true; 
045C4:  BSF    34.0
.................... Menu = 31; 
045C6:  MOVLW  1F
045C8:  MOVWF  27
.................... submenu = 95; 
045CA:  MOVLW  5F
045CC:  MOVWF  x11
.................... } // si cancel 
.................... } 
....................  
.................... if (Rebote == false){ 
045CE:  BTFSC  34.0
045D0:  BRA    45E6
.................... if (input(ABAJO) == 0){ // si abajo 
045D2:  BSF    F93.1
045D4:  BTFSC  F81.1
045D6:  BRA    45E6
.................... Rebote = true; 
045D8:  BSF    34.0
.................... ++submenu; 
045DA:  INCF   x11,F
.................... if (submenu == 93) submenu = 33; 
045DC:  MOVF   x11,W
045DE:  SUBLW  5D
045E0:  BNZ   45E6
045E2:  MOVLW  21
045E4:  MOVWF  x11
.................... } // si Abajo 
.................... } // si rebote 
....................  
.................... if (Rebote == false){ 
045E6:  BTFSC  34.0
045E8:  BRA    45FE
.................... if (input(ARRIBA) == 0){ // si abajo 
045EA:  BSF    F93.0
045EC:  BTFSC  F81.0
045EE:  BRA    45FE
.................... Rebote = true; 
045F0:  BSF    34.0
.................... --submenu; 
045F2:  DECF   x11,F
.................... if (submenu == 32) submenu = 92; 
045F4:  MOVF   x11,W
045F6:  SUBLW  20
045F8:  BNZ   45FE
045FA:  MOVLW  5C
045FC:  MOVWF  x11
.................... } // si Abajo 
.................... } // si rebote 
....................  
....................  
.................... lcd_gotoxy(1,1); 
045FE:  MOVLW  01
04600:  MOVWF  x2B
04602:  MOVWF  x2C
04604:  MOVLB  0
04606:  CALL   240A
.................... printf(lcd_putc, "= Control de luces ="); 
0460A:  MOVLW  30
0460C:  MOVWF  FF6
0460E:  MOVLW  07
04610:  MOVWF  FF7
04612:  CALL   24DC
.................... lcd_gotoxy(1,2); 
04616:  MOVLW  01
04618:  MOVLB  1
0461A:  MOVWF  x2B
0461C:  MOVLW  02
0461E:  MOVWF  x2C
04620:  MOVLB  0
04622:  CALL   240A
.................... printf(lcd_putc, " Estado de Luz #%02u: ",(submenu-32)); 
04626:  MOVLW  20
04628:  MOVLB  1
0462A:  SUBWF  x11,W
0462C:  MOVWF  x12
0462E:  MOVLW  46
04630:  MOVWF  FF6
04632:  MOVLW  07
04634:  MOVWF  FF7
04636:  MOVLW  10
04638:  MOVWF  x27
0463A:  MOVLB  0
0463C:  CALL   279A
04640:  MOVFF  112,127
04644:  MOVLW  01
04646:  MOVLB  1
04648:  MOVWF  x28
0464A:  MOVLB  0
0464C:  CALL   271E
04650:  MOVLW  3A
04652:  MOVLB  1
04654:  MOVWF  x2A
04656:  MOVLB  0
04658:  CALL   2474
0465C:  MOVLW  20
0465E:  MOVLB  1
04660:  MOVWF  x2A
04662:  MOVLB  0
04664:  CALL   2474
.................... lcd_gotoxy(1,3); 
04668:  MOVLW  01
0466A:  MOVLB  1
0466C:  MOVWF  x2B
0466E:  MOVLW  03
04670:  MOVWF  x2C
04672:  MOVLB  0
04674:  CALL   240A
.................... if (IntLuz[submenu] > 80){ // La luz esta prendida 
04678:  CLRF   03
0467A:  MOVLB  1
0467C:  MOVF   x11,W
0467E:  ADDLW  47
04680:  MOVWF  FE9
04682:  MOVLW  00
04684:  ADDWFC 03,W
04686:  MOVWF  FEA
04688:  MOVF   FEF,W
0468A:  SUBLW  50
0468C:  BC    473C
.................... if (bit_test(tiempo1,0)) printf(lcd_putc, "     ENCENDIDA      "); 
0468E:  BTFSS  46.0
04690:  BRA    46A4
04692:  MOVLW  5E
04694:  MOVWF  FF6
04696:  MOVLW  07
04698:  MOVWF  FF7
0469A:  MOVLB  0
0469C:  CALL   24DC
046A0:  BRA    46B2
046A2:  MOVLB  1
.................... else printf(lcd_putc, "                    "); 
046A4:  MOVLW  74
046A6:  MOVWF  FF6
046A8:  MOVLW  07
046AA:  MOVWF  FF7
046AC:  MOVLB  0
046AE:  CALL   24DC
.................... lcd_gotoxy(1,4); 
046B2:  MOVLW  01
046B4:  MOVLB  1
046B6:  MOVWF  x2B
046B8:  MOVLW  04
046BA:  MOVWF  x2C
046BC:  MOVLB  0
046BE:  CALL   240A
.................... printf(lcd_putc, "  Intensidad: %u%%  ",( ( 30 - (IntLuz[submenu]-100) ) / 3 ) * 10); 
046C2:  CLRF   03
046C4:  MOVLB  1
046C6:  MOVF   x11,W
046C8:  ADDLW  47
046CA:  MOVWF  FE9
046CC:  MOVLW  00
046CE:  ADDWFC 03,W
046D0:  MOVWF  FEA
046D2:  MOVLW  64
046D4:  SUBWF  FEF,W
046D6:  XORLW  FF
046D8:  ADDLW  1F
046DA:  MOVWF  x13
046DC:  MOVWF  x29
046DE:  MOVLW  03
046E0:  MOVWF  x2A
046E2:  MOVLB  0
046E4:  CALL   26F2
046E8:  MOVF   01,W
046EA:  MULLW  0A
046EC:  MOVFF  FF3,112
046F0:  MOVLB  1
046F2:  MOVLW  8A
046F4:  MOVWF  FF6
046F6:  MOVLW  07
046F8:  MOVWF  FF7
046FA:  MOVLW  0E
046FC:  MOVWF  x27
046FE:  MOVLB  0
04700:  CALL   279A
04704:  MOVFF  112,127
04708:  MOVLW  1B
0470A:  MOVLB  1
0470C:  MOVWF  x28
0470E:  MOVLB  0
04710:  CALL   271E
04714:  MOVLW  25
04716:  MOVLB  1
04718:  MOVWF  x2A
0471A:  MOVLB  0
0471C:  CALL   2474
04720:  MOVLW  20
04722:  MOVLB  1
04724:  MOVWF  x2A
04726:  MOVLB  0
04728:  CALL   2474
0472C:  MOVLW  20
0472E:  MOVLB  1
04730:  MOVWF  x2A
04732:  MOVLB  0
04734:  CALL   2474
.................... } else { 
04738:  BRA    47E4
0473A:  MOVLB  1
.................... if (bit_test(tiempo1,0)) printf(lcd_putc, "      APAGADA       "); 
0473C:  BTFSS  46.0
0473E:  BRA    4752
04740:  MOVLW  A0
04742:  MOVWF  FF6
04744:  MOVLW  07
04746:  MOVWF  FF7
04748:  MOVLB  0
0474A:  CALL   24DC
0474E:  BRA    4760
04750:  MOVLB  1
.................... else printf(lcd_putc, "                    "); 
04752:  MOVLW  B6
04754:  MOVWF  FF6
04756:  MOVLW  07
04758:  MOVWF  FF7
0475A:  MOVLB  0
0475C:  CALL   24DC
.................... lcd_gotoxy(1,4); 
04760:  MOVLW  01
04762:  MOVLB  1
04764:  MOVWF  x2B
04766:  MOVLW  04
04768:  MOVWF  x2C
0476A:  MOVLB  0
0476C:  CALL   240A
.................... printf(lcd_putc, "  Intensidad: %u%%  ",( ( 30 - (IntLuz[submenu]) ) / 3 ) * 10); 
04770:  CLRF   03
04772:  MOVLB  1
04774:  MOVF   x11,W
04776:  ADDLW  47
04778:  MOVWF  FE9
0477A:  MOVLW  00
0477C:  ADDWFC 03,W
0477E:  MOVWF  FEA
04780:  MOVF   FEF,W
04782:  XORLW  FF
04784:  ADDLW  1F
04786:  MOVWF  x13
04788:  MOVWF  x29
0478A:  MOVLW  03
0478C:  MOVWF  x2A
0478E:  MOVLB  0
04790:  CALL   26F2
04794:  MOVF   01,W
04796:  MULLW  0A
04798:  MOVFF  FF3,112
0479C:  MOVLB  1
0479E:  MOVLW  CC
047A0:  MOVWF  FF6
047A2:  MOVLW  07
047A4:  MOVWF  FF7
047A6:  MOVLW  0E
047A8:  MOVWF  x27
047AA:  MOVLB  0
047AC:  CALL   279A
047B0:  MOVFF  112,127
047B4:  MOVLW  1B
047B6:  MOVLB  1
047B8:  MOVWF  x28
047BA:  MOVLB  0
047BC:  CALL   271E
047C0:  MOVLW  25
047C2:  MOVLB  1
047C4:  MOVWF  x2A
047C6:  MOVLB  0
047C8:  CALL   2474
047CC:  MOVLW  20
047CE:  MOVLB  1
047D0:  MOVWF  x2A
047D2:  MOVLB  0
047D4:  CALL   2474
047D8:  MOVLW  20
047DA:  MOVLB  1
047DC:  MOVWF  x2A
047DE:  MOVLB  0
047E0:  CALL   2474
.................... } 
047E4:  MOVLB  1
047E6:  BRA    4410
....................  
.................... } // dentro de while 
047E8:  MOVLB  0
047EA:  GOTO   9226 (RETURN)
.................... } // fn 
....................  
....................  
.................... void ActAlarma(){ 
....................  
.................... LIMPIARLCD; 
*
03BA0:  MOVLW  E2
03BA2:  MOVWF  FF6
03BA4:  MOVLW  07
03BA6:  MOVWF  FF7
03BA8:  CALL   24DC
....................  
.................... int submenu = 1; 
.................... int segu; // Auxiliar para contar los segundos 
.................... int tpoo = (TpoSalida + 1); // tiempo para mostrar 
03BAC:  MOVLW  01
03BAE:  MOVLB  1
03BB0:  MOVWF  x11
03BB2:  ADDWF  x10,W
03BB4:  MOVWF  x13
....................  
.................... while (submenu < 3){ // hasta llenar todo 
03BB6:  MOVF   x11,W
03BB8:  SUBLW  02
03BBA:  BTFSS  FD8.0
03BBC:  BRA    3E04
....................  
.................... if (input(ARRIBA)==1 && input(ABAJO)==1 && input(OOKK)==1 && input(CANCEL)==1) Rebote = false; // Soltamos las teclas 
03BBE:  BSF    F93.0
03BC0:  BTFSS  F81.0
03BC2:  BRA    3BD8
03BC4:  BSF    F93.1
03BC6:  BTFSS  F81.1
03BC8:  BRA    3BD8
03BCA:  BSF    F93.2
03BCC:  BTFSS  F81.2
03BCE:  BRA    3BD8
03BD0:  BSF    F93.3
03BD2:  BTFSS  F81.3
03BD4:  BRA    3BD8
03BD6:  BCF    34.0
....................  
.................... if (Rebote == false){ 
03BD8:  BTFSC  34.0
03BDA:  BRA    3BEA
.................... if (input(OOKK) == 0){ // si ok, solo sumo 
03BDC:  BSF    F93.2
03BDE:  BTFSC  F81.2
03BE0:  BRA    3BEA
.................... if (submenu == 1) ++submenu; 
03BE2:  DECFSZ x11,W
03BE4:  BRA    3BE8
03BE6:  INCF   x11,F
.................... Rebote = true; 
03BE8:  BSF    34.0
.................... } // si ok 
.................... } 
....................  
.................... if (Rebote == false){ 
03BEA:  BTFSC  34.0
03BEC:  BRA    3C08
.................... if (input(CANCEL) == 0){ // si cancel solo resto o salgo con 10 
03BEE:  BSF    F93.3
03BF0:  BTFSC  F81.3
03BF2:  BRA    3C08
.................... if (submenu == 1) --submenu; 
03BF4:  DECFSZ x11,W
03BF6:  BRA    3BFA
03BF8:  DECF   x11,F
.................... Rebote = true; 
03BFA:  BSF    34.0
.................... if (submenu == 0) { 
03BFC:  MOVF   x11,F
03BFE:  BNZ   3C08
.................... submenu=10; 
03C00:  MOVLW  0A
03C02:  MOVWF  x11
.................... Menu = 21; // para salir con el cancel o el error 
03C04:  MOVLW  15
03C06:  MOVWF  27
.................... } 
.................... } // si cancel 
.................... } 
....................  
.................... if (submenu == 1) { 
03C08:  DECFSZ x11,W
03C0A:  BRA    3C96
.................... lcd_gotoxy(1,2); 
03C0C:  MOVLW  01
03C0E:  MOVWF  x2B
03C10:  MOVLW  02
03C12:  MOVWF  x2C
03C14:  MOVLB  0
03C16:  CALL   240A
.................... printf(lcd_putc, "   %cDesea activar  ",143); 
03C1A:  MOVLW  E4
03C1C:  MOVWF  FF6
03C1E:  MOVLW  07
03C20:  MOVWF  FF7
03C22:  MOVLW  03
03C24:  MOVLB  1
03C26:  MOVWF  x27
03C28:  MOVLB  0
03C2A:  CALL   279A
03C2E:  MOVLW  8F
03C30:  MOVLB  1
03C32:  MOVWF  x2A
03C34:  MOVLB  0
03C36:  CALL   2474
03C3A:  MOVLW  E9
03C3C:  MOVWF  FF6
03C3E:  MOVLW  07
03C40:  MOVWF  FF7
03C42:  MOVLW  0F
03C44:  MOVLB  1
03C46:  MOVWF  x27
03C48:  MOVLB  0
03C4A:  CALL   279A
.................... lcd_gotoxy(1,3); 
03C4E:  MOVLW  01
03C50:  MOVLB  1
03C52:  MOVWF  x2B
03C54:  MOVLW  03
03C56:  MOVWF  x2C
03C58:  MOVLB  0
03C5A:  CALL   240A
.................... if (Menu == 121) printf(lcd_putc, "   alarma TOTAL ?    "); 
03C5E:  MOVF   27,W
03C60:  SUBLW  79
03C62:  BNZ   3C70
03C64:  MOVLW  FA
03C66:  MOVWF  FF6
03C68:  MOVLW  07
03C6A:  MOVWF  FF7
03C6C:  CALL   24DC
.................... if (Menu == 122) printf(lcd_putc, "  alarma NOCTURNA?  "); 
03C70:  MOVF   27,W
03C72:  SUBLW  7A
03C74:  BNZ   3C82
03C76:  MOVLW  10
03C78:  MOVWF  FF6
03C7A:  MOVLW  08
03C7C:  MOVWF  FF7
03C7E:  CALL   24DC
.................... if (Menu == 123) printf(lcd_putc, "  alarma EXTERIOR?  "); 
03C82:  MOVF   27,W
03C84:  SUBLW  7B
03C86:  BNZ   3C94
03C88:  MOVLW  26
03C8A:  MOVWF  FF6
03C8C:  MOVLW  08
03C8E:  MOVWF  FF7
03C90:  CALL   24DC
03C94:  MOVLB  1
.................... } // cuando submenu es 1 (antes de aceptar) 
....................  
.................... if (submenu == 2) { 
03C96:  MOVF   x11,W
03C98:  SUBLW  02
03C9A:  BTFSS  FD8.2
03C9C:  BRA    3DF8
.................... //EstadoAl = 2; 
.................... lcd_gotoxy(1,2); 
03C9E:  MOVLW  01
03CA0:  MOVWF  x2B
03CA2:  MOVLW  02
03CA4:  MOVWF  x2C
03CA6:  MOVLB  0
03CA8:  CALL   240A
.................... printf(lcd_putc, "  Armado de alarma  "); 
03CAC:  MOVLW  3C
03CAE:  MOVWF  FF6
03CB0:  MOVLW  08
03CB2:  MOVWF  FF7
03CB4:  CALL   24DC
.................... lcd_gotoxy(1,3); 
03CB8:  MOVLW  01
03CBA:  MOVLB  1
03CBC:  MOVWF  x2B
03CBE:  MOVLW  03
03CC0:  MOVWF  x2C
03CC2:  MOVLB  0
03CC4:  CALL   240A
.................... printf(lcd_putc, "      en: %3u       ",tpoo); 
03CC8:  MOVLW  52
03CCA:  MOVWF  FF6
03CCC:  MOVLW  08
03CCE:  MOVWF  FF7
03CD0:  MOVLW  0A
03CD2:  MOVLB  1
03CD4:  MOVWF  x27
03CD6:  MOVLB  0
03CD8:  CALL   279A
03CDC:  MOVFF  113,127
03CE0:  MOVLW  13
03CE2:  MOVLB  1
03CE4:  MOVWF  x28
03CE6:  MOVLB  0
03CE8:  CALL   271E
03CEC:  MOVLW  5F
03CEE:  MOVWF  FF6
03CF0:  MOVLW  08
03CF2:  MOVWF  FF7
03CF4:  MOVLW  07
03CF6:  MOVLB  1
03CF8:  MOVWF  x27
03CFA:  MOVLB  0
03CFC:  CALL   279A
....................  
.................... if (Menu == 121) { // TOTAL 
03D00:  MOVF   27,W
03D02:  SUBLW  79
03D04:  BNZ   3D72
.................... if (tpoo > 10) printf("%c%c%c%c", 250, 100, 121, 221); // Todas oscilan durante activacion de alarma total 
03D06:  MOVLB  1
03D08:  MOVF   x13,W
03D0A:  SUBLW  0A
03D0C:  BC    3D3E
03D0E:  MOVLW  FA
03D10:  MOVWF  x1D
03D12:  MOVLB  0
03D14:  CALL   23EA
03D18:  MOVLW  64
03D1A:  MOVLB  1
03D1C:  MOVWF  x1D
03D1E:  MOVLB  0
03D20:  CALL   23EA
03D24:  MOVLW  79
03D26:  MOVLB  1
03D28:  MOVWF  x1D
03D2A:  MOVLB  0
03D2C:  CALL   23EA
03D30:  MOVLW  DD
03D32:  MOVLB  1
03D34:  MOVWF  x1D
03D36:  MOVLB  0
03D38:  CALL   23EA
03D3C:  MOVLB  1
.................... if (tpoo < 10) printf("%c%c%c%c", 250, 100, 122, 222); // Todas oscilan durante activacion de alarma total 
03D3E:  MOVF   x13,W
03D40:  SUBLW  09
03D42:  BNC   3D74
03D44:  MOVLW  FA
03D46:  MOVWF  x1D
03D48:  MOVLB  0
03D4A:  CALL   23EA
03D4E:  MOVLW  64
03D50:  MOVLB  1
03D52:  MOVWF  x1D
03D54:  MOVLB  0
03D56:  CALL   23EA
03D5A:  MOVLW  7A
03D5C:  MOVLB  1
03D5E:  MOVWF  x1D
03D60:  MOVLB  0
03D62:  CALL   23EA
03D66:  MOVLW  DE
03D68:  MOVLB  1
03D6A:  MOVWF  x1D
03D6C:  MOVLB  0
03D6E:  CALL   23EA
03D72:  MOVLB  1
.................... } 
....................  
.................... if ((Menu == 122) || (Menu == 123)) { // Nocturna o Exterior 
03D74:  MOVF   27,W
03D76:  SUBLW  7A
03D78:  BZ    3D80
03D7A:  MOVF   27,W
03D7C:  SUBLW  7B
03D7E:  BNZ   3DEC
.................... if (tpoo > 10) printf("%c%c%c%c", 250, LHall, 121, LHall+121); // Todas oscilan durante activacion de alarma total 
03D80:  MOVF   x13,W
03D82:  SUBLW  0A
03D84:  BC    3DB6
03D86:  MOVLW  FA
03D88:  MOVWF  x1D
03D8A:  MOVLB  0
03D8C:  CALL   23EA
03D90:  MOVLW  39
03D92:  MOVLB  1
03D94:  MOVWF  x1D
03D96:  MOVLB  0
03D98:  CALL   23EA
03D9C:  MOVLW  79
03D9E:  MOVLB  1
03DA0:  MOVWF  x1D
03DA2:  MOVLB  0
03DA4:  CALL   23EA
03DA8:  MOVLW  B2
03DAA:  MOVLB  1
03DAC:  MOVWF  x1D
03DAE:  MOVLB  0
03DB0:  CALL   23EA
03DB4:  MOVLB  1
.................... if (tpoo < 10) printf("%c%c%c%c", 250, LHall, 122, LHall+122); // Todas oscilan durante activacion de alarma total 
03DB6:  MOVF   x13,W
03DB8:  SUBLW  09
03DBA:  BNC   3DEC
03DBC:  MOVLW  FA
03DBE:  MOVWF  x1D
03DC0:  MOVLB  0
03DC2:  CALL   23EA
03DC6:  MOVLW  39
03DC8:  MOVLB  1
03DCA:  MOVWF  x1D
03DCC:  MOVLB  0
03DCE:  CALL   23EA
03DD2:  MOVLW  7A
03DD4:  MOVLB  1
03DD6:  MOVWF  x1D
03DD8:  MOVLB  0
03DDA:  CALL   23EA
03DDE:  MOVLW  B3
03DE0:  MOVLB  1
03DE2:  MOVWF  x1D
03DE4:  MOVLB  0
03DE6:  CALL   23EA
03DEA:  MOVLB  1
.................... } 
....................  
.................... if (sec != segu){ 
03DEC:  MOVF   x12,W
03DEE:  SUBWF  20,W
03DF0:  BZ    3DF8
.................... segu = sec; 
03DF2:  MOVFF  20,112
.................... --tpoo; 
03DF6:  DECF   x13,F
.................... } 
.................... } // cuando submenu es 2 (Alarma ya aceptada) 
....................  
....................  
.................... if (tpoo == 0) submenu = 3; 
03DF8:  MOVF   x13,F
03DFA:  BNZ   3E00
03DFC:  MOVLW  03
03DFE:  MOVWF  x11
.................... restart_wdt(); 
03E00:  CLRWDT
03E02:  BRA    3BB6
.................... } // dentro de while 
....................  
.................... if (submenu == 3){ // si es 3 es porque se activo, sino seria 10 
03E04:  MOVF   x11,W
03E06:  SUBLW  03
03E08:  BTFSS  FD8.2
03E0A:  BRA    3FDA
....................  
.................... if (Menu == 121) { // TOTAL 
03E0C:  MOVF   27,W
03E0E:  SUBLW  79
03E10:  BNZ   3E8C
.................... EstadoAl = 3; 
03E12:  MOVLW  03
03E14:  MOVWF  44
.................... write_eeprom(EstAlarma,EstadoAl); 
03E16:  MOVF   FF2,W
03E18:  MOVWF  00
03E1A:  BCF    FF2.7
03E1C:  CLRF   FAA
03E1E:  MOVLW  02
03E20:  MOVWF  FA9
03E22:  MOVFF  44,FA8
03E26:  BCF    FA6.6
03E28:  BCF    FA6.7
03E2A:  BSF    FA6.2
03E2C:  MOVLB  F
03E2E:  MOVLW  55
03E30:  MOVWF  FA7
03E32:  MOVLW  AA
03E34:  MOVWF  FA7
03E36:  BSF    FA6.1
03E38:  BTFSC  FA6.1
03E3A:  BRA    3E38
03E3C:  BCF    FA6.2
03E3E:  MOVF   00,W
03E40:  IORWF  FF2,F
03E42:  CLRF   19
03E44:  BTFSC  FF2.7
03E46:  BSF    19.7
03E48:  BCF    FF2.7
.................... delay_ms(1); 
03E4A:  MOVLW  01
03E4C:  MOVLB  1
03E4E:  MOVWF  x37
03E50:  MOVLB  0
03E52:  CALL   0D76
03E56:  BTFSC  19.7
03E58:  BSF    FF2.7
.................... printf("%c%c%c%c", 250, 100, 80, 180); // Apago todo 
03E5A:  MOVLW  FA
03E5C:  MOVLB  1
03E5E:  MOVWF  x1D
03E60:  MOVLB  0
03E62:  CALL   23EA
03E66:  MOVLW  64
03E68:  MOVLB  1
03E6A:  MOVWF  x1D
03E6C:  MOVLB  0
03E6E:  CALL   23EA
03E72:  MOVLW  50
03E74:  MOVLB  1
03E76:  MOVWF  x1D
03E78:  MOVLB  0
03E7A:  CALL   23EA
03E7E:  MOVLW  B4
03E80:  MOVLB  1
03E82:  MOVWF  x1D
03E84:  MOVLB  0
03E86:  CALL   23EA
03E8A:  MOVLB  1
.................... } 
....................  
.................... if (Menu == 122) { // Nocturna 
03E8C:  MOVF   27,W
03E8E:  SUBLW  7A
03E90:  BNZ   3F32
.................... EstadoAl = 4; 
03E92:  MOVLW  04
03E94:  MOVWF  44
.................... write_eeprom(EstAlarma,EstadoAl); 
03E96:  MOVF   FF2,W
03E98:  MOVWF  00
03E9A:  BCF    FF2.7
03E9C:  CLRF   FAA
03E9E:  MOVLW  02
03EA0:  MOVWF  FA9
03EA2:  MOVFF  44,FA8
03EA6:  BCF    FA6.6
03EA8:  BCF    FA6.7
03EAA:  BSF    FA6.2
03EAC:  MOVLB  F
03EAE:  MOVLW  55
03EB0:  MOVWF  FA7
03EB2:  MOVLW  AA
03EB4:  MOVWF  FA7
03EB6:  BSF    FA6.1
03EB8:  BTFSC  FA6.1
03EBA:  BRA    3EB8
03EBC:  BCF    FA6.2
03EBE:  MOVF   00,W
03EC0:  IORWF  FF2,F
03EC2:  CLRF   19
03EC4:  BTFSC  FF2.7
03EC6:  BSF    19.7
03EC8:  BCF    FF2.7
.................... delay_ms(1); 
03ECA:  MOVLW  01
03ECC:  MOVLB  1
03ECE:  MOVWF  x37
03ED0:  MOVLB  0
03ED2:  CALL   0D76
03ED6:  BTFSC  19.7
03ED8:  BSF    FF2.7
.................... int aux1; 
.................... for (aux1=57;aux1<95;aux1++){ // llena todo desde el 57 al 99 (luces de modulos 3, 4 y 5) 
03EDA:  MOVLW  39
03EDC:  MOVLB  1
03EDE:  MOVWF  x14
03EE0:  MOVF   x14,W
03EE2:  SUBLW  5E
03EE4:  BNC   3F32
.................... printf("%c%c%c%c", 250, aux1, 80, aux1+80); // Apago todo 
03EE6:  MOVLW  50
03EE8:  ADDWF  x14,W
03EEA:  MOVWF  x16
03EEC:  MOVLW  FA
03EEE:  MOVWF  x1D
03EF0:  MOVLB  0
03EF2:  CALL   23EA
03EF6:  MOVFF  114,11D
03EFA:  CALL   23EA
03EFE:  MOVLW  50
03F00:  MOVLB  1
03F02:  MOVWF  x1D
03F04:  MOVLB  0
03F06:  CALL   23EA
03F0A:  MOVFF  116,11D
03F0E:  CALL   23EA
03F12:  CLRF   19
03F14:  BTFSC  FF2.7
03F16:  BSF    19.7
03F18:  BCF    FF2.7
.................... delay_ms(2); 
03F1A:  MOVLW  02
03F1C:  MOVLB  1
03F1E:  MOVWF  x37
03F20:  MOVLB  0
03F22:  CALL   0D76
03F26:  BTFSC  19.7
03F28:  BSF    FF2.7
.................... restart_wdt(); 
03F2A:  CLRWDT
03F2C:  MOVLB  1
03F2E:  INCF   x14,F
03F30:  BRA    3EE0
.................... } 
.................... } 
....................  
.................... if (Menu == 123) { // Exterior 
03F32:  MOVF   27,W
03F34:  SUBLW  7B
03F36:  BNZ   3FD8
.................... EstadoAl = 5; 
03F38:  MOVLW  05
03F3A:  MOVWF  44
.................... write_eeprom(EstAlarma,EstadoAl); 
03F3C:  MOVF   FF2,W
03F3E:  MOVWF  00
03F40:  BCF    FF2.7
03F42:  CLRF   FAA
03F44:  MOVLW  02
03F46:  MOVWF  FA9
03F48:  MOVFF  44,FA8
03F4C:  BCF    FA6.6
03F4E:  BCF    FA6.7
03F50:  BSF    FA6.2
03F52:  MOVLB  F
03F54:  MOVLW  55
03F56:  MOVWF  FA7
03F58:  MOVLW  AA
03F5A:  MOVWF  FA7
03F5C:  BSF    FA6.1
03F5E:  BTFSC  FA6.1
03F60:  BRA    3F5E
03F62:  BCF    FA6.2
03F64:  MOVF   00,W
03F66:  IORWF  FF2,F
03F68:  CLRF   19
03F6A:  BTFSC  FF2.7
03F6C:  BSF    19.7
03F6E:  BCF    FF2.7
.................... delay_ms(1); 
03F70:  MOVLW  01
03F72:  MOVLB  1
03F74:  MOVWF  x37
03F76:  MOVLB  0
03F78:  CALL   0D76
03F7C:  BTFSC  19.7
03F7E:  BSF    FF2.7
.................... int aux1; 
.................... for (aux1=80;aux1<95;aux1++){ // llena todo desde el 80 al 99 (luces de modulo 5) 
03F80:  MOVLW  50
03F82:  MOVLB  1
03F84:  MOVWF  x15
03F86:  MOVF   x15,W
03F88:  SUBLW  5E
03F8A:  BNC   3FD8
.................... printf("%c%c%c%c", 250, aux1, 80, aux1+80); // Apago todo 
03F8C:  MOVLW  50
03F8E:  ADDWF  x15,W
03F90:  MOVWF  x16
03F92:  MOVLW  FA
03F94:  MOVWF  x1D
03F96:  MOVLB  0
03F98:  CALL   23EA
03F9C:  MOVFF  115,11D
03FA0:  CALL   23EA
03FA4:  MOVLW  50
03FA6:  MOVLB  1
03FA8:  MOVWF  x1D
03FAA:  MOVLB  0
03FAC:  CALL   23EA
03FB0:  MOVFF  116,11D
03FB4:  CALL   23EA
03FB8:  CLRF   19
03FBA:  BTFSC  FF2.7
03FBC:  BSF    19.7
03FBE:  BCF    FF2.7
.................... delay_ms(2); 
03FC0:  MOVLW  02
03FC2:  MOVLB  1
03FC4:  MOVWF  x37
03FC6:  MOVLB  0
03FC8:  CALL   0D76
03FCC:  BTFSC  19.7
03FCE:  BSF    FF2.7
.................... restart_wdt(); 
03FD0:  CLRWDT
03FD2:  MOVLB  1
03FD4:  INCF   x15,F
03FD6:  BRA    3F86
.................... } 
.................... } 
.................... Menu = 0; 
03FD8:  CLRF   27
.................... } // resumen de activacion 
03FDA:  MOVLB  0
03FDC:  GOTO   920A (RETURN)
....................  
.................... } // Fn 
....................  
....................  
....................  
....................  
.................... void ConfAlarma(){ 
....................  
.................... LIMPIARLCD; 
*
04006:  MOVLW  68
04008:  MOVWF  FF6
0400A:  MOVLW  08
0400C:  MOVWF  FF7
0400E:  CALL   24DC
....................  
.................... int submenu = 1; 
.................... int TiemSal; 
.................... int TiemSil; 
.................... int tpoo; 
.................... int diff; 
.................... short prueba; 
.................... char test[4]; 
04012:  MOVLW  01
04014:  MOVLB  1
04016:  MOVWF  x11
....................  
.................... TiemSal = TpoSalida; 
04018:  MOVFF  110,112
.................... TiemSil = TpoSilencioso; 
0401C:  MOVFF  10F,113
.................... prueba = false; 
04020:  BCF    x16.0
....................  
....................  
.................... while (submenu < 4){ // hasta llenar todo 
04022:  MOVF   x11,W
04024:  SUBLW  03
04026:  BTFSS  FD8.0
04028:  BRA    439A
....................  
....................  
.................... if (input(ARRIBA)==1 && input(ABAJO)==1 && input(OOKK)==1 && input(CANCEL)==1) Rebote = false; // Soltamos las teclas 
0402A:  BSF    F93.0
0402C:  BTFSS  F81.0
0402E:  BRA    4044
04030:  BSF    F93.1
04032:  BTFSS  F81.1
04034:  BRA    4044
04036:  BSF    F93.2
04038:  BTFSS  F81.2
0403A:  BRA    4044
0403C:  BSF    F93.3
0403E:  BTFSS  F81.3
04040:  BRA    4044
04042:  BCF    34.0
....................  
.................... if (Rebote == false){ 
04044:  BTFSC  34.0
04046:  BRA    4052
.................... if (input(OOKK) == 0){ // si ok, solo sumo 
04048:  BSF    F93.2
0404A:  BTFSC  F81.2
0404C:  BRA    4052
.................... ++submenu; 
0404E:  INCF   x11,F
.................... Rebote = true; 
04050:  BSF    34.0
.................... } // si ok 
.................... } 
....................  
.................... if (Rebote == false){ 
04052:  BTFSC  34.0
04054:  BRA    406C
.................... if (input(CANCEL) == 0){ // si cancel solo resto o salgo con 10 
04056:  BSF    F93.3
04058:  BTFSC  F81.3
0405A:  BRA    406C
.................... --submenu; 
0405C:  DECF   x11,F
.................... Rebote = true; 
0405E:  BSF    34.0
.................... if (submenu == 0) { 
04060:  MOVF   x11,F
04062:  BNZ   406C
.................... submenu=10; 
04064:  MOVLW  0A
04066:  MOVWF  x11
.................... Menu = 24; // para salir con el cancel o el error 
04068:  MOVLW  18
0406A:  MOVWF  27
.................... } 
.................... } // si cancel 
.................... } 
....................  
.................... if (Rebote == false){ 
0406C:  BTFSC  34.0
0406E:  BRA    40F4
.................... if (input(ABAJO) == 0){ // si arriba 
04070:  BSF    F93.1
04072:  BTFSC  F81.1
04074:  BRA    40F4
.................... Rebote = true; 
04076:  BSF    34.0
....................  
....................    if (submenu == 1) { // arriba dentro de dia de la semana 
04078:  DECFSZ x11,W
0407A:  BRA    4088
....................          ++TiemSal; 
0407C:  INCF   x12,F
....................          if (TiemSal == 181) TiemSal = 1; 
0407E:  MOVF   x12,W
04080:  SUBLW  B5
04082:  BNZ   4088
04084:  MOVLW  01
04086:  MOVWF  x12
....................    } // arriba dentro de mes 
....................  
....................    if (submenu == 2) { // arriba dentro de mes 
04088:  MOVF   x11,W
0408A:  SUBLW  02
0408C:  BNZ   409A
....................          ++TiemSil; 
0408E:  INCF   x13,F
....................          if (TiemSil == 181)  TiemSil= 1; 
04090:  MOVF   x13,W
04092:  SUBLW  B5
04094:  BNZ   409A
04096:  MOVLW  01
04098:  MOVWF  x13
....................    } // arriba dentro de mes 
....................  
....................    if (submenu == 3) { // arriba dentro de dia 
0409A:  MOVF   x11,W
0409C:  SUBLW  03
0409E:  BNZ   40F4
....................          prueba=True; 
040A0:  BSF    x16.0
....................          tpoo = sec; 
040A2:  MOVFF  20,114
....................          test="ON"; 
040A6:  MOVLW  01
040A8:  MOVWF  FEA
040AA:  MOVLW  17
040AC:  MOVWF  FE9
040AE:  MOVLW  00
040B0:  MOVLB  0
040B2:  CALL   00CE
040B6:  TBLRD*-
040B8:  TBLRD*+
040BA:  MOVF   FF5,W
040BC:  MOVWF  FEE
040BE:  IORLW  00
040C0:  BNZ   40B8
....................          printf("%c%c%c%c", 250, 155, 3, 158); // Prendo la sirena por 3 segundos 
040C2:  MOVLW  FA
040C4:  MOVLB  1
040C6:  MOVWF  x1D
040C8:  MOVLB  0
040CA:  CALL   23EA
040CE:  MOVLW  9B
040D0:  MOVLB  1
040D2:  MOVWF  x1D
040D4:  MOVLB  0
040D6:  CALL   23EA
040DA:  MOVLW  03
040DC:  MOVLB  1
040DE:  MOVWF  x1D
040E0:  MOVLB  0
040E2:  CALL   23EA
040E6:  MOVLW  9E
040E8:  MOVLB  1
040EA:  MOVWF  x1D
040EC:  MOVLB  0
040EE:  CALL   23EA
040F2:  MOVLB  1
....................          } 
.................... } // si Abajo 
.................... } // si rebote 
....................  
.................... if (Rebote == false){ 
040F4:  BTFSC  34.0
040F6:  BRA    4178
.................... if (input(ARRIBA) == 0){ // si abajo 
040F8:  BSF    F93.0
040FA:  BTFSC  F81.0
040FC:  BRA    4178
.................... Rebote = true; 
040FE:  BSF    34.0
....................  
....................    if (submenu == 1) { // arriba dentro de dia de la semana 
04100:  DECFSZ x11,W
04102:  BRA    410E
....................          --TiemSal; 
04104:  DECF   x12,F
....................          if (TiemSal == 0) TiemSal = 180; 
04106:  MOVF   x12,F
04108:  BNZ   410E
0410A:  MOVLW  B4
0410C:  MOVWF  x12
....................    } // arriba dentro de mes 
....................  
....................    if (submenu == 2) { // arriba dentro de mes 
0410E:  MOVF   x11,W
04110:  SUBLW  02
04112:  BNZ   411E
....................          --TiemSil; 
04114:  DECF   x13,F
....................          if (TiemSil == 0)  TiemSil= 180; 
04116:  MOVF   x13,F
04118:  BNZ   411E
0411A:  MOVLW  B4
0411C:  MOVWF  x13
....................    } // arriba dentro de mes 
....................  
....................    if (submenu == 3) { // arriba dentro de dia 
0411E:  MOVF   x11,W
04120:  SUBLW  03
04122:  BNZ   4178
....................          prueba=True; 
04124:  BSF    x16.0
....................          tpoo = sec; 
04126:  MOVFF  20,114
....................          test="ON"; 
0412A:  MOVLW  01
0412C:  MOVWF  FEA
0412E:  MOVLW  17
04130:  MOVWF  FE9
04132:  MOVLW  00
04134:  MOVLB  0
04136:  CALL   00CE
0413A:  TBLRD*-
0413C:  TBLRD*+
0413E:  MOVF   FF5,W
04140:  MOVWF  FEE
04142:  IORLW  00
04144:  BNZ   413C
....................          printf("%c%c%c%c", 250, 155, 3, 158); // Prendo la sirena por 3 segundos 
04146:  MOVLW  FA
04148:  MOVLB  1
0414A:  MOVWF  x1D
0414C:  MOVLB  0
0414E:  CALL   23EA
04152:  MOVLW  9B
04154:  MOVLB  1
04156:  MOVWF  x1D
04158:  MOVLB  0
0415A:  CALL   23EA
0415E:  MOVLW  03
04160:  MOVLB  1
04162:  MOVWF  x1D
04164:  MOVLB  0
04166:  CALL   23EA
0416A:  MOVLW  9E
0416C:  MOVLB  1
0416E:  MOVWF  x1D
04170:  MOVLB  0
04172:  CALL   23EA
04176:  MOVLB  1
....................          } 
.................... } 
.................... } 
....................  
....................  
.................... lcd_gotoxy(1,1); 
04178:  MOVLW  01
0417A:  MOVWF  x2B
0417C:  MOVWF  x2C
0417E:  MOVLB  0
04180:  CALL   240A
.................... printf(lcd_putc, "=== Conf. Alarma ==="); 
04184:  MOVLW  6A
04186:  MOVWF  FF6
04188:  MOVLW  08
0418A:  MOVWF  FF7
0418C:  CALL   24DC
.................... lcd_gotoxy(1,2); 
04190:  MOVLW  01
04192:  MOVLB  1
04194:  MOVWF  x2B
04196:  MOVLW  02
04198:  MOVWF  x2C
0419A:  MOVLB  0
0419C:  CALL   240A
.................... if (submenu == 1){ 
041A0:  MOVLB  1
041A2:  DECFSZ x11,W
041A4:  BRA    41EE
.................... if (bit_test(tiempo1,0)) printf(lcd_putc, "Tpo Salida: %3us", TiemSal); 
041A6:  BTFSS  46.0
041A8:  BRA    41DC
041AA:  MOVLW  80
041AC:  MOVWF  FF6
041AE:  MOVLW  08
041B0:  MOVWF  FF7
041B2:  MOVLW  0C
041B4:  MOVWF  x27
041B6:  MOVLB  0
041B8:  CALL   279A
041BC:  MOVFF  112,127
041C0:  MOVLW  13
041C2:  MOVLB  1
041C4:  MOVWF  x28
041C6:  MOVLB  0
041C8:  CALL   271E
041CC:  MOVLW  73
041CE:  MOVLB  1
041D0:  MOVWF  x2A
041D2:  MOVLB  0
041D4:  CALL   2474
041D8:  BRA    41EA
041DA:  MOVLB  1
.................... else printf(lcd_putc, "Tpo Salida:      "); 
041DC:  MOVLW  92
041DE:  MOVWF  FF6
041E0:  MOVLW  08
041E2:  MOVWF  FF7
041E4:  MOVLB  0
041E6:  CALL   24DC
.................... } else{ 
041EA:  BRA    4234
041EC:  MOVLB  1
.................... lcd_gotoxy(1,2); 
041EE:  MOVLW  01
041F0:  MOVWF  x2B
041F2:  MOVLW  02
041F4:  MOVWF  x2C
041F6:  MOVLB  0
041F8:  CALL   240A
.................... printf(lcd_putc, "Tpo Salida: %3us  ", TiemSal); 
041FC:  MOVLW  A4
041FE:  MOVWF  FF6
04200:  MOVLW  08
04202:  MOVWF  FF7
04204:  MOVLW  0C
04206:  MOVLB  1
04208:  MOVWF  x27
0420A:  MOVLB  0
0420C:  CALL   279A
04210:  MOVFF  112,127
04214:  MOVLW  13
04216:  MOVLB  1
04218:  MOVWF  x28
0421A:  MOVLB  0
0421C:  CALL   271E
04220:  MOVLW  B3
04222:  MOVWF  FF6
04224:  MOVLW  08
04226:  MOVWF  FF7
04228:  MOVLW  03
0422A:  MOVLB  1
0422C:  MOVWF  x27
0422E:  MOVLB  0
04230:  CALL   279A
.................... } 
....................  
.................... lcd_gotoxy(1,3); 
04234:  MOVLW  01
04236:  MOVLB  1
04238:  MOVWF  x2B
0423A:  MOVLW  03
0423C:  MOVWF  x2C
0423E:  MOVLB  0
04240:  CALL   240A
.................... if (submenu == 2){ 
04244:  MOVLB  1
04246:  MOVF   x11,W
04248:  SUBLW  02
0424A:  BNZ   4294
.................... if (bit_test(tiempo1,0)) printf(lcd_putc, "Tpo Silencio: %3us",TiemSil); 
0424C:  BTFSS  46.0
0424E:  BRA    4282
04250:  MOVLW  B8
04252:  MOVWF  FF6
04254:  MOVLW  08
04256:  MOVWF  FF7
04258:  MOVLW  0E
0425A:  MOVWF  x27
0425C:  MOVLB  0
0425E:  CALL   279A
04262:  MOVFF  113,127
04266:  MOVLW  13
04268:  MOVLB  1
0426A:  MOVWF  x28
0426C:  MOVLB  0
0426E:  CALL   271E
04272:  MOVLW  73
04274:  MOVLB  1
04276:  MOVWF  x2A
04278:  MOVLB  0
0427A:  CALL   2474
0427E:  BRA    4290
04280:  MOVLB  1
.................... else printf(lcd_putc, "Tpo Silencio:       "); 
04282:  MOVLW  CC
04284:  MOVWF  FF6
04286:  MOVLW  08
04288:  MOVWF  FF7
0428A:  MOVLB  0
0428C:  CALL   24DC
.................... } else{ 
04290:  BRA    42D2
04292:  MOVLB  1
.................... lcd_gotoxy(1,3); 
04294:  MOVLW  01
04296:  MOVWF  x2B
04298:  MOVLW  03
0429A:  MOVWF  x2C
0429C:  MOVLB  0
0429E:  CALL   240A
.................... printf(lcd_putc, "Tpo Silencio: %3us",TiemSil); 
042A2:  MOVLW  E2
042A4:  MOVWF  FF6
042A6:  MOVLW  08
042A8:  MOVWF  FF7
042AA:  MOVLW  0E
042AC:  MOVLB  1
042AE:  MOVWF  x27
042B0:  MOVLB  0
042B2:  CALL   279A
042B6:  MOVFF  113,127
042BA:  MOVLW  13
042BC:  MOVLB  1
042BE:  MOVWF  x28
042C0:  MOVLB  0
042C2:  CALL   271E
042C6:  MOVLW  73
042C8:  MOVLB  1
042CA:  MOVWF  x2A
042CC:  MOVLB  0
042CE:  CALL   2474
.................... } 
....................  
.................... lcd_gotoxy(1,4); 
042D2:  MOVLW  01
042D4:  MOVLB  1
042D6:  MOVWF  x2B
042D8:  MOVLW  04
042DA:  MOVWF  x2C
042DC:  MOVLB  0
042DE:  CALL   240A
.................... if (submenu == 3){ 
042E2:  MOVLB  1
042E4:  MOVF   x11,W
042E6:  SUBLW  03
042E8:  BNZ   4338
.................... if (bit_test(tiempo1,0)) printf(lcd_putc, "Prueba sirena: %s  ",test); 
042EA:  BTFSS  46.0
042EC:  BRA    4326
042EE:  MOVLW  F6
042F0:  MOVWF  FF6
042F2:  MOVLW  08
042F4:  MOVWF  FF7
042F6:  MOVLW  0F
042F8:  MOVWF  x27
042FA:  MOVLB  0
042FC:  CALL   279A
04300:  MOVLW  01
04302:  MOVWF  FEA
04304:  MOVLW  17
04306:  MOVWF  FE9
04308:  RCALL  3FE0
0430A:  MOVLW  20
0430C:  MOVLB  1
0430E:  MOVWF  x2A
04310:  MOVLB  0
04312:  CALL   2474
04316:  MOVLW  20
04318:  MOVLB  1
0431A:  MOVWF  x2A
0431C:  MOVLB  0
0431E:  CALL   2474
04322:  BRA    4334
04324:  MOVLB  1
.................... else printf(lcd_putc, "Prueba sirena:        "); 
04326:  MOVLW  0A
04328:  MOVWF  FF6
0432A:  MOVLW  09
0432C:  MOVWF  FF7
0432E:  MOVLB  0
04330:  CALL   24DC
.................... } else { 
04334:  BRA    4364
04336:  MOVLB  1
.................... lcd_gotoxy(1,4); 
04338:  MOVLW  01
0433A:  MOVWF  x2B
0433C:  MOVLW  04
0433E:  MOVWF  x2C
04340:  MOVLB  0
04342:  CALL   240A
....................  printf(lcd_putc, "Prueba sirena: %s",test); 
04346:  MOVLW  22
04348:  MOVWF  FF6
0434A:  MOVLW  09
0434C:  MOVWF  FF7
0434E:  MOVLW  0F
04350:  MOVLB  1
04352:  MOVWF  x27
04354:  MOVLB  0
04356:  CALL   279A
0435A:  MOVLW  01
0435C:  MOVWF  FEA
0435E:  MOVLW  17
04360:  MOVWF  FE9
04362:  RCALL  3FE0
.................... } 
....................  
.................... restart_wdt(); 
04364:  CLRWDT
....................  
.................... diff = sec - tpoo; 
04366:  MOVLB  1
04368:  MOVF   x14,W
0436A:  SUBWF  20,W
0436C:  MOVWF  x15
....................  
.................... if (diff > 2) prueba = false; 
0436E:  MOVF   x15,W
04370:  SUBLW  02
04372:  BC    4376
04374:  BCF    x16.0
.................... if (prueba == false) test = "OFF"; 
04376:  BTFSC  x16.0
04378:  BRA    4398
0437A:  MOVLW  01
0437C:  MOVWF  FEA
0437E:  MOVLW  17
04380:  MOVWF  FE9
04382:  MOVLW  00
04384:  MOVLB  0
04386:  CALL   00E2
0438A:  TBLRD*-
0438C:  TBLRD*+
0438E:  MOVF   FF5,W
04390:  MOVWF  FEE
04392:  IORLW  00
04394:  BNZ   438C
04396:  MOVLB  1
04398:  BRA    4022
....................  
.................... } // dentro de while 
....................  
.................... if (submenu == 4) { 
0439A:  MOVF   x11,W
0439C:  SUBLW  04
0439E:  BNZ   4404
.................... TpoSilencioso = TiemSil;  // Cargamos en RAM 
043A0:  MOVFF  113,10F
.................... TpoSalida = TiemSal;  // Cargamos en RAM 
043A4:  MOVFF  112,110
....................  
.................... write_eeprom(TpoSil,TpoSilencioso); // Guardamos el valor  
043A8:  MOVF   FF2,W
043AA:  MOVWF  00
043AC:  BCF    FF2.7
043AE:  CLRF   FAA
043B0:  MOVLW  04
043B2:  MOVWF  FA9
043B4:  MOVFF  10F,FA8
043B8:  BCF    FA6.6
043BA:  BCF    FA6.7
043BC:  BSF    FA6.2
043BE:  MOVLB  F
043C0:  MOVLW  55
043C2:  MOVWF  FA7
043C4:  MOVLW  AA
043C6:  MOVWF  FA7
043C8:  BSF    FA6.1
043CA:  BTFSC  FA6.1
043CC:  BRA    43CA
043CE:  BCF    FA6.2
043D0:  MOVF   00,W
043D2:  IORWF  FF2,F
.................... write_eeprom(TpoSal,TpoSalida); // Guardamos el valor  
043D4:  MOVFF  FF2,00
043D8:  BCF    FF2.7
043DA:  CLRF   FAA
043DC:  MOVLW  05
043DE:  MOVWF  FA9
043E0:  MOVFF  110,FA8
043E4:  BCF    FA6.6
043E6:  BCF    FA6.7
043E8:  BSF    FA6.2
043EA:  MOVLW  55
043EC:  MOVWF  FA7
043EE:  MOVLW  AA
043F0:  MOVWF  FA7
043F2:  BSF    FA6.1
043F4:  BTFSC  FA6.1
043F6:  BRA    43F4
043F8:  BCF    FA6.2
043FA:  MOVF   00,W
043FC:  IORWF  FF2,F
.................... Menu = 1; 
043FE:  MOVLW  01
04400:  MOVWF  27
04402:  MOVLB  1
.................... } 
04404:  MOVLB  0
04406:  GOTO   9218 (RETURN)
.................... } // fn 
....................  
....................  
.................... int Autenticar(){ 
....................  
.................... LIMPIARLCD; 
*
036AE:  MOVLW  34
036B0:  MOVWF  FF6
036B2:  MOVLW  09
036B4:  MOVWF  FF7
036B6:  CALL   24DC
....................  
.................... int PassCheck[2]; 
....................  
.................... PassCheck[0] = PassCheck[1] = 0; 
036BA:  MOVLB  1
036BC:  CLRF   x17
036BE:  MOVFF  117,116
....................  
.................... int submenu = 1; 
036C2:  MOVLW  01
036C4:  MOVWF  x18
....................  
.................... while (submenu < 7){ 
036C6:  MOVF   x18,W
036C8:  SUBLW  06
036CA:  BTFSS  FD8.0
036CC:  BRA    39DE
.................... restart_wdt(); 
036CE:  CLRWDT
....................  
.................... if (input(ARRIBA)==1 && input(ABAJO)==1 && input(OOKK)==1 && input(CANCEL)==1) Rebote = false; // Soltamos las teclas 
036D0:  BSF    F93.0
036D2:  BTFSS  F81.0
036D4:  BRA    36EA
036D6:  BSF    F93.1
036D8:  BTFSS  F81.1
036DA:  BRA    36EA
036DC:  BSF    F93.2
036DE:  BTFSS  F81.2
036E0:  BRA    36EA
036E2:  BSF    F93.3
036E4:  BTFSS  F81.3
036E6:  BRA    36EA
036E8:  BCF    34.0
....................  
.................... if (Rebote == False) { 
036EA:  BTFSC  34.0
036EC:  BRA    373A
.................... if (input(OOKK) == 0){ 
036EE:  BSF    F93.2
036F0:  BTFSC  F81.2
036F2:  BRA    373A
.................... Rebote = True; 
036F4:  BSF    34.0
.................... switch (submenu){ 
036F6:  MOVLW  01
036F8:  SUBWF  x18,W
036FA:  ADDLW  FA
036FC:  BC    3738
036FE:  ADDLW  06
03700:  MOVLB  0
03702:  GOTO   3AE2
....................    case 1: 
....................    bit_clear(PassCheck[0],0); 
03706:  MOVLB  1
03708:  BCF    x16.0
....................    bit_set(PassCheck[0],1); 
0370A:  BSF    x16.1
....................    //++submenu; 
....................    break; 
0370C:  BRA    3738
....................  
....................    case 2: 
....................    bit_clear(PassCheck[0],2); 
0370E:  MOVLB  1
03710:  BCF    x16.2
....................    bit_set(PassCheck[0],3); 
03712:  BSF    x16.3
....................    //++submenu; 
....................    break; 
03714:  BRA    3738
....................  
....................    case 3: 
....................    bit_clear(PassCheck[0],4); 
03716:  MOVLB  1
03718:  BCF    x16.4
....................    bit_set(PassCheck[0],5); 
0371A:  BSF    x16.5
....................    //++submenu; 
....................    break; 
0371C:  BRA    3738
....................  
....................    case 4: 
....................    bit_clear(PassCheck[0],6); 
0371E:  MOVLB  1
03720:  BCF    x16.6
....................    bit_set(PassCheck[0],7); 
03722:  BSF    x16.7
....................    //++submenu; 
....................    break; 
03724:  BRA    3738
....................     
....................    case 5: 
....................    bit_clear(PassCheck[1],0); 
03726:  MOVLB  1
03728:  BCF    x17.0
....................    bit_set(PassCheck[1],1); 
0372A:  BSF    x17.1
....................    //++submenu; 
....................    break; 
0372C:  BRA    3738
....................  
....................    case 6: 
....................    bit_clear(PassCheck[1],2); 
0372E:  MOVLB  1
03730:  BCF    x17.2
....................    bit_set(PassCheck[1],3); 
03732:  BSF    x17.3
....................    //++submenu; 
....................    break; 
03734:  BRA    3738
03736:  MOVLB  1
.................... } 
.................... ++submenu; 
03738:  INCF   x18,F
.................... } // si OK 
.................... } // rebote falso 
....................  
.................... if (Rebote == False) { 
0373A:  BTFSC  34.0
0373C:  BRA    378A
.................... if (input(CANCEL) == 0){ 
0373E:  BSF    F93.3
03740:  BTFSC  F81.3
03742:  BRA    378A
.................... Rebote = True; 
03744:  BSF    34.0
.................... switch (submenu){ 
03746:  MOVLW  01
03748:  SUBWF  x18,W
0374A:  ADDLW  FA
0374C:  BC    3788
0374E:  ADDLW  06
03750:  MOVLB  0
03752:  GOTO   3B08
....................    case 1: 
....................    bit_set(PassCheck[0],0); 
03756:  MOVLB  1
03758:  BSF    x16.0
....................    bit_set(PassCheck[0],1); 
0375A:  BSF    x16.1
....................    //++submenu; 
....................    break; 
0375C:  BRA    3788
....................  
....................    case 2: 
....................    bit_set(PassCheck[0],2); 
0375E:  MOVLB  1
03760:  BSF    x16.2
....................    bit_set(PassCheck[0],3); 
03762:  BSF    x16.3
....................    //++submenu; 
....................    break; 
03764:  BRA    3788
....................  
....................    case 3: 
....................    bit_set(PassCheck[0],4); 
03766:  MOVLB  1
03768:  BSF    x16.4
....................    bit_set(PassCheck[0],5); 
0376A:  BSF    x16.5
....................    //++submenu; 
....................    break; 
0376C:  BRA    3788
....................  
....................    case 4: 
....................    bit_set(PassCheck[0],6); 
0376E:  MOVLB  1
03770:  BSF    x16.6
....................    bit_set(PassCheck[0],7); 
03772:  BSF    x16.7
....................    //++submenu; 
....................    break; 
03774:  BRA    3788
....................  
....................    case 5: 
....................    bit_set(PassCheck[1],0); 
03776:  MOVLB  1
03778:  BSF    x17.0
....................    bit_set(PassCheck[1],1); 
0377A:  BSF    x17.1
....................    //++submenu; 
....................    break; 
0377C:  BRA    3788
....................  
....................    case 6: 
....................    bit_set(PassCheck[1],2); 
0377E:  MOVLB  1
03780:  BSF    x17.2
....................    bit_set(PassCheck[1],3); 
03782:  BSF    x17.3
....................    //++submenu; 
....................    break; 
03784:  BRA    3788
03786:  MOVLB  1
.................... } // switch 
.................... ++submenu; 
03788:  INCF   x18,F
.................... } // si CANCEL 
.................... } // rebote falso 
....................  
....................  
.................... if (Rebote == False) { 
0378A:  BTFSC  34.0
0378C:  BRA    37DA
.................... if (input(ARRIBA) == 0){ 
0378E:  BSF    F93.0
03790:  BTFSC  F81.0
03792:  BRA    37DA
.................... Rebote = True; 
03794:  BSF    34.0
.................... switch (submenu){ 
03796:  MOVLW  01
03798:  SUBWF  x18,W
0379A:  ADDLW  FA
0379C:  BC    37D8
0379E:  ADDLW  06
037A0:  MOVLB  0
037A2:  GOTO   3B2E
....................    case 1: 
....................    bit_clear(PassCheck[0],0); 
037A6:  MOVLB  1
037A8:  BCF    x16.0
....................    bit_clear(PassCheck[0],1); 
037AA:  BCF    x16.1
....................    //++submenu; 
....................    break; 
037AC:  BRA    37D8
....................  
....................    case 2: 
....................    bit_clear(PassCheck[0],2); 
037AE:  MOVLB  1
037B0:  BCF    x16.2
....................    bit_clear(PassCheck[0],3); 
037B2:  BCF    x16.3
....................    //++submenu; 
....................    break; 
037B4:  BRA    37D8
....................  
....................    case 3: 
....................    bit_clear(PassCheck[0],4); 
037B6:  MOVLB  1
037B8:  BCF    x16.4
....................    bit_clear(PassCheck[0],5); 
037BA:  BCF    x16.5
....................    //++submenu; 
....................    break; 
037BC:  BRA    37D8
....................  
....................    case 4: 
....................    bit_clear(PassCheck[0],6); 
037BE:  MOVLB  1
037C0:  BCF    x16.6
....................    bit_clear(PassCheck[0],7); 
037C2:  BCF    x16.7
....................    //++submenu; 
....................    break; 
037C4:  BRA    37D8
....................  
....................    case 5: 
....................    bit_clear(PassCheck[1],0); 
037C6:  MOVLB  1
037C8:  BCF    x17.0
....................    bit_clear(PassCheck[1],1); 
037CA:  BCF    x17.1
....................    //++submenu; 
....................    break; 
037CC:  BRA    37D8
....................  
....................    case 6: 
....................    bit_clear(PassCheck[1],2); 
037CE:  MOVLB  1
037D0:  BCF    x17.2
....................    bit_clear(PassCheck[1],3); 
037D2:  BCF    x17.3
....................    //++submenu; 
....................    break; 
037D4:  BRA    37D8
037D6:  MOVLB  1
....................  
.................... } // switch 
.................... ++submenu; 
037D8:  INCF   x18,F
.................... } // si ARRIBA 
.................... } // rebote falso 
....................  
....................  
.................... if (Rebote == False) { 
037DA:  BTFSC  34.0
037DC:  BRA    382A
.................... if (input(ABAJO) == 0){ 
037DE:  BSF    F93.1
037E0:  BTFSC  F81.1
037E2:  BRA    382A
.................... Rebote = True; 
037E4:  BSF    34.0
.................... switch (submenu){ 
037E6:  MOVLW  01
037E8:  SUBWF  x18,W
037EA:  ADDLW  FA
037EC:  BC    3828
037EE:  ADDLW  06
037F0:  MOVLB  0
037F2:  GOTO   3B54
....................    case 1: 
....................    bit_set(PassCheck[0],0); 
037F6:  MOVLB  1
037F8:  BSF    x16.0
....................    bit_clear(PassCheck[0],1); 
037FA:  BCF    x16.1
....................    //++submenu; 
....................    break; 
037FC:  BRA    3828
....................  
....................    case 2: 
....................    bit_set(PassCheck[0],2); 
037FE:  MOVLB  1
03800:  BSF    x16.2
....................    bit_clear(PassCheck[0],3); 
03802:  BCF    x16.3
....................    //++submenu; 
....................    break; 
03804:  BRA    3828
....................  
....................    case 3: 
....................    bit_set(PassCheck[0],4); 
03806:  MOVLB  1
03808:  BSF    x16.4
....................    bit_clear(PassCheck[0],5); 
0380A:  BCF    x16.5
....................    //++submenu; 
....................    break; 
0380C:  BRA    3828
....................  
....................    case 4: 
....................    bit_set(PassCheck[0],6); 
0380E:  MOVLB  1
03810:  BSF    x16.6
....................    bit_clear(PassCheck[0],7); 
03812:  BCF    x16.7
....................    //++submenu; 
....................    break; 
03814:  BRA    3828
....................  
....................    case 5: 
....................    bit_set(PassCheck[1],0); 
03816:  MOVLB  1
03818:  BSF    x17.0
....................    bit_clear(PassCheck[1],1); 
0381A:  BCF    x17.1
....................    //++submenu; 
....................    break; 
0381C:  BRA    3828
....................  
....................    case 6: 
....................    bit_set(PassCheck[1],2); 
0381E:  MOVLB  1
03820:  BSF    x17.2
....................    bit_clear(PassCheck[1],3); 
03822:  BCF    x17.3
....................    //++submenu; 
....................    break; 
03824:  BRA    3828
03826:  MOVLB  1
....................  
.................... } // switch 
.................... ++submenu; 
03828:  INCF   x18,F
.................... } // si CANCEL 
.................... } // rebote falso 
....................  
.................... //lcd_gotoxy(1,1); 
.................... //printf(lcd_putc, "== Cambiar Clave ==="); 
.................... lcd_gotoxy(1,2); 
0382A:  MOVLW  01
0382C:  MOVWF  x2B
0382E:  MOVLW  02
03830:  MOVWF  x2C
03832:  MOVLB  0
03834:  CALL   240A
.................... printf(lcd_putc, " Ingrese la clave:  "); 
03838:  MOVLW  36
0383A:  MOVWF  FF6
0383C:  MOVLW  09
0383E:  MOVWF  FF7
03840:  CALL   24DC
....................  
.................... switch (submenu){ 
03844:  MOVLW  01
03846:  MOVLB  1
03848:  SUBWF  x18,W
0384A:  ADDLW  FA
0384C:  BTFSC  FD8.0
0384E:  BRA    39DA
03850:  ADDLW  06
03852:  MOVLB  0
03854:  GOTO   3B7A
.................... case 1: 
.................... lcd_gotoxy(7,3); 
03858:  MOVLW  07
0385A:  MOVLB  1
0385C:  MOVWF  x2B
0385E:  MOVLW  03
03860:  MOVWF  x2C
03862:  MOVLB  0
03864:  CALL   240A
.................... printf(lcd_putc, "%c_____",199); 
03868:  MOVLW  C7
0386A:  MOVLB  1
0386C:  MOVWF  x2A
0386E:  MOVLB  0
03870:  CALL   2474
03874:  MOVLW  4E
03876:  MOVWF  FF6
03878:  MOVLW  09
0387A:  MOVWF  FF7
0387C:  MOVLW  05
0387E:  MOVLB  1
03880:  MOVWF  x27
03882:  MOVLB  0
03884:  CALL   279A
.................... break; 
03888:  MOVLB  1
0388A:  BRA    39DA
.................... case 2: 
.................... lcd_gotoxy(7,3); 
0388C:  MOVLW  07
0388E:  MOVLB  1
03890:  MOVWF  x2B
03892:  MOVLW  03
03894:  MOVWF  x2C
03896:  MOVLB  0
03898:  CALL   240A
.................... printf(lcd_putc, "*%c____",199); 
0389C:  MOVLW  2A
0389E:  MOVLB  1
038A0:  MOVWF  x2A
038A2:  MOVLB  0
038A4:  CALL   2474
038A8:  MOVLW  C7
038AA:  MOVLB  1
038AC:  MOVWF  x2A
038AE:  MOVLB  0
038B0:  CALL   2474
038B4:  MOVLW  57
038B6:  MOVWF  FF6
038B8:  MOVLW  09
038BA:  MOVWF  FF7
038BC:  MOVLW  04
038BE:  MOVLB  1
038C0:  MOVWF  x27
038C2:  MOVLB  0
038C4:  CALL   279A
.................... break; 
038C8:  MOVLB  1
038CA:  BRA    39DA
.................... case 3: 
.................... lcd_gotoxy(7,3); 
038CC:  MOVLW  07
038CE:  MOVLB  1
038D0:  MOVWF  x2B
038D2:  MOVLW  03
038D4:  MOVWF  x2C
038D6:  MOVLB  0
038D8:  CALL   240A
.................... printf(lcd_putc, "**%c___",199); 
038DC:  MOVLW  2A
038DE:  MOVLB  1
038E0:  MOVWF  x2A
038E2:  MOVLB  0
038E4:  CALL   2474
038E8:  MOVLW  2A
038EA:  MOVLB  1
038EC:  MOVWF  x2A
038EE:  MOVLB  0
038F0:  CALL   2474
038F4:  MOVLW  C7
038F6:  MOVLB  1
038F8:  MOVWF  x2A
038FA:  MOVLB  0
038FC:  CALL   2474
03900:  MOVLW  60
03902:  MOVWF  FF6
03904:  MOVLW  09
03906:  MOVWF  FF7
03908:  MOVLW  03
0390A:  MOVLB  1
0390C:  MOVWF  x27
0390E:  MOVLB  0
03910:  CALL   279A
.................... break; 
03914:  MOVLB  1
03916:  BRA    39DA
.................... case 4: 
.................... lcd_gotoxy(7,3); 
03918:  MOVLW  07
0391A:  MOVLB  1
0391C:  MOVWF  x2B
0391E:  MOVLW  03
03920:  MOVWF  x2C
03922:  MOVLB  0
03924:  CALL   240A
.................... printf(lcd_putc, "***%c__",199); 
03928:  MOVLW  64
0392A:  MOVWF  FF6
0392C:  MOVLW  09
0392E:  MOVWF  FF7
03930:  MOVLW  03
03932:  MOVLB  1
03934:  MOVWF  x27
03936:  MOVLB  0
03938:  CALL   279A
0393C:  MOVLW  C7
0393E:  MOVLB  1
03940:  MOVWF  x2A
03942:  MOVLB  0
03944:  CALL   2474
03948:  MOVLW  5F
0394A:  MOVLB  1
0394C:  MOVWF  x2A
0394E:  MOVLB  0
03950:  CALL   2474
03954:  MOVLW  5F
03956:  MOVLB  1
03958:  MOVWF  x2A
0395A:  MOVLB  0
0395C:  CALL   2474
.................... break; 
03960:  MOVLB  1
03962:  BRA    39DA
.................... case 5: 
.................... lcd_gotoxy(7,3); 
03964:  MOVLW  07
03966:  MOVLB  1
03968:  MOVWF  x2B
0396A:  MOVLW  03
0396C:  MOVWF  x2C
0396E:  MOVLB  0
03970:  CALL   240A
.................... printf(lcd_putc, "****%c_",199); 
03974:  MOVLW  6C
03976:  MOVWF  FF6
03978:  MOVLW  09
0397A:  MOVWF  FF7
0397C:  MOVLW  04
0397E:  MOVLB  1
03980:  MOVWF  x27
03982:  MOVLB  0
03984:  CALL   279A
03988:  MOVLW  C7
0398A:  MOVLB  1
0398C:  MOVWF  x2A
0398E:  MOVLB  0
03990:  CALL   2474
03994:  MOVLW  5F
03996:  MOVLB  1
03998:  MOVWF  x2A
0399A:  MOVLB  0
0399C:  CALL   2474
.................... break; 
039A0:  MOVLB  1
039A2:  BRA    39DA
.................... case 6: 
.................... lcd_gotoxy(7,3); 
039A4:  MOVLW  07
039A6:  MOVLB  1
039A8:  MOVWF  x2B
039AA:  MOVLW  03
039AC:  MOVWF  x2C
039AE:  MOVLB  0
039B0:  CALL   240A
.................... printf(lcd_putc, "*****%c",199); 
039B4:  MOVLW  74
039B6:  MOVWF  FF6
039B8:  MOVLW  09
039BA:  MOVWF  FF7
039BC:  MOVLW  05
039BE:  MOVLB  1
039C0:  MOVWF  x27
039C2:  MOVLB  0
039C4:  CALL   279A
039C8:  MOVLW  C7
039CA:  MOVLB  1
039CC:  MOVWF  x2A
039CE:  MOVLB  0
039D0:  CALL   2474
.................... break; 
039D4:  MOVLB  1
039D6:  BRA    39DA
039D8:  MOVLB  1
....................  
.................... } // Sw subm 
....................  
.................... restart_wdt(); 
039DA:  CLRWDT
039DC:  BRA    36C6
....................  
....................  
.................... } // while -- todo lleno cuando salgo de aqui 
....................  
.................... if ((PassCheck[0] == Passwd[0]) && (PassCheck[1] == Passwd[1]))  { // contrasea comprobada ok 
039DE:  MOVF   x0D,W
039E0:  SUBWF  x16,W
039E2:  BNZ   3A5C
039E4:  MOVF   x0E,W
039E6:  SUBWF  x17,W
039E8:  BNZ   3A5C
.................... LIMPIARLCD; 
039EA:  MOVLW  7C
039EC:  MOVWF  FF6
039EE:  MOVLW  09
039F0:  MOVWF  FF7
039F2:  MOVLB  0
039F4:  CALL   24DC
.................... lcd_gotoxy(1,2); 
039F8:  MOVLW  01
039FA:  MOVLB  1
039FC:  MOVWF  x2B
039FE:  MOVLW  02
03A00:  MOVWF  x2C
03A02:  MOVLB  0
03A04:  CALL   240A
.................... printf(lcd_putc, "   Clave correcta   "); 
03A08:  MOVLW  7E
03A0A:  MOVWF  FF6
03A0C:  MOVLW  09
03A0E:  MOVWF  FF7
03A10:  CALL   24DC
.................... lcd_gotoxy(1,3); 
03A14:  MOVLW  01
03A16:  MOVLB  1
03A18:  MOVWF  x2B
03A1A:  MOVLW  03
03A1C:  MOVWF  x2C
03A1E:  MOVLB  0
03A20:  CALL   240A
.................... printf(lcd_putc, "    Bienvenido :)   "); 
03A24:  MOVLW  94
03A26:  MOVWF  FF6
03A28:  MOVLW  09
03A2A:  MOVWF  FF7
03A2C:  CALL   24DC
.................... restart_wdt(); 
03A30:  CLRWDT
.................... delay_ms(1000); 
03A32:  MOVLW  04
03A34:  MOVLB  1
03A36:  MOVWF  x19
03A38:  CLRF   19
03A3A:  BTFSC  FF2.7
03A3C:  BSF    19.7
03A3E:  BCF    FF2.7
03A40:  MOVLW  FA
03A42:  MOVWF  x37
03A44:  MOVLB  0
03A46:  CALL   0D76
03A4A:  BTFSC  19.7
03A4C:  BSF    FF2.7
03A4E:  MOVLB  1
03A50:  DECFSZ x19,F
03A52:  BRA    3A38
.................... return 1; 
03A54:  MOVLW  01
03A56:  MOVWF  01
03A58:  BRA    3ADE
.................... } else { // contrasea no comprobada ok 
03A5A:  BRA    3ADE
.................... LIMPIARLCD; 
03A5C:  MOVLW  AA
03A5E:  MOVWF  FF6
03A60:  MOVLW  09
03A62:  MOVWF  FF7
03A64:  MOVLB  0
03A66:  CALL   24DC
.................... lcd_gotoxy(1,2); 
03A6A:  MOVLW  01
03A6C:  MOVLB  1
03A6E:  MOVWF  x2B
03A70:  MOVLW  02
03A72:  MOVWF  x2C
03A74:  MOVLB  0
03A76:  CALL   240A
.................... lcd_gotoxy(1,2); 
03A7A:  MOVLW  01
03A7C:  MOVLB  1
03A7E:  MOVWF  x2B
03A80:  MOVLW  02
03A82:  MOVWF  x2C
03A84:  MOVLB  0
03A86:  CALL   240A
.................... printf(lcd_putc, "  Clave incorrecta  "); 
03A8A:  MOVLW  AC
03A8C:  MOVWF  FF6
03A8E:  MOVLW  09
03A90:  MOVWF  FF7
03A92:  CALL   24DC
.................... lcd_gotoxy(1,3); 
03A96:  MOVLW  01
03A98:  MOVLB  1
03A9A:  MOVWF  x2B
03A9C:  MOVLW  03
03A9E:  MOVWF  x2C
03AA0:  MOVLB  0
03AA2:  CALL   240A
.................... printf(lcd_putc, " Acceso denegado :( "); 
03AA6:  MOVLW  C2
03AA8:  MOVWF  FF6
03AAA:  MOVLW  09
03AAC:  MOVWF  FF7
03AAE:  CALL   24DC
.................... restart_wdt(); 
03AB2:  CLRWDT
.................... delay_ms(1000); 
03AB4:  MOVLW  04
03AB6:  MOVLB  1
03AB8:  MOVWF  x19
03ABA:  CLRF   19
03ABC:  BTFSC  FF2.7
03ABE:  BSF    19.7
03AC0:  BCF    FF2.7
03AC2:  MOVLW  FA
03AC4:  MOVWF  x37
03AC6:  MOVLB  0
03AC8:  CALL   0D76
03ACC:  BTFSC  19.7
03ACE:  BSF    FF2.7
03AD0:  MOVLB  1
03AD2:  DECFSZ x19,F
03AD4:  BRA    3ABA
.................... Menu = 1; 
03AD6:  MOVLW  01
03AD8:  MOVWF  27
.................... return 0; 
03ADA:  MOVLW  00
03ADC:  MOVWF  01
.................... } 
03ADE:  MOVLB  0
03AE0:  RETURN 0
.................... } // fn 
....................  
....................  
.................... void CClave(){ 
.................... if (Autenticar()){ 
*
07A08:  CALL   36AE
07A0C:  MOVF   01,F
07A0E:  BTFSC  FD8.2
07A10:  BRA    814C
.................... LIMPIARLCD; 
07A12:  MOVLW  D8
07A14:  MOVWF  FF6
07A16:  MOVLW  09
07A18:  MOVWF  FF7
07A1A:  CALL   24DC
....................  
.................... int PassCheck1[2]; 
.................... int PassCheck2[2]; 
....................  
.................... PassCheck1[0] = PassCheck1[1] = PassCheck2[0] = PassCheck2[1] = 0; 
07A1E:  MOVLB  1
07A20:  CLRF   x14
07A22:  MOVFF  114,113
07A26:  MOVFF  113,112
07A2A:  MOVFF  112,111
....................  
.................... int submenu = 1; 
07A2E:  MOVLW  01
07A30:  MOVWF  x15
....................  
.................... while (submenu < 13){ 
07A32:  MOVF   x15,W
07A34:  SUBLW  0C
07A36:  BTFSS  FD8.0
07A38:  BRA    7FE2
....................  
.................... restart_wdt(); 
07A3A:  CLRWDT
....................  
.................... if (input(ARRIBA)==1 && input(ABAJO)==1 && input(OOKK)==1 && input(CANCEL)==1) Rebote = false; // Soltamos las teclas 
07A3C:  BSF    F93.0
07A3E:  BTFSS  F81.0
07A40:  BRA    7A56
07A42:  BSF    F93.1
07A44:  BTFSS  F81.1
07A46:  BRA    7A56
07A48:  BSF    F93.2
07A4A:  BTFSS  F81.2
07A4C:  BRA    7A56
07A4E:  BSF    F93.3
07A50:  BTFSS  F81.3
07A52:  BRA    7A56
07A54:  BCF    34.0
....................  
....................  
.................... if (Rebote == False) { 
07A56:  BTFSC  34.0
07A58:  BRA    7AD6
.................... if (input(OOKK) == 0){ 
07A5A:  BSF    F93.2
07A5C:  BTFSC  F81.2
07A5E:  BRA    7AD6
.................... Rebote = True; 
07A60:  BSF    34.0
.................... switch (submenu){ 
07A62:  MOVLW  01
07A64:  SUBWF  x15,W
07A66:  ADDLW  F4
07A68:  BC    7AD4
07A6A:  ADDLW  0C
07A6C:  MOVLB  0
07A6E:  GOTO   8152
....................    case 1: 
....................    bit_clear(PassCheck1[0],0); 
07A72:  MOVLB  1
07A74:  BCF    x11.0
....................    bit_set(PassCheck1[0],1); 
07A76:  BSF    x11.1
....................    //++submenu; 
....................    break; 
07A78:  BRA    7AD4
....................  
.................... case 7: 
....................    bit_clear(PassCheck2[0],0); 
07A7A:  MOVLB  1
07A7C:  BCF    x13.0
....................    bit_set(PassCheck2[0],1); 
07A7E:  BSF    x13.1
....................    //++submenu; 
....................    break; 
07A80:  BRA    7AD4
....................    case 2: 
....................    bit_clear(PassCheck1[0],2); 
07A82:  MOVLB  1
07A84:  BCF    x11.2
....................    bit_set(PassCheck1[0],3); 
07A86:  BSF    x11.3
....................    //++submenu; 
....................    break; 
07A88:  BRA    7AD4
....................  
....................    case 8: 
....................    bit_clear(PassCheck2[0],2); 
07A8A:  MOVLB  1
07A8C:  BCF    x13.2
....................    bit_set(PassCheck2[0],3); 
07A8E:  BSF    x13.3
....................    //++submenu; 
....................    break; 
07A90:  BRA    7AD4
....................  
....................    case 3: 
....................    bit_clear(PassCheck1[0],4); 
07A92:  MOVLB  1
07A94:  BCF    x11.4
....................    bit_set(PassCheck1[0],5); 
07A96:  BSF    x11.5
....................    //++submenu; 
....................    break; 
07A98:  BRA    7AD4
....................    case 9: 
....................    bit_clear(PassCheck2[0],4); 
07A9A:  MOVLB  1
07A9C:  BCF    x13.4
....................    bit_set(PassCheck2[0],5); 
07A9E:  BSF    x13.5
....................    //++submenu; 
....................    break; 
07AA0:  BRA    7AD4
....................  
....................    case 4: 
....................    bit_clear(PassCheck1[0],6); 
07AA2:  MOVLB  1
07AA4:  BCF    x11.6
....................    bit_set(PassCheck1[0],7); 
07AA6:  BSF    x11.7
....................    //++submenu; 
....................    break; 
07AA8:  BRA    7AD4
....................    case 10: 
....................    bit_clear(PassCheck2[0],6); 
07AAA:  MOVLB  1
07AAC:  BCF    x13.6
....................    bit_set(PassCheck2[0],7); 
07AAE:  BSF    x13.7
....................    //++submenu; 
....................    break; 
07AB0:  BRA    7AD4
....................  
....................    case 5: 
....................    bit_clear(PassCheck1[1],0); 
07AB2:  MOVLB  1
07AB4:  BCF    x12.0
....................    bit_set(PassCheck1[1],1); 
07AB6:  BSF    x12.1
....................    //++submenu; 
....................    break; 
07AB8:  BRA    7AD4
....................    case 11: 
....................    bit_clear(PassCheck2[1],0); 
07ABA:  MOVLB  1
07ABC:  BCF    x14.0
....................    bit_set(PassCheck2[1],1); 
07ABE:  BSF    x14.1
....................    //++submenu; 
....................    break; 
07AC0:  BRA    7AD4
....................  
....................    case 6: 
....................    bit_clear(PassCheck1[1],2); 
07AC2:  MOVLB  1
07AC4:  BCF    x12.2
....................    bit_set(PassCheck1[1],3); 
07AC6:  BSF    x12.3
....................    //++submenu; 
....................    break; 
07AC8:  BRA    7AD4
....................    case 12: 
....................    bit_clear(PassCheck2[1],2); 
07ACA:  MOVLB  1
07ACC:  BCF    x14.2
....................    bit_set(PassCheck2[1],3); 
07ACE:  BSF    x14.3
....................    //++submenu; 
....................    break; 
07AD0:  BRA    7AD4
07AD2:  MOVLB  1
.................... } 
.................... ++submenu; 
07AD4:  INCF   x15,F
.................... } // si OK 
.................... } // rebote falso 
....................  
.................... if (Rebote == False) { 
07AD6:  BTFSC  34.0
07AD8:  BRA    7B56
.................... if (input(CANCEL) == 0){ 
07ADA:  BSF    F93.3
07ADC:  BTFSC  F81.3
07ADE:  BRA    7B56
.................... Rebote = True; 
07AE0:  BSF    34.0
.................... switch (submenu){ 
07AE2:  MOVLW  01
07AE4:  SUBWF  x15,W
07AE6:  ADDLW  F4
07AE8:  BC    7B54
07AEA:  ADDLW  0C
07AEC:  MOVLB  0
07AEE:  GOTO   8184
....................    case 1: 
....................    bit_set(PassCheck1[0],0); 
07AF2:  MOVLB  1
07AF4:  BSF    x11.0
....................    bit_set(PassCheck1[0],1); 
07AF6:  BSF    x11.1
....................    //++submenu; 
....................    break; 
07AF8:  BRA    7B54
....................    case 7: 
....................    bit_set(PassCheck2[0],0); 
07AFA:  MOVLB  1
07AFC:  BSF    x13.0
....................    bit_set(PassCheck2[0],1); 
07AFE:  BSF    x13.1
....................    //++submenu; 
....................    break; 
07B00:  BRA    7B54
....................  
....................    case 2: 
....................    bit_set(PassCheck1[0],2); 
07B02:  MOVLB  1
07B04:  BSF    x11.2
....................    bit_set(PassCheck1[0],3); 
07B06:  BSF    x11.3
....................    //++submenu; 
....................    break; 
07B08:  BRA    7B54
....................    case 8: 
....................    bit_set(PassCheck2[0],2); 
07B0A:  MOVLB  1
07B0C:  BSF    x13.2
....................    bit_set(PassCheck2[0],3); 
07B0E:  BSF    x13.3
....................    //++submenu; 
....................    break; 
07B10:  BRA    7B54
....................  
....................    case 3: 
....................    bit_set(PassCheck1[0],4); 
07B12:  MOVLB  1
07B14:  BSF    x11.4
....................    bit_set(PassCheck1[0],5); 
07B16:  BSF    x11.5
....................    //++submenu; 
....................    break; 
07B18:  BRA    7B54
....................    case 9: 
....................    bit_set(PassCheck2[0],4); 
07B1A:  MOVLB  1
07B1C:  BSF    x13.4
....................    bit_set(PassCheck2[0],5); 
07B1E:  BSF    x13.5
....................    //++submenu; 
....................    break; 
07B20:  BRA    7B54
....................  
....................    case 4: 
....................    bit_set(PassCheck1[0],6); 
07B22:  MOVLB  1
07B24:  BSF    x11.6
....................    bit_set(PassCheck1[0],7); 
07B26:  BSF    x11.7
....................    //++submenu; 
....................    break; 
07B28:  BRA    7B54
....................    case 10: 
....................    bit_set(PassCheck2[0],6); 
07B2A:  MOVLB  1
07B2C:  BSF    x13.6
....................    bit_set(PassCheck2[0],7); 
07B2E:  BSF    x13.7
....................    //++submenu; 
....................    break; 
07B30:  BRA    7B54
....................  
....................    case 5: 
....................    bit_set(PassCheck1[1],0); 
07B32:  MOVLB  1
07B34:  BSF    x12.0
....................    bit_set(PassCheck1[1],1); 
07B36:  BSF    x12.1
....................    //++submenu; 
....................    break; 
07B38:  BRA    7B54
....................    case 11: 
....................    bit_set(PassCheck2[1],0); 
07B3A:  MOVLB  1
07B3C:  BSF    x14.0
....................    bit_set(PassCheck2[1],1); 
07B3E:  BSF    x14.1
....................    //++submenu; 
....................    break; 
07B40:  BRA    7B54
....................  
....................    case 6: 
....................    bit_set(PassCheck1[1],2); 
07B42:  MOVLB  1
07B44:  BSF    x12.2
....................    bit_set(PassCheck1[1],3); 
07B46:  BSF    x12.3
....................    //++submenu; 
....................    break; 
07B48:  BRA    7B54
....................    case 12: 
....................    bit_set(PassCheck2[1],2); 
07B4A:  MOVLB  1
07B4C:  BSF    x14.2
....................    bit_set(PassCheck2[1],3); 
07B4E:  BSF    x14.3
....................    //++submenu; 
....................    break; 
07B50:  BRA    7B54
07B52:  MOVLB  1
.................... } // switch 
.................... ++submenu; 
07B54:  INCF   x15,F
.................... } // si CANCEL 
.................... } // rebote falso 
....................  
....................  
.................... if (Rebote == False) { 
07B56:  BTFSC  34.0
07B58:  BRA    7BD6
.................... if (input(ARRIBA) == 0){ 
07B5A:  BSF    F93.0
07B5C:  BTFSC  F81.0
07B5E:  BRA    7BD6
.................... Rebote = True; 
07B60:  BSF    34.0
.................... switch (submenu){ 
07B62:  MOVLW  01
07B64:  SUBWF  x15,W
07B66:  ADDLW  F4
07B68:  BC    7BD4
07B6A:  ADDLW  0C
07B6C:  MOVLB  0
07B6E:  GOTO   81B6
....................    case 1: 
....................    bit_clear(PassCheck1[0],0); 
07B72:  MOVLB  1
07B74:  BCF    x11.0
....................    bit_clear(PassCheck1[0],1); 
07B76:  BCF    x11.1
....................    //++submenu; 
....................    break; 
07B78:  BRA    7BD4
....................    case 7: 
....................    bit_clear(PassCheck2[0],0); 
07B7A:  MOVLB  1
07B7C:  BCF    x13.0
....................    bit_clear(PassCheck2[0],1); 
07B7E:  BCF    x13.1
....................    //++submenu; 
....................    break; 
07B80:  BRA    7BD4
....................  
....................    case 2: 
....................    bit_clear(PassCheck1[0],2); 
07B82:  MOVLB  1
07B84:  BCF    x11.2
....................    bit_clear(PassCheck1[0],3); 
07B86:  BCF    x11.3
....................    //++submenu; 
....................    break; 
07B88:  BRA    7BD4
....................    case 8: 
....................    bit_clear(PassCheck2[0],2); 
07B8A:  MOVLB  1
07B8C:  BCF    x13.2
....................    bit_clear(PassCheck2[0],3); 
07B8E:  BCF    x13.3
....................    //++submenu; 
....................    break; 
07B90:  BRA    7BD4
....................  
....................    case 3: 
....................    bit_clear(PassCheck1[0],4); 
07B92:  MOVLB  1
07B94:  BCF    x11.4
....................    bit_clear(PassCheck1[0],5); 
07B96:  BCF    x11.5
....................    //++submenu; 
....................    break; 
07B98:  BRA    7BD4
....................    case 9: 
....................    bit_clear(PassCheck2[0],4); 
07B9A:  MOVLB  1
07B9C:  BCF    x13.4
....................    bit_clear(PassCheck2[0],5); 
07B9E:  BCF    x13.5
....................    //++submenu; 
....................    break; 
07BA0:  BRA    7BD4
....................  
....................    case 4: 
....................    bit_clear(PassCheck1[0],6); 
07BA2:  MOVLB  1
07BA4:  BCF    x11.6
....................    bit_clear(PassCheck1[0],7); 
07BA6:  BCF    x11.7
....................    //++submenu; 
....................    break; 
07BA8:  BRA    7BD4
....................    case 10: 
....................    bit_clear(PassCheck2[0],6); 
07BAA:  MOVLB  1
07BAC:  BCF    x13.6
....................    bit_clear(PassCheck2[0],7); 
07BAE:  BCF    x13.7
....................    //++submenu; 
....................    break; 
07BB0:  BRA    7BD4
....................  
....................    case 5: 
....................    bit_clear(PassCheck1[1],0); 
07BB2:  MOVLB  1
07BB4:  BCF    x12.0
....................    bit_clear(PassCheck1[1],1); 
07BB6:  BCF    x12.1
....................    //++submenu; 
....................    break; 
07BB8:  BRA    7BD4
....................    case 11: 
....................    bit_clear(PassCheck2[1],0); 
07BBA:  MOVLB  1
07BBC:  BCF    x14.0
....................    bit_clear(PassCheck2[1],1); 
07BBE:  BCF    x14.1
....................    //++submenu; 
....................    break; 
07BC0:  BRA    7BD4
....................  
....................    case 6: 
....................    bit_clear(PassCheck1[1],2); 
07BC2:  MOVLB  1
07BC4:  BCF    x12.2
....................    bit_clear(PassCheck1[1],3); 
07BC6:  BCF    x12.3
....................    //++submenu; 
....................    break; 
07BC8:  BRA    7BD4
....................    case 12: 
....................    bit_clear(PassCheck2[1],2); 
07BCA:  MOVLB  1
07BCC:  BCF    x14.2
....................    bit_clear(PassCheck2[1],3); 
07BCE:  BCF    x14.3
....................    //++submenu; 
....................    break; 
07BD0:  BRA    7BD4
07BD2:  MOVLB  1
.................... } // switch 
.................... ++submenu; 
07BD4:  INCF   x15,F
.................... } // si ARRIBA 
.................... } // rebote falso 
....................  
....................  
.................... if (Rebote == False) { 
07BD6:  BTFSC  34.0
07BD8:  BRA    7C56
.................... if (input(ABAJO) == 0){ 
07BDA:  BSF    F93.1
07BDC:  BTFSC  F81.1
07BDE:  BRA    7C56
.................... Rebote = True; 
07BE0:  BSF    34.0
.................... switch (submenu){ 
07BE2:  MOVLW  01
07BE4:  SUBWF  x15,W
07BE6:  ADDLW  F4
07BE8:  BC    7C54
07BEA:  ADDLW  0C
07BEC:  MOVLB  0
07BEE:  GOTO   81E8
....................    case 1: 
....................    bit_set(PassCheck1[0],0); 
07BF2:  MOVLB  1
07BF4:  BSF    x11.0
....................    bit_clear(PassCheck1[0],1); 
07BF6:  BCF    x11.1
....................    //++submenu; 
....................    break; 
07BF8:  BRA    7C54
....................    case 7: 
....................    bit_set(PassCheck2[0],0); 
07BFA:  MOVLB  1
07BFC:  BSF    x13.0
....................    bit_clear(PassCheck2[0],1); 
07BFE:  BCF    x13.1
....................    //++submenu; 
....................    break; 
07C00:  BRA    7C54
....................  
....................    case 2: 
....................    bit_set(PassCheck1[0],2); 
07C02:  MOVLB  1
07C04:  BSF    x11.2
....................    bit_clear(PassCheck1[0],3); 
07C06:  BCF    x11.3
....................    //++submenu; 
....................    break; 
07C08:  BRA    7C54
....................    case 8: 
....................    bit_set(PassCheck2[0],2); 
07C0A:  MOVLB  1
07C0C:  BSF    x13.2
....................    bit_clear(PassCheck2[0],3); 
07C0E:  BCF    x13.3
....................    //++submenu; 
....................    break; 
07C10:  BRA    7C54
....................  
....................    case 3: 
....................    bit_set(PassCheck1[0],4); 
07C12:  MOVLB  1
07C14:  BSF    x11.4
....................    bit_clear(PassCheck1[0],5); 
07C16:  BCF    x11.5
....................    //++submenu; 
....................    break; 
07C18:  BRA    7C54
....................    case 9: 
....................    bit_set(PassCheck2[0],4); 
07C1A:  MOVLB  1
07C1C:  BSF    x13.4
....................    bit_clear(PassCheck2[0],5); 
07C1E:  BCF    x13.5
....................    //++submenu; 
....................    break; 
07C20:  BRA    7C54
....................  
....................    case 4: 
....................    bit_set(PassCheck1[0],6); 
07C22:  MOVLB  1
07C24:  BSF    x11.6
....................    bit_clear(PassCheck1[0],7); 
07C26:  BCF    x11.7
....................    //++submenu; 
....................    break; 
07C28:  BRA    7C54
....................    case 10: 
....................    bit_set(PassCheck2[0],6); 
07C2A:  MOVLB  1
07C2C:  BSF    x13.6
....................    bit_clear(PassCheck2[0],7); 
07C2E:  BCF    x13.7
....................    //++submenu; 
....................    break; 
07C30:  BRA    7C54
....................  
....................    case 5: 
....................    bit_set(PassCheck1[1],0); 
07C32:  MOVLB  1
07C34:  BSF    x12.0
....................    bit_clear(PassCheck1[1],1); 
07C36:  BCF    x12.1
....................    //++submenu; 
....................    break; 
07C38:  BRA    7C54
....................    case 11: 
....................    bit_set(PassCheck2[1],0); 
07C3A:  MOVLB  1
07C3C:  BSF    x14.0
....................    bit_clear(PassCheck2[1],1); 
07C3E:  BCF    x14.1
....................    //++submenu; 
....................    break; 
07C40:  BRA    7C54
....................  
....................    case 6: 
....................    bit_set(PassCheck1[1],2); 
07C42:  MOVLB  1
07C44:  BSF    x12.2
....................    bit_clear(PassCheck1[1],3); 
07C46:  BCF    x12.3
....................    //++submenu; 
....................    break; 
07C48:  BRA    7C54
....................    case 12: 
....................    bit_set(PassCheck2[1],2); 
07C4A:  MOVLB  1
07C4C:  BSF    x14.2
....................    bit_clear(PassCheck2[1],3); 
07C4E:  BCF    x14.3
....................    //++submenu; 
....................    break; 
07C50:  BRA    7C54
07C52:  MOVLB  1
.................... } // switch 
.................... ++submenu; 
07C54:  INCF   x15,F
.................... } // si CANCEL 
.................... } // rebote falso 
....................  
.................... lcd_gotoxy(1,1); 
07C56:  MOVLW  01
07C58:  MOVWF  x2B
07C5A:  MOVWF  x2C
07C5C:  MOVLB  0
07C5E:  CALL   240A
.................... printf(lcd_putc, "== Cambiar Clave ==="); 
07C62:  MOVLW  DA
07C64:  MOVWF  FF6
07C66:  MOVLW  09
07C68:  MOVWF  FF7
07C6A:  CALL   24DC
.................... lcd_gotoxy(1,2); 
07C6E:  MOVLW  01
07C70:  MOVLB  1
07C72:  MOVWF  x2B
07C74:  MOVLW  02
07C76:  MOVWF  x2C
07C78:  MOVLB  0
07C7A:  CALL   240A
.................... printf(lcd_putc, "  Nueva: "); 
07C7E:  MOVLW  F0
07C80:  MOVWF  FF6
07C82:  MOVLW  09
07C84:  MOVWF  FF7
07C86:  CALL   24DC
.................... if (submenu > 6) { 
07C8A:  MOVLB  1
07C8C:  MOVF   x15,W
07C8E:  SUBLW  06
07C90:  BC    7CAE
.................... lcd_gotoxy(1,3); 
07C92:  MOVLW  01
07C94:  MOVWF  x2B
07C96:  MOVLW  03
07C98:  MOVWF  x2C
07C9A:  MOVLB  0
07C9C:  CALL   240A
.................... printf(lcd_putc, " Repita: "); 
07CA0:  MOVLW  FA
07CA2:  MOVWF  FF6
07CA4:  MOVLW  09
07CA6:  MOVWF  FF7
07CA8:  CALL   24DC
07CAC:  MOVLB  1
.................... } 
....................  
.................... switch (submenu){ 
07CAE:  MOVLW  01
07CB0:  SUBWF  x15,W
07CB2:  ADDLW  F4
07CB4:  BTFSC  FD8.0
07CB6:  BRA    7FDE
07CB8:  ADDLW  0C
07CBA:  MOVLB  0
07CBC:  GOTO   821A
.................... case 1: 
.................... lcd_gotoxy(10,2); 
07CC0:  MOVLW  0A
07CC2:  MOVLB  1
07CC4:  MOVWF  x2B
07CC6:  MOVLW  02
07CC8:  MOVWF  x2C
07CCA:  MOVLB  0
07CCC:  CALL   240A
.................... printf(lcd_putc, "%c_____",199); 
07CD0:  MOVLW  C7
07CD2:  MOVLB  1
07CD4:  MOVWF  x2A
07CD6:  MOVLB  0
07CD8:  CALL   2474
07CDC:  MOVLW  06
07CDE:  MOVWF  FF6
07CE0:  MOVLW  0A
07CE2:  MOVWF  FF7
07CE4:  MOVLW  05
07CE6:  MOVLB  1
07CE8:  MOVWF  x27
07CEA:  MOVLB  0
07CEC:  CALL   279A
.................... break; 
07CF0:  MOVLB  1
07CF2:  BRA    7FDE
.................... case 2: 
.................... lcd_gotoxy(10,2); 
07CF4:  MOVLW  0A
07CF6:  MOVLB  1
07CF8:  MOVWF  x2B
07CFA:  MOVLW  02
07CFC:  MOVWF  x2C
07CFE:  MOVLB  0
07D00:  CALL   240A
.................... printf(lcd_putc, "*%c____",199); 
07D04:  MOVLW  2A
07D06:  MOVLB  1
07D08:  MOVWF  x2A
07D0A:  MOVLB  0
07D0C:  CALL   2474
07D10:  MOVLW  C7
07D12:  MOVLB  1
07D14:  MOVWF  x2A
07D16:  MOVLB  0
07D18:  CALL   2474
07D1C:  MOVLW  0F
07D1E:  MOVWF  FF6
07D20:  MOVLW  0A
07D22:  MOVWF  FF7
07D24:  MOVLW  04
07D26:  MOVLB  1
07D28:  MOVWF  x27
07D2A:  MOVLB  0
07D2C:  CALL   279A
.................... break; 
07D30:  MOVLB  1
07D32:  BRA    7FDE
.................... case 3: 
.................... lcd_gotoxy(10,2); 
07D34:  MOVLW  0A
07D36:  MOVLB  1
07D38:  MOVWF  x2B
07D3A:  MOVLW  02
07D3C:  MOVWF  x2C
07D3E:  MOVLB  0
07D40:  CALL   240A
.................... printf(lcd_putc, "**%c___",199); 
07D44:  MOVLW  2A
07D46:  MOVLB  1
07D48:  MOVWF  x2A
07D4A:  MOVLB  0
07D4C:  CALL   2474
07D50:  MOVLW  2A
07D52:  MOVLB  1
07D54:  MOVWF  x2A
07D56:  MOVLB  0
07D58:  CALL   2474
07D5C:  MOVLW  C7
07D5E:  MOVLB  1
07D60:  MOVWF  x2A
07D62:  MOVLB  0
07D64:  CALL   2474
07D68:  MOVLW  18
07D6A:  MOVWF  FF6
07D6C:  MOVLW  0A
07D6E:  MOVWF  FF7
07D70:  MOVLW  03
07D72:  MOVLB  1
07D74:  MOVWF  x27
07D76:  MOVLB  0
07D78:  CALL   279A
.................... break; 
07D7C:  MOVLB  1
07D7E:  BRA    7FDE
.................... case 4: 
.................... lcd_gotoxy(10,2); 
07D80:  MOVLW  0A
07D82:  MOVLB  1
07D84:  MOVWF  x2B
07D86:  MOVLW  02
07D88:  MOVWF  x2C
07D8A:  MOVLB  0
07D8C:  CALL   240A
.................... printf(lcd_putc, "***%c__",199); 
07D90:  MOVLW  1C
07D92:  MOVWF  FF6
07D94:  MOVLW  0A
07D96:  MOVWF  FF7
07D98:  MOVLW  03
07D9A:  MOVLB  1
07D9C:  MOVWF  x27
07D9E:  MOVLB  0
07DA0:  CALL   279A
07DA4:  MOVLW  C7
07DA6:  MOVLB  1
07DA8:  MOVWF  x2A
07DAA:  MOVLB  0
07DAC:  CALL   2474
07DB0:  MOVLW  5F
07DB2:  MOVLB  1
07DB4:  MOVWF  x2A
07DB6:  MOVLB  0
07DB8:  CALL   2474
07DBC:  MOVLW  5F
07DBE:  MOVLB  1
07DC0:  MOVWF  x2A
07DC2:  MOVLB  0
07DC4:  CALL   2474
.................... break; 
07DC8:  MOVLB  1
07DCA:  BRA    7FDE
.................... case 5: 
.................... lcd_gotoxy(10,2); 
07DCC:  MOVLW  0A
07DCE:  MOVLB  1
07DD0:  MOVWF  x2B
07DD2:  MOVLW  02
07DD4:  MOVWF  x2C
07DD6:  MOVLB  0
07DD8:  CALL   240A
.................... printf(lcd_putc, "****%c_",199); 
07DDC:  MOVLW  24
07DDE:  MOVWF  FF6
07DE0:  MOVLW  0A
07DE2:  MOVWF  FF7
07DE4:  MOVLW  04
07DE6:  MOVLB  1
07DE8:  MOVWF  x27
07DEA:  MOVLB  0
07DEC:  CALL   279A
07DF0:  MOVLW  C7
07DF2:  MOVLB  1
07DF4:  MOVWF  x2A
07DF6:  MOVLB  0
07DF8:  CALL   2474
07DFC:  MOVLW  5F
07DFE:  MOVLB  1
07E00:  MOVWF  x2A
07E02:  MOVLB  0
07E04:  CALL   2474
.................... break; 
07E08:  MOVLB  1
07E0A:  BRA    7FDE
.................... case 6: 
.................... lcd_gotoxy(10,2); 
07E0C:  MOVLW  0A
07E0E:  MOVLB  1
07E10:  MOVWF  x2B
07E12:  MOVLW  02
07E14:  MOVWF  x2C
07E16:  MOVLB  0
07E18:  CALL   240A
.................... printf(lcd_putc, "*****%c",199); 
07E1C:  MOVLW  2C
07E1E:  MOVWF  FF6
07E20:  MOVLW  0A
07E22:  MOVWF  FF7
07E24:  MOVLW  05
07E26:  MOVLB  1
07E28:  MOVWF  x27
07E2A:  MOVLB  0
07E2C:  CALL   279A
07E30:  MOVLW  C7
07E32:  MOVLB  1
07E34:  MOVWF  x2A
07E36:  MOVLB  0
07E38:  CALL   2474
.................... break; 
07E3C:  MOVLB  1
07E3E:  BRA    7FDE
....................  
.................... case 7: 
.................... lcd_gotoxy(10,2); 
07E40:  MOVLW  0A
07E42:  MOVLB  1
07E44:  MOVWF  x2B
07E46:  MOVLW  02
07E48:  MOVWF  x2C
07E4A:  MOVLB  0
07E4C:  CALL   240A
.................... printf(lcd_putc, "******"); 
07E50:  MOVLW  34
07E52:  MOVWF  FF6
07E54:  MOVLW  0A
07E56:  MOVWF  FF7
07E58:  CALL   24DC
.................... lcd_gotoxy(10,3); 
07E5C:  MOVLW  0A
07E5E:  MOVLB  1
07E60:  MOVWF  x2B
07E62:  MOVLW  03
07E64:  MOVWF  x2C
07E66:  MOVLB  0
07E68:  CALL   240A
.................... printf(lcd_putc, "%c_____",199); 
07E6C:  MOVLW  C7
07E6E:  MOVLB  1
07E70:  MOVWF  x2A
07E72:  MOVLB  0
07E74:  CALL   2474
07E78:  MOVLW  3E
07E7A:  MOVWF  FF6
07E7C:  MOVLW  0A
07E7E:  MOVWF  FF7
07E80:  MOVLW  05
07E82:  MOVLB  1
07E84:  MOVWF  x27
07E86:  MOVLB  0
07E88:  CALL   279A
.................... break; 
07E8C:  MOVLB  1
07E8E:  BRA    7FDE
.................... case 8: 
.................... lcd_gotoxy(10,3); 
07E90:  MOVLW  0A
07E92:  MOVLB  1
07E94:  MOVWF  x2B
07E96:  MOVLW  03
07E98:  MOVWF  x2C
07E9A:  MOVLB  0
07E9C:  CALL   240A
.................... printf(lcd_putc, "*%c____",199); 
07EA0:  MOVLW  2A
07EA2:  MOVLB  1
07EA4:  MOVWF  x2A
07EA6:  MOVLB  0
07EA8:  CALL   2474
07EAC:  MOVLW  C7
07EAE:  MOVLB  1
07EB0:  MOVWF  x2A
07EB2:  MOVLB  0
07EB4:  CALL   2474
07EB8:  MOVLW  47
07EBA:  MOVWF  FF6
07EBC:  MOVLW  0A
07EBE:  MOVWF  FF7
07EC0:  MOVLW  04
07EC2:  MOVLB  1
07EC4:  MOVWF  x27
07EC6:  MOVLB  0
07EC8:  CALL   279A
.................... break; 
07ECC:  MOVLB  1
07ECE:  BRA    7FDE
.................... case 9: 
.................... lcd_gotoxy(10,3); 
07ED0:  MOVLW  0A
07ED2:  MOVLB  1
07ED4:  MOVWF  x2B
07ED6:  MOVLW  03
07ED8:  MOVWF  x2C
07EDA:  MOVLB  0
07EDC:  CALL   240A
.................... printf(lcd_putc, "**%c___",199); 
07EE0:  MOVLW  2A
07EE2:  MOVLB  1
07EE4:  MOVWF  x2A
07EE6:  MOVLB  0
07EE8:  CALL   2474
07EEC:  MOVLW  2A
07EEE:  MOVLB  1
07EF0:  MOVWF  x2A
07EF2:  MOVLB  0
07EF4:  CALL   2474
07EF8:  MOVLW  C7
07EFA:  MOVLB  1
07EFC:  MOVWF  x2A
07EFE:  MOVLB  0
07F00:  CALL   2474
07F04:  MOVLW  50
07F06:  MOVWF  FF6
07F08:  MOVLW  0A
07F0A:  MOVWF  FF7
07F0C:  MOVLW  03
07F0E:  MOVLB  1
07F10:  MOVWF  x27
07F12:  MOVLB  0
07F14:  CALL   279A
.................... break; 
07F18:  MOVLB  1
07F1A:  BRA    7FDE
.................... case 10: 
.................... lcd_gotoxy(10,3); 
07F1C:  MOVLW  0A
07F1E:  MOVLB  1
07F20:  MOVWF  x2B
07F22:  MOVLW  03
07F24:  MOVWF  x2C
07F26:  MOVLB  0
07F28:  CALL   240A
.................... printf(lcd_putc, "***%c__",199); 
07F2C:  MOVLW  54
07F2E:  MOVWF  FF6
07F30:  MOVLW  0A
07F32:  MOVWF  FF7
07F34:  MOVLW  03
07F36:  MOVLB  1
07F38:  MOVWF  x27
07F3A:  MOVLB  0
07F3C:  CALL   279A
07F40:  MOVLW  C7
07F42:  MOVLB  1
07F44:  MOVWF  x2A
07F46:  MOVLB  0
07F48:  CALL   2474
07F4C:  MOVLW  5F
07F4E:  MOVLB  1
07F50:  MOVWF  x2A
07F52:  MOVLB  0
07F54:  CALL   2474
07F58:  MOVLW  5F
07F5A:  MOVLB  1
07F5C:  MOVWF  x2A
07F5E:  MOVLB  0
07F60:  CALL   2474
.................... break; 
07F64:  MOVLB  1
07F66:  BRA    7FDE
.................... case 11: 
.................... lcd_gotoxy(10,3); 
07F68:  MOVLW  0A
07F6A:  MOVLB  1
07F6C:  MOVWF  x2B
07F6E:  MOVLW  03
07F70:  MOVWF  x2C
07F72:  MOVLB  0
07F74:  CALL   240A
.................... printf(lcd_putc, "****%c_",199); 
07F78:  MOVLW  5C
07F7A:  MOVWF  FF6
07F7C:  MOVLW  0A
07F7E:  MOVWF  FF7
07F80:  MOVLW  04
07F82:  MOVLB  1
07F84:  MOVWF  x27
07F86:  MOVLB  0
07F88:  CALL   279A
07F8C:  MOVLW  C7
07F8E:  MOVLB  1
07F90:  MOVWF  x2A
07F92:  MOVLB  0
07F94:  CALL   2474
07F98:  MOVLW  5F
07F9A:  MOVLB  1
07F9C:  MOVWF  x2A
07F9E:  MOVLB  0
07FA0:  CALL   2474
.................... break; 
07FA4:  MOVLB  1
07FA6:  BRA    7FDE
.................... case 12: 
.................... lcd_gotoxy(10,3); 
07FA8:  MOVLW  0A
07FAA:  MOVLB  1
07FAC:  MOVWF  x2B
07FAE:  MOVLW  03
07FB0:  MOVWF  x2C
07FB2:  MOVLB  0
07FB4:  CALL   240A
.................... printf(lcd_putc, "*****%c",199); 
07FB8:  MOVLW  64
07FBA:  MOVWF  FF6
07FBC:  MOVLW  0A
07FBE:  MOVWF  FF7
07FC0:  MOVLW  05
07FC2:  MOVLB  1
07FC4:  MOVWF  x27
07FC6:  MOVLB  0
07FC8:  CALL   279A
07FCC:  MOVLW  C7
07FCE:  MOVLB  1
07FD0:  MOVWF  x2A
07FD2:  MOVLB  0
07FD4:  CALL   2474
.................... break; 
07FD8:  MOVLB  1
07FDA:  BRA    7FDE
07FDC:  MOVLB  1
.................... } // Sw subm 
....................  
.................... restart_wdt(); 
07FDE:  CLRWDT
07FE0:  BRA    7A32
....................  
....................  
.................... } // while -- todo lleno cuando salgo de aqui 
....................  
.................... if (submenu == 13){ 
07FE2:  MOVF   x15,W
07FE4:  SUBLW  0D
07FE6:  BTFSS  FD8.2
07FE8:  BRA    814C
.................... if ((PassCheck1[0] == PassCheck2[0]) && (PassCheck1[1] == PassCheck2[1]))  { // contrasea comprobada ok 
07FEA:  MOVF   x13,W
07FEC:  SUBWF  x11,W
07FEE:  BNZ   80DE
07FF0:  MOVF   x14,W
07FF2:  SUBWF  x12,W
07FF4:  BNZ   80DE
.................... LIMPIARLCD; 
07FF6:  MOVLW  6C
07FF8:  MOVWF  FF6
07FFA:  MOVLW  0A
07FFC:  MOVWF  FF7
07FFE:  MOVLB  0
08000:  CALL   24DC
.................... lcd_gotoxy(1,2); 
08004:  MOVLW  01
08006:  MOVLB  1
08008:  MOVWF  x2B
0800A:  MOVLW  02
0800C:  MOVWF  x2C
0800E:  MOVLB  0
08010:  CALL   240A
.................... printf(lcd_putc, "  Clave modificada  "); 
08014:  MOVLW  6E
08016:  MOVWF  FF6
08018:  MOVLW  0A
0801A:  MOVWF  FF7
0801C:  CALL   24DC
.................... lcd_gotoxy(1,3); 
08020:  MOVLW  01
08022:  MOVLB  1
08024:  MOVWF  x2B
08026:  MOVLW  03
08028:  MOVWF  x2C
0802A:  MOVLB  0
0802C:  CALL   240A
.................... printf(lcd_putc, "  correctamente :)  "); 
08030:  MOVLW  84
08032:  MOVWF  FF6
08034:  MOVLW  0A
08036:  MOVWF  FF7
08038:  CALL   24DC
....................  
.................... Passwd[0] = PassCheck1[0];  // Contrasea a RAM 
0803C:  MOVFF  111,10D
.................... Passwd[1] = PassCheck1[1];  // Contrasea a RAM 
08040:  MOVFF  112,10E
....................  
.................... write_eeprom(Password,Passwd[0]);  // Contrasea1 de RAM a ROM 
08044:  MOVF   FF2,W
08046:  MOVWF  00
08048:  BCF    FF2.7
0804A:  CLRF   FAA
0804C:  MOVLW  06
0804E:  MOVWF  FA9
08050:  MOVFF  10D,FA8
08054:  BCF    FA6.6
08056:  BCF    FA6.7
08058:  BSF    FA6.2
0805A:  MOVLB  F
0805C:  MOVLW  55
0805E:  MOVWF  FA7
08060:  MOVLW  AA
08062:  MOVWF  FA7
08064:  BSF    FA6.1
08066:  BTFSC  FA6.1
08068:  BRA    8066
0806A:  BCF    FA6.2
0806C:  MOVF   00,W
0806E:  IORWF  FF2,F
08070:  CLRF   19
08072:  BTFSC  FF2.7
08074:  BSF    19.7
08076:  BCF    FF2.7
.................... delay_ms(10); 
08078:  MOVLW  0A
0807A:  MOVLB  1
0807C:  MOVWF  x37
0807E:  MOVLB  0
08080:  CALL   0D76
08084:  BTFSC  19.7
08086:  BSF    FF2.7
.................... restart_wdt(); 
08088:  CLRWDT
.................... write_eeprom(Password + 1,Passwd[1]);  // Contrasea2 de RAM a ROM 
0808A:  MOVF   FF2,W
0808C:  MOVWF  00
0808E:  BCF    FF2.7
08090:  CLRF   FAA
08092:  MOVLW  07
08094:  MOVWF  FA9
08096:  MOVFF  10E,FA8
0809A:  BCF    FA6.6
0809C:  BCF    FA6.7
0809E:  BSF    FA6.2
080A0:  MOVLB  F
080A2:  MOVLW  55
080A4:  MOVWF  FA7
080A6:  MOVLW  AA
080A8:  MOVWF  FA7
080AA:  BSF    FA6.1
080AC:  BTFSC  FA6.1
080AE:  BRA    80AC
080B0:  BCF    FA6.2
080B2:  MOVF   00,W
080B4:  IORWF  FF2,F
.................... delay_ms(1000); 
080B6:  MOVLW  04
080B8:  MOVLB  1
080BA:  MOVWF  x16
080BC:  CLRF   19
080BE:  BTFSC  FF2.7
080C0:  BSF    19.7
080C2:  BCF    FF2.7
080C4:  MOVLW  FA
080C6:  MOVWF  x37
080C8:  MOVLB  0
080CA:  CALL   0D76
080CE:  BTFSC  19.7
080D0:  BSF    FF2.7
080D2:  MOVLB  1
080D4:  DECFSZ x16,F
080D6:  BRA    80BC
.................... Menu = 1; 
080D8:  MOVLW  01
080DA:  MOVWF  27
.................... } else { // contrasea no comprobada ok 
080DC:  BRA    814C
.................... LIMPIARLCD; 
080DE:  MOVLW  9A
080E0:  MOVWF  FF6
080E2:  MOVLW  0A
080E4:  MOVWF  FF7
080E6:  MOVLB  0
080E8:  CALL   24DC
.................... lcd_gotoxy(1,2); 
080EC:  MOVLW  01
080EE:  MOVLB  1
080F0:  MOVWF  x2B
080F2:  MOVLW  02
080F4:  MOVWF  x2C
080F6:  MOVLB  0
080F8:  CALL   240A
.................... printf(lcd_putc, "  Error: Las claves "); 
080FC:  MOVLW  9C
080FE:  MOVWF  FF6
08100:  MOVLW  0A
08102:  MOVWF  FF7
08104:  CALL   24DC
.................... lcd_gotoxy(1,3); 
08108:  MOVLW  01
0810A:  MOVLB  1
0810C:  MOVWF  x2B
0810E:  MOVLW  03
08110:  MOVWF  x2C
08112:  MOVLB  0
08114:  CALL   240A
.................... printf(lcd_putc, "   no coinciden :(  "); 
08118:  MOVLW  B2
0811A:  MOVWF  FF6
0811C:  MOVLW  0A
0811E:  MOVWF  FF7
08120:  CALL   24DC
.................... restart_wdt(); 
08124:  CLRWDT
.................... delay_ms(1000); 
08126:  MOVLW  04
08128:  MOVLB  1
0812A:  MOVWF  x16
0812C:  CLRF   19
0812E:  BTFSC  FF2.7
08130:  BSF    19.7
08132:  BCF    FF2.7
08134:  MOVLW  FA
08136:  MOVWF  x37
08138:  MOVLB  0
0813A:  CALL   0D76
0813E:  BTFSC  19.7
08140:  BSF    FF2.7
08142:  MOVLB  1
08144:  DECFSZ x16,F
08146:  BRA    812C
.................... Menu = 1; 
08148:  MOVLW  01
0814A:  MOVWF  27
0814C:  MOVLB  0
.................... } 
.................... } // if 13 
.................... } // si autenticamos 
0814E:  GOTO   925E (RETURN)
.................... } // fn 
....................  
.................... void Ccasandra(){ 
....................  
.................... char sServ[3]; 
.................... char sAuto[3]; 
.................... char sWeb[3]; 
....................  
.................... if (bit_test(ConfCas,0)) sServ = "SI"; 
*
0747E:  BTFSS  45.0
07480:  BRA    749E
07482:  MOVLW  01
07484:  MOVWF  FEA
07486:  MOVLW  11
07488:  MOVWF  FE9
0748A:  MOVLW  00
0748C:  CALL   00F6
07490:  TBLRD*-
07492:  TBLRD*+
07494:  MOVF   FF5,W
07496:  MOVWF  FEE
07498:  IORLW  00
0749A:  BNZ   7492
0749C:  BRA    74B8
.................... else sServ = "NO"; 
0749E:  MOVLW  01
074A0:  MOVWF  FEA
074A2:  MOVLW  11
074A4:  MOVWF  FE9
074A6:  MOVLW  00
074A8:  CALL   010A
074AC:  TBLRD*-
074AE:  TBLRD*+
074B0:  MOVF   FF5,W
074B2:  MOVWF  FEE
074B4:  IORLW  00
074B6:  BNZ   74AE
.................... if (bit_test(ConfCas,1)) sAuto = "SI"; 
074B8:  BTFSS  45.1
074BA:  BRA    74D8
074BC:  MOVLW  01
074BE:  MOVWF  FEA
074C0:  MOVLW  14
074C2:  MOVWF  FE9
074C4:  MOVLW  00
074C6:  CALL   00F6
074CA:  TBLRD*-
074CC:  TBLRD*+
074CE:  MOVF   FF5,W
074D0:  MOVWF  FEE
074D2:  IORLW  00
074D4:  BNZ   74CC
074D6:  BRA    74F2
.................... else sAuto = "NO"; 
074D8:  MOVLW  01
074DA:  MOVWF  FEA
074DC:  MOVLW  14
074DE:  MOVWF  FE9
074E0:  MOVLW  00
074E2:  CALL   010A
074E6:  TBLRD*-
074E8:  TBLRD*+
074EA:  MOVF   FF5,W
074EC:  MOVWF  FEE
074EE:  IORLW  00
074F0:  BNZ   74E8
.................... if (bit_test(ConfCas,2)) sWeb = "SI"; 
074F2:  BTFSS  45.2
074F4:  BRA    7512
074F6:  MOVLW  01
074F8:  MOVWF  FEA
074FA:  MOVLW  17
074FC:  MOVWF  FE9
074FE:  MOVLW  00
07500:  CALL   00F6
07504:  TBLRD*-
07506:  TBLRD*+
07508:  MOVF   FF5,W
0750A:  MOVWF  FEE
0750C:  IORLW  00
0750E:  BNZ   7506
07510:  BRA    752C
.................... else sWeb = "NO"; 
07512:  MOVLW  01
07514:  MOVWF  FEA
07516:  MOVLW  17
07518:  MOVWF  FE9
0751A:  MOVLW  00
0751C:  CALL   010A
07520:  TBLRD*-
07522:  TBLRD*+
07524:  MOVF   FF5,W
07526:  MOVWF  FEE
07528:  IORLW  00
0752A:  BNZ   7522
....................  
.................... int submenu =1; 
0752C:  MOVLW  01
0752E:  MOVLB  1
07530:  MOVWF  x1A
....................  
.................... while (submenu < 4){ 
07532:  MOVF   x1A,W
07534:  SUBLW  03
07536:  BTFSS  FD8.0
07538:  BRA    788A
....................  
.................... if (input(ARRIBA)==1 && input(ABAJO)==1 && input(OOKK)==1 && input(CANCEL)==1) Rebote = false; // Soltamos las teclas 
0753A:  BSF    F93.0
0753C:  BTFSS  F81.0
0753E:  BRA    7554
07540:  BSF    F93.1
07542:  BTFSS  F81.1
07544:  BRA    7554
07546:  BSF    F93.2
07548:  BTFSS  F81.2
0754A:  BRA    7554
0754C:  BSF    F93.3
0754E:  BTFSS  F81.3
07550:  BRA    7554
07552:  BCF    34.0
....................  
.................... if (Rebote == False) { 
07554:  BTFSC  34.0
07556:  BRA    7562
.................... if (input(OOKK) == 0){ 
07558:  BSF    F93.2
0755A:  BTFSC  F81.2
0755C:  BRA    7562
.................... Rebote = true; 
0755E:  BSF    34.0
.................... ++submenu; 
07560:  INCF   x1A,F
.................... } 
.................... } 
....................  
.................... if (Rebote == False) { 
07562:  BTFSC  34.0
07564:  BRA    757C
.................... if (input(CANCEL) == 0){ 
07566:  BSF    F93.3
07568:  BTFSC  F81.3
0756A:  BRA    757C
.................... Rebote = true; 
0756C:  BSF    34.0
.................... --submenu; 
0756E:  DECF   x1A,F
.................... if (submenu == 0){ 
07570:  MOVF   x1A,F
07572:  BNZ   757C
.................... submenu = 5; 
07574:  MOVLW  05
07576:  MOVWF  x1A
.................... Menu = 4; 
07578:  MOVLW  04
0757A:  MOVWF  27
.................... } 
.................... } 
.................... } 
....................  
.................... if (Rebote == False) { 
0757C:  BTFSC  34.0
0757E:  BRA    7670
.................... if ((input(ABAJO) == 0) || (input(ARRIBA)) == 0) { // si arriba o abajo togleo 
07580:  BSF    F93.1
07582:  BTFSS  F81.1
07584:  BRA    758C
07586:  BSF    F93.0
07588:  BTFSC  F81.0
0758A:  BRA    7670
.................... Rebote = true; 
0758C:  BSF    34.0
....................    if (submenu == 1) { // dentro de SERV 
0758E:  DECFSZ x1A,W
07590:  BRA    75D8
....................          if (bit_test(ConfCas,0)){ 
07592:  BTFSS  45.0
07594:  BRA    75B8
....................          bit_clear(ConfCas,0); 
07596:  BCF    45.0
....................          sServ = "NO"; 
07598:  MOVLW  01
0759A:  MOVWF  FEA
0759C:  MOVLW  11
0759E:  MOVWF  FE9
075A0:  MOVLW  00
075A2:  MOVLB  0
075A4:  CALL   010A
075A8:  TBLRD*-
075AA:  TBLRD*+
075AC:  MOVF   FF5,W
075AE:  MOVWF  FEE
075B0:  IORLW  00
075B2:  BNZ   75AA
....................          } 
075B4:  BRA    75D6
075B6:  MOVLB  1
....................          else { 
....................          bit_set(ConfCas,0); 
075B8:  BSF    45.0
....................          sServ = "SI"; 
075BA:  MOVLW  01
075BC:  MOVWF  FEA
075BE:  MOVLW  11
075C0:  MOVWF  FE9
075C2:  MOVLW  00
075C4:  MOVLB  0
075C6:  CALL   00F6
075CA:  TBLRD*-
075CC:  TBLRD*+
075CE:  MOVF   FF5,W
075D0:  MOVWF  FEE
075D2:  IORLW  00
075D4:  BNZ   75CC
075D6:  MOVLB  1
....................          } 
....................    } // arriba dentro de mes 
....................  
....................    if (submenu == 2) { // dentro de AUTO 
075D8:  MOVF   x1A,W
075DA:  SUBLW  02
075DC:  BNZ   7624
....................          if (bit_test(ConfCas,1)){ 
075DE:  BTFSS  45.1
075E0:  BRA    7604
....................          bit_clear(ConfCas,1); 
075E2:  BCF    45.1
....................          sAuto = "NO"; 
075E4:  MOVLW  01
075E6:  MOVWF  FEA
075E8:  MOVLW  14
075EA:  MOVWF  FE9
075EC:  MOVLW  00
075EE:  MOVLB  0
075F0:  CALL   010A
075F4:  TBLRD*-
075F6:  TBLRD*+
075F8:  MOVF   FF5,W
075FA:  MOVWF  FEE
075FC:  IORLW  00
075FE:  BNZ   75F6
....................          } 
07600:  BRA    7622
07602:  MOVLB  1
....................          else { 
....................          bit_set(ConfCas,1); 
07604:  BSF    45.1
....................          sAuto = "SI"; 
07606:  MOVLW  01
07608:  MOVWF  FEA
0760A:  MOVLW  14
0760C:  MOVWF  FE9
0760E:  MOVLW  00
07610:  MOVLB  0
07612:  CALL   00F6
07616:  TBLRD*-
07618:  TBLRD*+
0761A:  MOVF   FF5,W
0761C:  MOVWF  FEE
0761E:  IORLW  00
07620:  BNZ   7618
07622:  MOVLB  1
....................          } 
....................    } // arriba dentro de mes 
....................  
....................    if (submenu == 3) { // Dentro de Web 
07624:  MOVF   x1A,W
07626:  SUBLW  03
07628:  BNZ   7670
....................          if (bit_test(ConfCas,2)){ 
0762A:  BTFSS  45.2
0762C:  BRA    7650
....................          bit_clear(ConfCas,2); 
0762E:  BCF    45.2
....................          sWeb = "NO"; 
07630:  MOVLW  01
07632:  MOVWF  FEA
07634:  MOVLW  17
07636:  MOVWF  FE9
07638:  MOVLW  00
0763A:  MOVLB  0
0763C:  CALL   010A
07640:  TBLRD*-
07642:  TBLRD*+
07644:  MOVF   FF5,W
07646:  MOVWF  FEE
07648:  IORLW  00
0764A:  BNZ   7642
....................          } 
0764C:  BRA    766E
0764E:  MOVLB  1
....................          else { 
....................          bit_set(ConfCas,2); 
07650:  BSF    45.2
....................          sWeb = "SI"; 
07652:  MOVLW  01
07654:  MOVWF  FEA
07656:  MOVLW  17
07658:  MOVWF  FE9
0765A:  MOVLW  00
0765C:  MOVLB  0
0765E:  CALL   00F6
07662:  TBLRD*-
07664:  TBLRD*+
07666:  MOVF   FF5,W
07668:  MOVWF  FEE
0766A:  IORLW  00
0766C:  BNZ   7664
0766E:  MOVLB  1
....................          } 
....................    } // arriba dentro de dia 
.................... } // si arriba o abajo 
.................... } // rebote falso 
....................  
....................  
.................... lcd_gotoxy(1,1); 
07670:  MOVLW  01
07672:  MOVWF  x2B
07674:  MOVWF  x2C
07676:  MOVLB  0
07678:  CALL   240A
.................... printf(lcd_putc, "== Conf. Casandra =="); 
0767C:  MOVLW  C8
0767E:  MOVWF  FF6
07680:  MOVLW  0A
07682:  MOVWF  FF7
07684:  CALL   24DC
.................... lcd_gotoxy(1,2); 
07688:  MOVLW  01
0768A:  MOVLB  1
0768C:  MOVWF  x2B
0768E:  MOVLW  02
07690:  MOVWF  x2C
07692:  MOVLB  0
07694:  CALL   240A
.................... printf(lcd_putc, " Luz Pasillos: "); 
07698:  MOVLW  DE
0769A:  MOVWF  FF6
0769C:  MOVLW  0A
0769E:  MOVWF  FF7
076A0:  CALL   24DC
.................... lcd_gotoxy(1,3); 
076A4:  MOVLW  01
076A6:  MOVLB  1
076A8:  MOVWF  x2B
076AA:  MOVLW  03
076AC:  MOVWF  x2C
076AE:  MOVLB  0
076B0:  CALL   240A
.................... printf(lcd_putc, " Grupo Automa: "); 
076B4:  MOVLW  EE
076B6:  MOVWF  FF6
076B8:  MOVLW  0A
076BA:  MOVWF  FF7
076BC:  CALL   24DC
.................... lcd_gotoxy(1,4); 
076C0:  MOVLW  01
076C2:  MOVLB  1
076C4:  MOVWF  x2B
076C6:  MOVLW  04
076C8:  MOVWF  x2C
076CA:  MOVLB  0
076CC:  CALL   240A
.................... printf(lcd_putc, " Ctrl celular: "); 
076D0:  MOVLW  FE
076D2:  MOVWF  FF6
076D4:  MOVLW  0A
076D6:  MOVWF  FF7
076D8:  CALL   24DC
....................  
.................... lcd_gotoxy(16,2); 
076DC:  MOVLW  10
076DE:  MOVLB  1
076E0:  MOVWF  x2B
076E2:  MOVLW  02
076E4:  MOVWF  x2C
076E6:  MOVLB  0
076E8:  CALL   240A
.................... if (submenu == 1) { 
076EC:  MOVLB  1
076EE:  DECFSZ x1A,W
076F0:  BRA    773A
....................    if (bit_test(tiempo1,0)){ 
076F2:  BTFSS  46.0
076F4:  BRA    7728
....................       printf(lcd_putc, " %s  ", sServ); 
076F6:  MOVLW  20
076F8:  MOVWF  x2A
076FA:  MOVLB  0
076FC:  CALL   2474
07700:  MOVLW  01
07702:  MOVWF  FEA
07704:  MOVLW  11
07706:  MOVWF  FE9
07708:  CALL   3FE0
0770C:  MOVLW  20
0770E:  MOVLB  1
07710:  MOVWF  x2A
07712:  MOVLB  0
07714:  CALL   2474
07718:  MOVLW  20
0771A:  MOVLB  1
0771C:  MOVWF  x2A
0771E:  MOVLB  0
07720:  CALL   2474
....................    } else printf(lcd_putc, "   "); 
07724:  BRA    7736
07726:  MOVLB  1
07728:  MOVLW  0E
0772A:  MOVWF  FF6
0772C:  MOVLW  0B
0772E:  MOVWF  FF7
07730:  MOVLB  0
07732:  CALL   24DC
.................... } else printf(lcd_putc, " %s  ", sServ); 
07736:  BRA    7768
07738:  MOVLB  1
0773A:  MOVLW  20
0773C:  MOVWF  x2A
0773E:  MOVLB  0
07740:  CALL   2474
07744:  MOVLW  01
07746:  MOVWF  FEA
07748:  MOVLW  11
0774A:  MOVWF  FE9
0774C:  CALL   3FE0
07750:  MOVLW  20
07752:  MOVLB  1
07754:  MOVWF  x2A
07756:  MOVLB  0
07758:  CALL   2474
0775C:  MOVLW  20
0775E:  MOVLB  1
07760:  MOVWF  x2A
07762:  MOVLB  0
07764:  CALL   2474
....................  
.................... lcd_gotoxy(16,3); 
07768:  MOVLW  10
0776A:  MOVLB  1
0776C:  MOVWF  x2B
0776E:  MOVLW  03
07770:  MOVWF  x2C
07772:  MOVLB  0
07774:  CALL   240A
.................... if (submenu == 2) { 
07778:  MOVLB  1
0777A:  MOVF   x1A,W
0777C:  SUBLW  02
0777E:  BNZ   77C8
....................    if (bit_test(tiempo1,0)){ 
07780:  BTFSS  46.0
07782:  BRA    77B6
....................       printf(lcd_putc, " %s  ", sAuto); 
07784:  MOVLW  20
07786:  MOVWF  x2A
07788:  MOVLB  0
0778A:  CALL   2474
0778E:  MOVLW  01
07790:  MOVWF  FEA
07792:  MOVLW  14
07794:  MOVWF  FE9
07796:  CALL   3FE0
0779A:  MOVLW  20
0779C:  MOVLB  1
0779E:  MOVWF  x2A
077A0:  MOVLB  0
077A2:  CALL   2474
077A6:  MOVLW  20
077A8:  MOVLB  1
077AA:  MOVWF  x2A
077AC:  MOVLB  0
077AE:  CALL   2474
....................    } else printf(lcd_putc, "   "); 
077B2:  BRA    77C4
077B4:  MOVLB  1
077B6:  MOVLW  12
077B8:  MOVWF  FF6
077BA:  MOVLW  0B
077BC:  MOVWF  FF7
077BE:  MOVLB  0
077C0:  CALL   24DC
.................... } else printf(lcd_putc, " %s  ", sAuto); 
077C4:  BRA    77F6
077C6:  MOVLB  1
077C8:  MOVLW  20
077CA:  MOVWF  x2A
077CC:  MOVLB  0
077CE:  CALL   2474
077D2:  MOVLW  01
077D4:  MOVWF  FEA
077D6:  MOVLW  14
077D8:  MOVWF  FE9
077DA:  CALL   3FE0
077DE:  MOVLW  20
077E0:  MOVLB  1
077E2:  MOVWF  x2A
077E4:  MOVLB  0
077E6:  CALL   2474
077EA:  MOVLW  20
077EC:  MOVLB  1
077EE:  MOVWF  x2A
077F0:  MOVLB  0
077F2:  CALL   2474
....................  
.................... lcd_gotoxy(16,4); 
077F6:  MOVLW  10
077F8:  MOVLB  1
077FA:  MOVWF  x2B
077FC:  MOVLW  04
077FE:  MOVWF  x2C
07800:  MOVLB  0
07802:  CALL   240A
.................... if (submenu == 3) { 
07806:  MOVLB  1
07808:  MOVF   x1A,W
0780A:  SUBLW  03
0780C:  BNZ   7856
....................    if (bit_test(tiempo1,0)){ 
0780E:  BTFSS  46.0
07810:  BRA    7844
....................       printf(lcd_putc, " %s  ", sWeb); 
07812:  MOVLW  20
07814:  MOVWF  x2A
07816:  MOVLB  0
07818:  CALL   2474
0781C:  MOVLW  01
0781E:  MOVWF  FEA
07820:  MOVLW  17
07822:  MOVWF  FE9
07824:  CALL   3FE0
07828:  MOVLW  20
0782A:  MOVLB  1
0782C:  MOVWF  x2A
0782E:  MOVLB  0
07830:  CALL   2474
07834:  MOVLW  20
07836:  MOVLB  1
07838:  MOVWF  x2A
0783A:  MOVLB  0
0783C:  CALL   2474
....................    } else printf(lcd_putc, "   "); 
07840:  BRA    7852
07842:  MOVLB  1
07844:  MOVLW  16
07846:  MOVWF  FF6
07848:  MOVLW  0B
0784A:  MOVWF  FF7
0784C:  MOVLB  0
0784E:  CALL   24DC
.................... } else printf(lcd_putc, " %s  ", sWeb); 
07852:  BRA    7884
07854:  MOVLB  1
07856:  MOVLW  20
07858:  MOVWF  x2A
0785A:  MOVLB  0
0785C:  CALL   2474
07860:  MOVLW  01
07862:  MOVWF  FEA
07864:  MOVLW  17
07866:  MOVWF  FE9
07868:  CALL   3FE0
0786C:  MOVLW  20
0786E:  MOVLB  1
07870:  MOVWF  x2A
07872:  MOVLB  0
07874:  CALL   2474
07878:  MOVLW  20
0787A:  MOVLB  1
0787C:  MOVWF  x2A
0787E:  MOVLB  0
07880:  CALL   2474
....................  
.................... restart_wdt(); 
07884:  CLRWDT
07886:  MOVLB  1
07888:  BRA    7532
....................  
.................... } // while -- todo lleno cuando salgo de aqui 
....................  
.................... if (submenu == 4){ 
0788A:  MOVF   x1A,W
0788C:  SUBLW  04
0788E:  BTFSS  FD8.2
07890:  BRA    7A02
.................... write_eeprom(EstCasandra,ConfCas); 
07892:  MOVF   FF2,W
07894:  MOVWF  00
07896:  BCF    FF2.7
07898:  CLRF   FAA
0789A:  MOVLW  03
0789C:  MOVWF  FA9
0789E:  MOVFF  45,FA8
078A2:  BCF    FA6.6
078A4:  BCF    FA6.7
078A6:  BSF    FA6.2
078A8:  MOVLB  F
078AA:  MOVLW  55
078AC:  MOVWF  FA7
078AE:  MOVLW  AA
078B0:  MOVWF  FA7
078B2:  BSF    FA6.1
078B4:  BTFSC  FA6.1
078B6:  BRA    78B4
078B8:  BCF    FA6.2
078BA:  MOVF   00,W
078BC:  IORWF  FF2,F
078BE:  CLRF   19
078C0:  BTFSC  FF2.7
078C2:  BSF    19.7
078C4:  BCF    FF2.7
.................... delay_ms(5); 
078C6:  MOVLW  05
078C8:  MOVLB  1
078CA:  MOVWF  x37
078CC:  MOVLB  0
078CE:  CALL   0D76
078D2:  BTFSC  19.7
078D4:  BSF    FF2.7
....................  
.................... if (bit_test(ConfCas,2)){ // Webserver activado 
078D6:  BTFSS  45.2
078D8:  BRA    796C
.................... printf("%c%c%c%c", 250, 150, 90, 150 + 90); //PRENDO 
078DA:  MOVLW  FA
078DC:  MOVLB  1
078DE:  MOVWF  x1D
078E0:  MOVLB  0
078E2:  CALL   23EA
078E6:  MOVLW  96
078E8:  MOVLB  1
078EA:  MOVWF  x1D
078EC:  MOVLB  0
078EE:  CALL   23EA
078F2:  MOVLW  5A
078F4:  MOVLB  1
078F6:  MOVWF  x1D
078F8:  MOVLB  0
078FA:  CALL   23EA
078FE:  MOVLW  F0
07900:  MOVLB  1
07902:  MOVWF  x1D
07904:  MOVLB  0
07906:  CALL   23EA
0790A:  CLRF   19
0790C:  BTFSC  FF2.7
0790E:  BSF    19.7
07910:  BCF    FF2.7
.................... delay_ms(5); 
07912:  MOVLW  05
07914:  MOVLB  1
07916:  MOVWF  x37
07918:  MOVLB  0
0791A:  CALL   0D76
0791E:  BTFSC  19.7
07920:  BSF    FF2.7
.................... printf("%c%c%c%c", 250, 150, 90, 150 + 90); //PRENDO 
07922:  MOVLW  FA
07924:  MOVLB  1
07926:  MOVWF  x1D
07928:  MOVLB  0
0792A:  CALL   23EA
0792E:  MOVLW  96
07930:  MOVLB  1
07932:  MOVWF  x1D
07934:  MOVLB  0
07936:  CALL   23EA
0793A:  MOVLW  5A
0793C:  MOVLB  1
0793E:  MOVWF  x1D
07940:  MOVLB  0
07942:  CALL   23EA
07946:  MOVLW  F0
07948:  MOVLB  1
0794A:  MOVWF  x1D
0794C:  MOVLB  0
0794E:  CALL   23EA
07952:  CLRF   19
07954:  BTFSC  FF2.7
07956:  BSF    19.7
07958:  BCF    FF2.7
.................... delay_ms(5); 
0795A:  MOVLW  05
0795C:  MOVLB  1
0795E:  MOVWF  x37
07960:  MOVLB  0
07962:  CALL   0D76
07966:  BTFSC  19.7
07968:  BSF    FF2.7
.................... } else { // WebServer desactivado 
0796A:  BRA    79FC
.................... printf("%c%c%c%c", 250, 150, 80, 150 + 80); //APAGO 
0796C:  MOVLW  FA
0796E:  MOVLB  1
07970:  MOVWF  x1D
07972:  MOVLB  0
07974:  CALL   23EA
07978:  MOVLW  96
0797A:  MOVLB  1
0797C:  MOVWF  x1D
0797E:  MOVLB  0
07980:  CALL   23EA
07984:  MOVLW  50
07986:  MOVLB  1
07988:  MOVWF  x1D
0798A:  MOVLB  0
0798C:  CALL   23EA
07990:  MOVLW  E6
07992:  MOVLB  1
07994:  MOVWF  x1D
07996:  MOVLB  0
07998:  CALL   23EA
0799C:  CLRF   19
0799E:  BTFSC  FF2.7
079A0:  BSF    19.7
079A2:  BCF    FF2.7
.................... delay_ms(5); 
079A4:  MOVLW  05
079A6:  MOVLB  1
079A8:  MOVWF  x37
079AA:  MOVLB  0
079AC:  CALL   0D76
079B0:  BTFSC  19.7
079B2:  BSF    FF2.7
.................... printf("%c%c%c%c", 250, 150, 80, 150 + 80); //APAGO 
079B4:  MOVLW  FA
079B6:  MOVLB  1
079B8:  MOVWF  x1D
079BA:  MOVLB  0
079BC:  CALL   23EA
079C0:  MOVLW  96
079C2:  MOVLB  1
079C4:  MOVWF  x1D
079C6:  MOVLB  0
079C8:  CALL   23EA
079CC:  MOVLW  50
079CE:  MOVLB  1
079D0:  MOVWF  x1D
079D2:  MOVLB  0
079D4:  CALL   23EA
079D8:  MOVLW  E6
079DA:  MOVLB  1
079DC:  MOVWF  x1D
079DE:  MOVLB  0
079E0:  CALL   23EA
079E4:  CLRF   19
079E6:  BTFSC  FF2.7
079E8:  BSF    19.7
079EA:  BCF    FF2.7
.................... delay_ms(5); 
079EC:  MOVLW  05
079EE:  MOVLB  1
079F0:  MOVWF  x37
079F2:  MOVLB  0
079F4:  CALL   0D76
079F8:  BTFSC  19.7
079FA:  BSF    FF2.7
.................... } 
.................... Menu = 1; 
079FC:  MOVLW  01
079FE:  MOVWF  27
07A00:  MOVLB  1
.................... }  
07A02:  MOVLB  0
07A04:  GOTO   9250 (RETURN)
.................... } // Fn 
....................  
.................... void CReset(){ 
*
08B80:  MOVLB  1
08B82:  BSF    x11.0
....................  
.................... short Eleccion = True; 
....................  
.................... if (Autenticar()){ 
08B84:  MOVLB  0
08B86:  CALL   36AE
08B8A:  MOVF   01,F
08B8C:  BTFSC  FD8.2
08B8E:  BRA    8D9A
....................  
.................... while (Eleccion){ 
08B90:  MOVLB  1
08B92:  BTFSS  x11.0
08B94:  BRA    8D9C
....................  
.................... if (input(ARRIBA)==1 && input(ABAJO)==1 && input(OOKK)==1 && input(CANCEL)==1) Rebote = false; // Soltamos las teclas 
08B96:  BSF    F93.0
08B98:  BTFSS  F81.0
08B9A:  BRA    8BB0
08B9C:  BSF    F93.1
08B9E:  BTFSS  F81.1
08BA0:  BRA    8BB0
08BA2:  BSF    F93.2
08BA4:  BTFSS  F81.2
08BA6:  BRA    8BB0
08BA8:  BSF    F93.3
08BAA:  BTFSS  F81.3
08BAC:  BRA    8BB0
08BAE:  BCF    34.0
....................  
.................... if (Rebote == false) { 
08BB0:  BTFSC  34.0
08BB2:  BRA    8D96
....................  
.................... lcd_gotoxy(1,1); 
08BB4:  MOVLW  01
08BB6:  MOVWF  x2B
08BB8:  MOVWF  x2C
08BBA:  MOVLB  0
08BBC:  CALL   240A
.................... printf(lcd_putc, "= RESETEAR SISTEMA ="); 
08BC0:  MOVLW  1A
08BC2:  MOVWF  FF6
08BC4:  MOVLW  0B
08BC6:  MOVWF  FF7
08BC8:  CALL   24DC
.................... lcd_gotoxy(1,2); 
08BCC:  MOVLW  01
08BCE:  MOVLB  1
08BD0:  MOVWF  x2B
08BD2:  MOVLW  02
08BD4:  MOVWF  x2C
08BD6:  MOVLB  0
08BD8:  CALL   240A
.................... printf(lcd_putc, "%cSe eliminaran todos",165); 
08BDC:  MOVLW  A5
08BDE:  MOVLB  1
08BE0:  MOVWF  x2A
08BE2:  MOVLB  0
08BE4:  CALL   2474
08BE8:  MOVLW  32
08BEA:  MOVWF  FF6
08BEC:  MOVLW  0B
08BEE:  MOVWF  FF7
08BF0:  MOVLW  13
08BF2:  MOVLB  1
08BF4:  MOVWF  x27
08BF6:  MOVLB  0
08BF8:  CALL   279A
.................... lcd_gotoxy(1,3); 
08BFC:  MOVLW  01
08BFE:  MOVLB  1
08C00:  MOVWF  x2B
08C02:  MOVLW  03
08C04:  MOVWF  x2C
08C06:  MOVLB  0
08C08:  CALL   240A
.................... printf(lcd_putc, "los datos guardados!"); 
08C0C:  MOVLW  46
08C0E:  MOVWF  FF6
08C10:  MOVLW  0B
08C12:  MOVWF  FF7
08C14:  CALL   24DC
.................... lcd_gotoxy(1,4); 
08C18:  MOVLW  01
08C1A:  MOVLB  1
08C1C:  MOVWF  x2B
08C1E:  MOVLW  04
08C20:  MOVWF  x2C
08C22:  MOVLB  0
08C24:  CALL   240A
.................... printf(lcd_putc, "    %cContinuar?    ",143); 
08C28:  MOVLW  5C
08C2A:  MOVWF  FF6
08C2C:  MOVLW  0B
08C2E:  MOVWF  FF7
08C30:  MOVLW  04
08C32:  MOVLB  1
08C34:  MOVWF  x27
08C36:  MOVLB  0
08C38:  CALL   279A
08C3C:  MOVLW  8F
08C3E:  MOVLB  1
08C40:  MOVWF  x2A
08C42:  MOVLB  0
08C44:  CALL   2474
08C48:  MOVLW  62
08C4A:  MOVWF  FF6
08C4C:  MOVLW  0B
08C4E:  MOVWF  FF7
08C50:  MOVLW  0E
08C52:  MOVLB  1
08C54:  MOVWF  x27
08C56:  MOVLB  0
08C58:  CALL   279A
....................  
.................... if (bit_test(Tiempo1,1)) ONLCDLED; 
08C5C:  BTFSS  46.1
08C5E:  BRA    8C66
08C60:  BCF    F95.6
08C62:  BSF    F8C.6
08C64:  BRA    8C6A
.................... else OFFLCDLED; 
08C66:  BCF    F95.6
08C68:  BCF    F8C.6
....................  
....................  
.................... if (input(ARRIBA)==0 || input(ABAJO)==0 || input(CANCEL)==0){ 
08C6A:  BSF    F93.0
08C6C:  BTFSS  F81.0
08C6E:  BRA    8C7C
08C70:  BSF    F93.1
08C72:  BTFSS  F81.1
08C74:  BRA    8C7C
08C76:  BSF    F93.3
08C78:  BTFSC  F81.3
08C7A:  BRA    8C88
.................... Rebote = True; 
08C7C:  BSF    34.0
.................... Menu = 1; 
08C7E:  MOVLW  01
08C80:  MOVWF  27
.................... Eleccion = False; 
08C82:  MOVLB  1
08C84:  BCF    x11.0
08C86:  MOVLB  0
.................... } 
....................   
.................... if (input(OOKK)==0){  ///////////////////////////////// Destruir todo YA! 
08C88:  BSF    F93.2
08C8A:  BTFSC  F81.2
08C8C:  BRA    8D98
.................... Rebote = True; 
08C8E:  BSF    34.0
.................... LIMPIARLCD; // Limpiamos la pantalla 
08C90:  MOVLW  72
08C92:  MOVWF  FF6
08C94:  MOVLW  0B
08C96:  MOVWF  FF7
08C98:  CALL   24DC
.................... ONLCDLED; 
08C9C:  BCF    F95.6
08C9E:  BSF    F8C.6
....................  
.................... lcd_gotoxy(1,2); 
08CA0:  MOVLW  01
08CA2:  MOVLB  1
08CA4:  MOVWF  x2B
08CA6:  MOVLW  02
08CA8:  MOVWF  x2C
08CAA:  MOVLB  0
08CAC:  CALL   240A
.................... printf(lcd_putc, " Eliminando datos..."); 
08CB0:  MOVLW  74
08CB2:  MOVWF  FF6
08CB4:  MOVLW  0B
08CB6:  MOVWF  FF7
08CB8:  CALL   24DC
....................  
.................... int aux1; 
.................... int aux2; 
....................  
.................... for (aux1=0;aux1<5;aux1++){ // llena todo desde el 0 al 4 
08CBC:  MOVLB  1
08CBE:  CLRF   x12
08CC0:  MOVF   x12,W
08CC2:  SUBLW  04
08CC4:  BNC   8D0A
.................... TempMax[aux1]=0;    // Temperatura maxima de la semana - dia - hora - minuto 
08CC6:  CLRF   03
08CC8:  MOVF   x12,W
08CCA:  ADDLW  28
08CCC:  MOVWF  FE9
08CCE:  MOVLW  00
08CD0:  ADDWFC 03,W
08CD2:  MOVWF  FEA
08CD4:  CLRF   FEF
.................... TempMin[aux1]=0;    // Temperatura minima de la semana - dia - hora - minuto  
08CD6:  CLRF   03
08CD8:  MOVF   x12,W
08CDA:  ADDLW  2C
08CDC:  MOVWF  FE9
08CDE:  MOVLW  00
08CE0:  ADDWFC 03,W
08CE2:  MOVWF  FEA
08CE4:  CLRF   FEF
.................... SolMax[aux1]=0;     // Maximo nivel de radiacion de sol en la semana - dia - hora - minuto 
08CE6:  CLRF   03
08CE8:  MOVF   x12,W
08CEA:  ADDLW  30
08CEC:  MOVWF  FE9
08CEE:  MOVLW  00
08CF0:  ADDWFC 03,W
08CF2:  MOVWF  FEA
08CF4:  CLRF   FEF
.................... Comando[aux1]=0;    // Carga de EVENTO y VALOR 
08CF6:  CLRF   03
08CF8:  MOVF   x12,W
08CFA:  ADDLW  35
08CFC:  MOVWF  FE9
08CFE:  MOVLW  00
08D00:  ADDWFC 03,W
08D02:  MOVWF  FEA
08D04:  CLRF   FEF
08D06:  INCF   x12,F
08D08:  BRA    8CC0
.................... } 
....................  
.................... for (aux2=0;aux2<255;aux2++){ // llena todo desde el 0 al 255 
08D0A:  CLRF   x13
08D0C:  INCFSZ x13,W
08D0E:  BRA    8D12
08D10:  BRA    8D5C
.................... write_eeprom(aux2,0x00);  // la llenamos con 0 
08D12:  MOVF   FF2,W
08D14:  MOVWF  00
08D16:  BCF    FF2.7
08D18:  CLRF   FAA
08D1A:  MOVFF  113,FA9
08D1E:  CLRF   FA8
08D20:  BCF    FA6.6
08D22:  BCF    FA6.7
08D24:  BSF    FA6.2
08D26:  MOVLB  F
08D28:  MOVLW  55
08D2A:  MOVWF  FA7
08D2C:  MOVLW  AA
08D2E:  MOVWF  FA7
08D30:  BSF    FA6.1
08D32:  BTFSC  FA6.1
08D34:  BRA    8D32
08D36:  BCF    FA6.2
08D38:  MOVF   00,W
08D3A:  IORWF  FF2,F
08D3C:  CLRF   19
08D3E:  BTFSC  FF2.7
08D40:  BSF    19.7
08D42:  BCF    FF2.7
.................... delay_ms(2); 
08D44:  MOVLW  02
08D46:  MOVLB  1
08D48:  MOVWF  x37
08D4A:  MOVLB  0
08D4C:  CALL   0D76
08D50:  BTFSC  19.7
08D52:  BSF    FF2.7
.................... restart_wdt(); 
08D54:  CLRWDT
08D56:  MOVLB  1
08D58:  INCF   x13,F
08D5A:  BRA    8D0C
.................... } 
....................  
.................... EstadoAl=1;      // Estado de la alarma 
08D5C:  MOVLW  01
08D5E:  MOVWF  44
.................... ConfCas=0;       // Estado del nivel de penetracion de Casandra (apagado todo) 
08D60:  CLRF   45
....................  
.................... /* 
.................... port_b_pullups(true); 
.................... setup_wdt(WDT_ON); 
.................... enable_interrupts(global); 
.................... enable_interrupts(int_rda); // Interrupcion de llegada de datos 
.................... enable_interrupts(INT_TIMER1); // Interrupcion por timer 1 
.................... setup_timer_1(T1_INTERNAL | T1_DIV_BY_8); 
.................... set_timer1(0); 
.................... */ 
.................... ds1307_set_date_time(1,1,1,1,0,0,0);  // Inicio de valores para el DS1307 
08D62:  MOVWF  x27
08D64:  MOVWF  x28
08D66:  MOVWF  x29
08D68:  MOVWF  x2A
08D6A:  CLRF   x2B
08D6C:  CLRF   x2C
08D6E:  CLRF   x2D
08D70:  MOVLB  0
08D72:  CALL   824C
08D76:  CLRF   19
08D78:  BTFSC  FF2.7
08D7A:  BSF    19.7
08D7C:  BCF    FF2.7
.................... delay_ms(5); 
08D7E:  MOVLW  05
08D80:  MOVLB  1
08D82:  MOVWF  x37
08D84:  MOVLB  0
08D86:  CALL   0D76
08D8A:  BTFSC  19.7
08D8C:  BSF    FF2.7
.................... Menu = 1;      // Posicion dentro del menu 0 
08D8E:  MOVLW  01
08D90:  MOVWF  27
.................... Eleccion = False; 
08D92:  MOVLB  1
08D94:  BCF    x11.0
08D96:  MOVLB  0
.................... } // If eliminar todo confirmado 
.................... } // si rebote es falso 
08D98:  BRA    8B90
08D9A:  MOVLB  1
.................... } // Salimos del while con eleccion 
.................... } // si autenticamos correctamente 
08D9C:  MOVLB  0
08D9E:  GOTO   9278 (RETURN)
.................... } // Fn 
....................  
.................... void CHs(){ 
*
083A0:  MOVFF  24,111
083A4:  MOVFF  23,112
083A8:  MOVFF  26,113
083AC:  MOVFF  22,114
083B0:  MOVFF  21,115
083B4:  MOVFF  25,116
083B8:  MOVLW  01
083BA:  MOVLB  1
083BC:  MOVWF  x26
.................... int mes=month; 
.................... int dia=day; 
.................... int dias=dow; 
.................... int hora=hrs; 
.................... int minuto=min; 
.................... int anio=year; 
.................... char sdia[11]; 
.................... char smes[4]; 
....................  
....................  
.................... int submenu=1; 
....................  
.................... Rebote = true; 
083BE:  BSF    34.0
.................... lcd_putc("\f"); // Limpiamos la pantalla 
083C0:  MOVLW  8A
083C2:  MOVWF  FF6
083C4:  MOVLW  0B
083C6:  MOVWF  FF7
083C8:  MOVLB  0
083CA:  CALL   24DC
....................  
.................... while (submenu < 6){ // hasta llenar todo 
083CE:  MOVLB  1
083D0:  MOVF   x26,W
083D2:  SUBLW  05
083D4:  BTFSS  FD8.0
083D6:  GOTO   8AEA
....................  
....................  
.................... if (input(ARRIBA)==1 && input(ABAJO)==1 && input(OOKK)==1 && input(CANCEL)==1) Rebote = false; // Soltamos las teclas 
083DA:  BSF    F93.0
083DC:  BTFSS  F81.0
083DE:  BRA    83F4
083E0:  BSF    F93.1
083E2:  BTFSS  F81.1
083E4:  BRA    83F4
083E6:  BSF    F93.2
083E8:  BTFSS  F81.2
083EA:  BRA    83F4
083EC:  BSF    F93.3
083EE:  BTFSS  F81.3
083F0:  BRA    83F4
083F2:  BCF    34.0
....................  
.................... if (Rebote == false){ 
083F4:  BTFSC  34.0
083F6:  BRA    8402
.................... if (input(OOKK) == 0){ // si ok, solo sumo 
083F8:  BSF    F93.2
083FA:  BTFSC  F81.2
083FC:  BRA    8402
.................... ++submenu; 
083FE:  INCF   x26,F
.................... Rebote = true; 
08400:  BSF    34.0
.................... } // si ok 
.................... } 
....................  
.................... if (Rebote == false){ 
08402:  BTFSC  34.0
08404:  BRA    8418
.................... if (input(CANCEL) == 0){ // si cancel solo resto o salgo con 10 
08406:  BSF    F93.3
08408:  BTFSC  F81.3
0840A:  BRA    8418
.................... --submenu; 
0840C:  DECF   x26,F
.................... Rebote = true; 
0840E:  BSF    34.0
.................... if (submenu == 0) { 
08410:  MOVF   x26,F
08412:  BNZ   8418
.................... submenu = 10; 
08414:  MOVLW  0A
08416:  MOVWF  x26
.................... } 
.................... } // si cancel 
.................... } 
....................  
.................... if (Rebote == false){ 
08418:  BTFSC  34.0
0841A:  BRA    84D4
.................... if (input(ABAJO) == 0){ // si arriba 
0841C:  BSF    F93.1
0841E:  BTFSC  F81.1
08420:  BRA    84D4
.................... Rebote = true; 
08422:  BSF    34.0
....................  
....................    if (submenu == 1) { // arriba dentro de dia de la semana 
08424:  DECFSZ x26,W
08426:  BRA    8434
....................          ++dias; 
08428:  INCF   x13,F
....................          if (dias == 8) dias = 1; 
0842A:  MOVF   x13,W
0842C:  SUBLW  08
0842E:  BNZ   8434
08430:  MOVLW  01
08432:  MOVWF  x13
....................    } // arriba dentro de mes 
....................  
....................    if (submenu == 2) { // arriba dentro de mes 
08434:  MOVF   x26,W
08436:  SUBLW  02
08438:  BNZ   8446
....................          ++mes; 
0843A:  INCF   x11,F
....................          if (mes == 13) mes = 1; 
0843C:  MOVF   x11,W
0843E:  SUBLW  0D
08440:  BNZ   8446
08442:  MOVLW  01
08444:  MOVWF  x11
....................    } // arriba dentro de mes 
....................  
....................    if (submenu == 3) { // arriba dentro de dia 
08446:  MOVF   x26,W
08448:  SUBLW  03
0844A:  BNZ   84B4
....................          ++dia; 
0844C:  INCF   x12,F
....................          if ((dia >= 32) && ((mes == 1) || (mes == 3) || (mes == 5) || (mes == 7) || (mes == 8) || (mes == 10) || (mes == 12))) dia = 1; 
0844E:  MOVF   x12,W
08450:  SUBLW  1F
08452:  BC    8482
08454:  DECFSZ x11,W
08456:  BRA    845A
08458:  BRA    847E
0845A:  MOVF   x11,W
0845C:  SUBLW  03
0845E:  BZ    847E
08460:  MOVF   x11,W
08462:  SUBLW  05
08464:  BZ    847E
08466:  MOVF   x11,W
08468:  SUBLW  07
0846A:  BZ    847E
0846C:  MOVF   x11,W
0846E:  SUBLW  08
08470:  BZ    847E
08472:  MOVF   x11,W
08474:  SUBLW  0A
08476:  BZ    847E
08478:  MOVF   x11,W
0847A:  SUBLW  0C
0847C:  BNZ   8482
0847E:  MOVLW  01
08480:  MOVWF  x12
....................          if ((dia >= 29) && (mes == 2)) dia = 1; 
08482:  MOVF   x12,W
08484:  SUBLW  1C
08486:  BC    8492
08488:  MOVF   x11,W
0848A:  SUBLW  02
0848C:  BNZ   8492
0848E:  MOVLW  01
08490:  MOVWF  x12
....................          if ((dia >= 31) && ((mes == 4) || (mes == 6) || (mes == 9) || (mes == 11))) dia = 1; 
08492:  MOVF   x12,W
08494:  SUBLW  1E
08496:  BC    84B4
08498:  MOVF   x11,W
0849A:  SUBLW  04
0849C:  BZ    84B0
0849E:  MOVF   x11,W
084A0:  SUBLW  06
084A2:  BZ    84B0
084A4:  MOVF   x11,W
084A6:  SUBLW  09
084A8:  BZ    84B0
084AA:  MOVF   x11,W
084AC:  SUBLW  0B
084AE:  BNZ   84B4
084B0:  MOVLW  01
084B2:  MOVWF  x12
....................    } // arriba dentro de dia 
....................  
....................    if (submenu == 4) { // arriba dentro de hora 
084B4:  MOVF   x26,W
084B6:  SUBLW  04
084B8:  BNZ   84C4
....................          ++hora; 
084BA:  INCF   x14,F
....................          if (hora == 24) hora = 0; 
084BC:  MOVF   x14,W
084BE:  SUBLW  18
084C0:  BNZ   84C4
084C2:  CLRF   x14
....................    } // arriba dentro de hora 
....................  
....................    if (submenu == 5) { // arriba dentro de minuto 
084C4:  MOVF   x26,W
084C6:  SUBLW  05
084C8:  BNZ   84D4
....................          ++minuto; 
084CA:  INCF   x15,F
....................          if (minuto == 60) minuto = 0; 
084CC:  MOVF   x15,W
084CE:  SUBLW  3C
084D0:  BNZ   84D4
084D2:  CLRF   x15
....................    } // arriba dentro de minuto 
.................... } 
.................... } 
....................  
.................... if (Rebote == false){ 
084D4:  BTFSC  34.0
084D6:  BRA    8586
.................... if (input(ARRIBA) == 0){ // si abajo 
084D8:  BSF    F93.0
084DA:  BTFSC  F81.0
084DC:  BRA    8586
.................... Rebote = true; 
084DE:  BSF    34.0
....................  
....................    if (submenu == 1) { // abajo dentro de mes 
084E0:  DECFSZ x26,W
084E2:  BRA    84EE
....................          --dias; 
084E4:  DECF   x13,F
....................          if (dias == 0) dias = 7; 
084E6:  MOVF   x13,F
084E8:  BNZ   84EE
084EA:  MOVLW  07
084EC:  MOVWF  x13
....................    } // arriba dentro de mes 
....................  
....................    if (submenu == 2) { // abajo dentro de mes 
084EE:  MOVF   x26,W
084F0:  SUBLW  02
084F2:  BNZ   84FE
....................          --mes; 
084F4:  DECF   x11,F
....................          if (mes == 0) mes = 12; 
084F6:  MOVF   x11,F
084F8:  BNZ   84FE
084FA:  MOVLW  0C
084FC:  MOVWF  x11
....................    } // arriba dentro de mes 
....................  
....................    if (submenu == 3) { // arriba dentro de dia 
084FE:  MOVF   x26,W
08500:  SUBLW  03
08502:  BNZ   8566
....................          --dia; 
08504:  DECF   x12,F
....................          if ((dia == 0) && ((mes == 1) || (mes == 3) || (mes == 5) || (mes == 7) || (mes == 8) || (mes == 10) || (mes == 12))) dia = 31; 
08506:  MOVF   x12,F
08508:  BNZ   8538
0850A:  DECFSZ x11,W
0850C:  BRA    8510
0850E:  BRA    8534
08510:  MOVF   x11,W
08512:  SUBLW  03
08514:  BZ    8534
08516:  MOVF   x11,W
08518:  SUBLW  05
0851A:  BZ    8534
0851C:  MOVF   x11,W
0851E:  SUBLW  07
08520:  BZ    8534
08522:  MOVF   x11,W
08524:  SUBLW  08
08526:  BZ    8534
08528:  MOVF   x11,W
0852A:  SUBLW  0A
0852C:  BZ    8534
0852E:  MOVF   x11,W
08530:  SUBLW  0C
08532:  BNZ   8538
08534:  MOVLW  1F
08536:  MOVWF  x12
....................          if ((dia == 0) && (mes == 2)) dia = 28; 
08538:  MOVF   x12,F
0853A:  BNZ   8546
0853C:  MOVF   x11,W
0853E:  SUBLW  02
08540:  BNZ   8546
08542:  MOVLW  1C
08544:  MOVWF  x12
....................          if ((dia == 0) && ((mes == 4) || (mes == 6) || (mes == 9) || (mes == 11))) dia = 30; 
08546:  MOVF   x12,F
08548:  BNZ   8566
0854A:  MOVF   x11,W
0854C:  SUBLW  04
0854E:  BZ    8562
08550:  MOVF   x11,W
08552:  SUBLW  06
08554:  BZ    8562
08556:  MOVF   x11,W
08558:  SUBLW  09
0855A:  BZ    8562
0855C:  MOVF   x11,W
0855E:  SUBLW  0B
08560:  BNZ   8566
08562:  MOVLW  1E
08564:  MOVWF  x12
....................    } // arriba dentro de dia 
....................  
....................    if (submenu == 4) { // arriba dentro de hora 
08566:  MOVF   x26,W
08568:  SUBLW  04
0856A:  BNZ   8576
....................          --hora; 
0856C:  DECF   x14,F
....................          if (hora == 255) hora = 23; 
0856E:  INCFSZ x14,W
08570:  BRA    8576
08572:  MOVLW  17
08574:  MOVWF  x14
....................    } // arriba dentro de hora 
....................  
....................    if (submenu == 5) { // arriba dentro de minuto 
08576:  MOVF   x26,W
08578:  SUBLW  05
0857A:  BNZ   8586
....................          --minuto; 
0857C:  DECF   x15,F
....................          if (minuto == 255) minuto = 59; 
0857E:  INCFSZ x15,W
08580:  BRA    8586
08582:  MOVLW  3B
08584:  MOVWF  x15
....................    } // arriba dentro de minuto 
....................  
.................... } 
.................... } 
....................  
.................... switch (dias){ 
08586:  MOVLW  01
08588:  SUBWF  x13,W
0858A:  ADDLW  F9
0858C:  BTFSC  FD8.0
0858E:  BRA    866C
08590:  ADDLW  07
08592:  MOVLB  0
08594:  GOTO   8B26
....................    case 1: 
....................    sdia="Lunes    "; 
08598:  MOVLW  01
0859A:  MOVWF  FEA
0859C:  MOVLW  17
0859E:  MOVWF  FE9
085A0:  MOVLW  00
085A2:  CALL   011E
085A6:  TBLRD*-
085A8:  TBLRD*+
085AA:  MOVF   FF5,W
085AC:  MOVWF  FEE
085AE:  IORLW  00
085B0:  BNZ   85A8
....................    break; 
085B2:  MOVLB  1
085B4:  BRA    866C
....................  
....................    case 2: 
....................    sdia="Martes   "; 
085B6:  MOVLW  01
085B8:  MOVWF  FEA
085BA:  MOVLW  17
085BC:  MOVWF  FE9
085BE:  MOVLW  00
085C0:  CALL   0138
085C4:  TBLRD*-
085C6:  TBLRD*+
085C8:  MOVF   FF5,W
085CA:  MOVWF  FEE
085CC:  IORLW  00
085CE:  BNZ   85C6
....................    break; 
085D0:  MOVLB  1
085D2:  BRA    866C
....................  
....................    case 3: 
....................    sdia="Miercoles"; 
085D4:  MOVLW  01
085D6:  MOVWF  FEA
085D8:  MOVLW  17
085DA:  MOVWF  FE9
085DC:  MOVLW  00
085DE:  CALL   0152
085E2:  TBLRD*-
085E4:  TBLRD*+
085E6:  MOVF   FF5,W
085E8:  MOVWF  FEE
085EA:  IORLW  00
085EC:  BNZ   85E4
....................    break; 
085EE:  MOVLB  1
085F0:  BRA    866C
....................  
....................    case 4: 
....................    sdia="Jueves   "; 
085F2:  MOVLW  01
085F4:  MOVWF  FEA
085F6:  MOVLW  17
085F8:  MOVWF  FE9
085FA:  MOVLW  00
085FC:  CALL   016C
08600:  TBLRD*-
08602:  TBLRD*+
08604:  MOVF   FF5,W
08606:  MOVWF  FEE
08608:  IORLW  00
0860A:  BNZ   8602
....................    break; 
0860C:  MOVLB  1
0860E:  BRA    866C
....................  
....................    case 5: 
....................    sdia="Viernes  "; 
08610:  MOVLW  01
08612:  MOVWF  FEA
08614:  MOVLW  17
08616:  MOVWF  FE9
08618:  MOVLW  00
0861A:  CALL   0186
0861E:  TBLRD*-
08620:  TBLRD*+
08622:  MOVF   FF5,W
08624:  MOVWF  FEE
08626:  IORLW  00
08628:  BNZ   8620
....................    break; 
0862A:  MOVLB  1
0862C:  BRA    866C
....................  
....................    case 6: 
....................    sdia="Sabado   "; 
0862E:  MOVLW  01
08630:  MOVWF  FEA
08632:  MOVLW  17
08634:  MOVWF  FE9
08636:  MOVLW  00
08638:  CALL   01A0
0863C:  TBLRD*-
0863E:  TBLRD*+
08640:  MOVF   FF5,W
08642:  MOVWF  FEE
08644:  IORLW  00
08646:  BNZ   863E
....................    break; 
08648:  MOVLB  1
0864A:  BRA    866C
....................  
....................    case 7: 
....................    sdia="Domingo  "; 
0864C:  MOVLW  01
0864E:  MOVWF  FEA
08650:  MOVLW  17
08652:  MOVWF  FE9
08654:  MOVLW  00
08656:  CALL   01BA
0865A:  TBLRD*-
0865C:  TBLRD*+
0865E:  MOVF   FF5,W
08660:  MOVWF  FEE
08662:  IORLW  00
08664:  BNZ   865C
....................    break; 
08666:  MOVLB  1
08668:  BRA    866C
0866A:  MOVLB  1
.................... } 
....................  
.................... switch (mes){ 
0866C:  MOVLW  01
0866E:  SUBWF  x11,W
08670:  ADDLW  F4
08672:  BTFSC  FD8.0
08674:  BRA    87E8
08676:  ADDLW  0C
08678:  MOVLB  0
0867A:  GOTO   8B4E
....................    case 1: 
....................    smes="Ene"; 
0867E:  MOVLW  01
08680:  MOVWF  FEA
08682:  MOVLW  22
08684:  MOVWF  FE9
08686:  MOVLW  00
08688:  CALL   01D4
0868C:  TBLRD*-
0868E:  TBLRD*+
08690:  MOVF   FF5,W
08692:  MOVWF  FEE
08694:  IORLW  00
08696:  BNZ   868E
....................    break; 
08698:  MOVLB  1
0869A:  BRA    87E8
....................  
....................    case 2: 
....................    smes="Feb"; 
0869C:  MOVLW  01
0869E:  MOVWF  FEA
086A0:  MOVLW  22
086A2:  MOVWF  FE9
086A4:  MOVLW  00
086A6:  CALL   01E8
086AA:  TBLRD*-
086AC:  TBLRD*+
086AE:  MOVF   FF5,W
086B0:  MOVWF  FEE
086B2:  IORLW  00
086B4:  BNZ   86AC
....................    break; 
086B6:  MOVLB  1
086B8:  BRA    87E8
....................  
....................    case 3: 
....................    smes="Mar"; 
086BA:  MOVLW  01
086BC:  MOVWF  FEA
086BE:  MOVLW  22
086C0:  MOVWF  FE9
086C2:  MOVLW  00
086C4:  CALL   01FC
086C8:  TBLRD*-
086CA:  TBLRD*+
086CC:  MOVF   FF5,W
086CE:  MOVWF  FEE
086D0:  IORLW  00
086D2:  BNZ   86CA
....................    break; 
086D4:  MOVLB  1
086D6:  BRA    87E8
....................  
....................    case 4: 
....................    smes="Abr"; 
086D8:  MOVLW  01
086DA:  MOVWF  FEA
086DC:  MOVLW  22
086DE:  MOVWF  FE9
086E0:  MOVLW  00
086E2:  CALL   0210
086E6:  TBLRD*-
086E8:  TBLRD*+
086EA:  MOVF   FF5,W
086EC:  MOVWF  FEE
086EE:  IORLW  00
086F0:  BNZ   86E8
....................    break; 
086F2:  MOVLB  1
086F4:  BRA    87E8
....................  
....................    case 5: 
....................    smes="May"; 
086F6:  MOVLW  01
086F8:  MOVWF  FEA
086FA:  MOVLW  22
086FC:  MOVWF  FE9
086FE:  MOVLW  00
08700:  CALL   0224
08704:  TBLRD*-
08706:  TBLRD*+
08708:  MOVF   FF5,W
0870A:  MOVWF  FEE
0870C:  IORLW  00
0870E:  BNZ   8706
....................    break; 
08710:  MOVLB  1
08712:  BRA    87E8
....................  
....................    case 6: 
....................    smes="Jun"; 
08714:  MOVLW  01
08716:  MOVWF  FEA
08718:  MOVLW  22
0871A:  MOVWF  FE9
0871C:  MOVLW  00
0871E:  CALL   0238
08722:  TBLRD*-
08724:  TBLRD*+
08726:  MOVF   FF5,W
08728:  MOVWF  FEE
0872A:  IORLW  00
0872C:  BNZ   8724
....................    break; 
0872E:  MOVLB  1
08730:  BRA    87E8
....................  
....................    case 7: 
....................    smes="Jul"; 
08732:  MOVLW  01
08734:  MOVWF  FEA
08736:  MOVLW  22
08738:  MOVWF  FE9
0873A:  MOVLW  00
0873C:  CALL   024C
08740:  TBLRD*-
08742:  TBLRD*+
08744:  MOVF   FF5,W
08746:  MOVWF  FEE
08748:  IORLW  00
0874A:  BNZ   8742
....................    break; 
0874C:  MOVLB  1
0874E:  BRA    87E8
....................  
....................    case 8: 
....................    smes="Ago"; 
08750:  MOVLW  01
08752:  MOVWF  FEA
08754:  MOVLW  22
08756:  MOVWF  FE9
08758:  MOVLW  00
0875A:  CALL   0260
0875E:  TBLRD*-
08760:  TBLRD*+
08762:  MOVF   FF5,W
08764:  MOVWF  FEE
08766:  IORLW  00
08768:  BNZ   8760
....................    break; 
0876A:  MOVLB  1
0876C:  BRA    87E8
....................  
....................    case 9: 
....................    smes="Sep"; 
0876E:  MOVLW  01
08770:  MOVWF  FEA
08772:  MOVLW  22
08774:  MOVWF  FE9
08776:  MOVLW  00
08778:  CALL   0274
0877C:  TBLRD*-
0877E:  TBLRD*+
08780:  MOVF   FF5,W
08782:  MOVWF  FEE
08784:  IORLW  00
08786:  BNZ   877E
....................    break; 
08788:  MOVLB  1
0878A:  BRA    87E8
....................  
....................    case 10: 
....................    smes="Oct"; 
0878C:  MOVLW  01
0878E:  MOVWF  FEA
08790:  MOVLW  22
08792:  MOVWF  FE9
08794:  MOVLW  00
08796:  CALL   0288
0879A:  TBLRD*-
0879C:  TBLRD*+
0879E:  MOVF   FF5,W
087A0:  MOVWF  FEE
087A2:  IORLW  00
087A4:  BNZ   879C
....................    break; 
087A6:  MOVLB  1
087A8:  BRA    87E8
....................  
....................    case 11: 
....................    smes="Nov"; 
087AA:  MOVLW  01
087AC:  MOVWF  FEA
087AE:  MOVLW  22
087B0:  MOVWF  FE9
087B2:  MOVLW  00
087B4:  CALL   029C
087B8:  TBLRD*-
087BA:  TBLRD*+
087BC:  MOVF   FF5,W
087BE:  MOVWF  FEE
087C0:  IORLW  00
087C2:  BNZ   87BA
....................    break; 
087C4:  MOVLB  1
087C6:  BRA    87E8
....................  
....................    case 12: 
....................    smes="Dic"; 
087C8:  MOVLW  01
087CA:  MOVWF  FEA
087CC:  MOVLW  22
087CE:  MOVWF  FE9
087D0:  MOVLW  00
087D2:  CALL   02B0
087D6:  TBLRD*-
087D8:  TBLRD*+
087DA:  MOVF   FF5,W
087DC:  MOVWF  FEE
087DE:  IORLW  00
087E0:  BNZ   87D8
....................    break; 
087E2:  MOVLB  1
087E4:  BRA    87E8
087E6:  MOVLB  1
.................... } 
....................  
.................... lcd_gotoxy(1,1); 
087E8:  MOVLW  01
087EA:  MOVWF  x2B
087EC:  MOVWF  x2C
087EE:  MOVLB  0
087F0:  CALL   240A
.................... printf(lcd_putc, "=== Fecha y hora ==="); 
087F4:  MOVLW  8C
087F6:  MOVWF  FF6
087F8:  MOVLW  0B
087FA:  MOVWF  FF7
087FC:  CALL   24DC
....................  
.................... lcd_gotoxy(1,2); 
08800:  MOVLW  01
08802:  MOVLB  1
08804:  MOVWF  x2B
08806:  MOVLW  02
08808:  MOVWF  x2C
0880A:  MOVLB  0
0880C:  CALL   240A
.................... if (submenu == 1){ 
08810:  MOVLB  1
08812:  DECFSZ x26,W
08814:  BRA    885A
.................... if (bit_test(tiempo1,0)) printf(lcd_putc, "   Dia: %s ", sdia); 
08816:  BTFSS  46.0
08818:  BRA    8848
0881A:  MOVLW  A2
0881C:  MOVWF  FF6
0881E:  MOVLW  0B
08820:  MOVWF  FF7
08822:  MOVLW  08
08824:  MOVWF  x27
08826:  MOVLB  0
08828:  CALL   279A
0882C:  MOVLW  01
0882E:  MOVWF  FEA
08830:  MOVLW  17
08832:  MOVWF  FE9
08834:  CALL   3FE0
08838:  MOVLW  20
0883A:  MOVLB  1
0883C:  MOVWF  x2A
0883E:  MOVLB  0
08840:  CALL   2474
08844:  BRA    8856
08846:  MOVLB  1
.................... else printf(lcd_putc, "   Dia:              "); 
08848:  MOVLW  AE
0884A:  MOVWF  FF6
0884C:  MOVLW  0B
0884E:  MOVWF  FF7
08850:  MOVLB  0
08852:  CALL   24DC
.................... } else{ 
08856:  BRA    8894
08858:  MOVLB  1
.................... lcd_gotoxy(1,2); 
0885A:  MOVLW  01
0885C:  MOVWF  x2B
0885E:  MOVLW  02
08860:  MOVWF  x2C
08862:  MOVLB  0
08864:  CALL   240A
.................... printf(lcd_putc, "   Dia: %s ", sdia); 
08868:  MOVLW  C4
0886A:  MOVWF  FF6
0886C:  MOVLW  0B
0886E:  MOVWF  FF7
08870:  MOVLW  08
08872:  MOVLB  1
08874:  MOVWF  x27
08876:  MOVLB  0
08878:  CALL   279A
0887C:  MOVLW  01
0887E:  MOVWF  FEA
08880:  MOVLW  17
08882:  MOVWF  FE9
08884:  CALL   3FE0
08888:  MOVLW  20
0888A:  MOVLB  1
0888C:  MOVWF  x2A
0888E:  MOVLB  0
08890:  CALL   2474
.................... } 
....................  
.................... lcd_gotoxy(1,3); 
08894:  MOVLW  01
08896:  MOVLB  1
08898:  MOVWF  x2B
0889A:  MOVLW  03
0889C:  MOVWF  x2C
0889E:  MOVLB  0
088A0:  CALL   240A
.................... if (submenu == 3){ 
088A4:  MOVLB  1
088A6:  MOVF   x26,W
088A8:  SUBLW  03
088AA:  BNZ   88FC
.................... if (bit_test(tiempo1,0)) printf(lcd_putc, " Nro: %02u   ",dia); 
088AC:  BTFSS  46.0
088AE:  BRA    88EA
088B0:  MOVLW  D0
088B2:  MOVWF  FF6
088B4:  MOVLW  0B
088B6:  MOVWF  FF7
088B8:  MOVLW  06
088BA:  MOVWF  x27
088BC:  MOVLB  0
088BE:  CALL   279A
088C2:  MOVFF  112,127
088C6:  MOVLW  01
088C8:  MOVLB  1
088CA:  MOVWF  x28
088CC:  MOVLB  0
088CE:  CALL   271E
088D2:  MOVLW  DA
088D4:  MOVWF  FF6
088D6:  MOVLW  0B
088D8:  MOVWF  FF7
088DA:  MOVLW  03
088DC:  MOVLB  1
088DE:  MOVWF  x27
088E0:  MOVLB  0
088E2:  CALL   279A
088E6:  BRA    88F8
088E8:  MOVLB  1
.................... else printf(lcd_putc, " Nro:      "); 
088EA:  MOVLW  DE
088EC:  MOVWF  FF6
088EE:  MOVLW  0B
088F0:  MOVWF  FF7
088F2:  MOVLB  0
088F4:  CALL   24DC
.................... } else 
088F8:  BRA    8942
088FA:  MOVLB  1
.................... { 
.................... lcd_gotoxy(1,3); 
088FC:  MOVLW  01
088FE:  MOVWF  x2B
08900:  MOVLW  03
08902:  MOVWF  x2C
08904:  MOVLB  0
08906:  CALL   240A
.................... printf(lcd_putc, " Nro: %02u   ",dia); 
0890A:  MOVLW  EA
0890C:  MOVWF  FF6
0890E:  MOVLW  0B
08910:  MOVWF  FF7
08912:  MOVLW  06
08914:  MOVLB  1
08916:  MOVWF  x27
08918:  MOVLB  0
0891A:  CALL   279A
0891E:  MOVFF  112,127
08922:  MOVLW  01
08924:  MOVLB  1
08926:  MOVWF  x28
08928:  MOVLB  0
0892A:  CALL   271E
0892E:  MOVLW  F4
08930:  MOVWF  FF6
08932:  MOVLW  0B
08934:  MOVWF  FF7
08936:  MOVLW  03
08938:  MOVLB  1
0893A:  MOVWF  x27
0893C:  MOVLB  0
0893E:  CALL   279A
.................... } 
....................  
.................... lcd_gotoxy(11,3); 
08942:  MOVLW  0B
08944:  MOVLB  1
08946:  MOVWF  x2B
08948:  MOVLW  03
0894A:  MOVWF  x2C
0894C:  MOVLB  0
0894E:  CALL   240A
.................... if (submenu == 2){ 
08952:  MOVLB  1
08954:  MOVF   x26,W
08956:  SUBLW  02
08958:  BNZ   8992
.................... if (bit_test(tiempo1,0)) printf(lcd_putc, "Mes: %s",smes); 
0895A:  BTFSS  46.0
0895C:  BRA    8980
0895E:  MOVLW  F8
08960:  MOVWF  FF6
08962:  MOVLW  0B
08964:  MOVWF  FF7
08966:  MOVLW  05
08968:  MOVWF  x27
0896A:  MOVLB  0
0896C:  CALL   279A
08970:  MOVLW  01
08972:  MOVWF  FEA
08974:  MOVLW  22
08976:  MOVWF  FE9
08978:  CALL   3FE0
0897C:  BRA    898E
0897E:  MOVLB  1
.................... else printf(lcd_putc, "Mes:    "); 
08980:  MOVLW  00
08982:  MOVWF  FF6
08984:  MOVLW  0C
08986:  MOVWF  FF7
08988:  MOVLB  0
0898A:  CALL   24DC
.................... } else { 
0898E:  BRA    89C0
08990:  MOVLB  1
.................... lcd_gotoxy(11,3); 
08992:  MOVLW  0B
08994:  MOVWF  x2B
08996:  MOVLW  03
08998:  MOVWF  x2C
0899A:  MOVLB  0
0899C:  CALL   240A
.................... printf(lcd_putc, "Mes: %s",smes); 
089A0:  MOVLW  0A
089A2:  MOVWF  FF6
089A4:  MOVLW  0C
089A6:  MOVWF  FF7
089A8:  MOVLW  05
089AA:  MOVLB  1
089AC:  MOVWF  x27
089AE:  MOVLB  0
089B0:  CALL   279A
089B4:  MOVLW  01
089B6:  MOVWF  FEA
089B8:  MOVLW  22
089BA:  MOVWF  FE9
089BC:  CALL   3FE0
.................... } 
....................  
.................... lcd_gotoxy(1,4); 
089C0:  MOVLW  01
089C2:  MOVLB  1
089C4:  MOVWF  x2B
089C6:  MOVLW  04
089C8:  MOVWF  x2C
089CA:  MOVLB  0
089CC:  CALL   240A
.................... if (submenu == 4){ 
089D0:  MOVLB  1
089D2:  MOVF   x26,W
089D4:  SUBLW  04
089D6:  BNZ   8A20
.................... if (bit_test(tiempo1,0)) printf(lcd_putc, "Hora: %02u ",hora); 
089D8:  BTFSS  46.0
089DA:  BRA    8A0E
089DC:  MOVLW  12
089DE:  MOVWF  FF6
089E0:  MOVLW  0C
089E2:  MOVWF  FF7
089E4:  MOVLW  06
089E6:  MOVWF  x27
089E8:  MOVLB  0
089EA:  CALL   279A
089EE:  MOVFF  114,127
089F2:  MOVLW  01
089F4:  MOVLB  1
089F6:  MOVWF  x28
089F8:  MOVLB  0
089FA:  CALL   271E
089FE:  MOVLW  20
08A00:  MOVLB  1
08A02:  MOVWF  x2A
08A04:  MOVLB  0
08A06:  CALL   2474
08A0A:  BRA    8A1C
08A0C:  MOVLB  1
.................... else printf(lcd_putc, "Hora:    "); 
08A0E:  MOVLW  1E
08A10:  MOVWF  FF6
08A12:  MOVLW  0C
08A14:  MOVWF  FF7
08A16:  MOVLB  0
08A18:  CALL   24DC
.................... } else { 
08A1C:  BRA    8A5E
08A1E:  MOVLB  1
.................... lcd_gotoxy(1,4); 
08A20:  MOVLW  01
08A22:  MOVWF  x2B
08A24:  MOVLW  04
08A26:  MOVWF  x2C
08A28:  MOVLB  0
08A2A:  CALL   240A
.................... printf(lcd_putc, "Hora: %02u ",hora); 
08A2E:  MOVLW  28
08A30:  MOVWF  FF6
08A32:  MOVLW  0C
08A34:  MOVWF  FF7
08A36:  MOVLW  06
08A38:  MOVLB  1
08A3A:  MOVWF  x27
08A3C:  MOVLB  0
08A3E:  CALL   279A
08A42:  MOVFF  114,127
08A46:  MOVLW  01
08A48:  MOVLB  1
08A4A:  MOVWF  x28
08A4C:  MOVLB  0
08A4E:  CALL   271E
08A52:  MOVLW  20
08A54:  MOVLB  1
08A56:  MOVWF  x2A
08A58:  MOVLB  0
08A5A:  CALL   2474
.................... } 
....................  
.................... lcd_gotoxy(10,4); 
08A5E:  MOVLW  0A
08A60:  MOVLB  1
08A62:  MOVWF  x2B
08A64:  MOVLW  04
08A66:  MOVWF  x2C
08A68:  MOVLB  0
08A6A:  CALL   240A
.................... if (submenu == 5){ 
08A6E:  MOVLB  1
08A70:  MOVF   x26,W
08A72:  SUBLW  05
08A74:  BNZ   8AB2
.................... if (bit_test(tiempo1,0)) printf(lcd_putc, "Minutos: %02u",minuto); 
08A76:  BTFSS  46.0
08A78:  BRA    8AA0
08A7A:  MOVLW  34
08A7C:  MOVWF  FF6
08A7E:  MOVLW  0C
08A80:  MOVWF  FF7
08A82:  MOVLW  09
08A84:  MOVWF  x27
08A86:  MOVLB  0
08A88:  CALL   279A
08A8C:  MOVFF  115,127
08A90:  MOVLW  01
08A92:  MOVLB  1
08A94:  MOVWF  x28
08A96:  MOVLB  0
08A98:  CALL   271E
08A9C:  BRA    8AAE
08A9E:  MOVLB  1
.................... else printf(lcd_putc, "Minutos:   "); 
08AA0:  MOVLW  42
08AA2:  MOVWF  FF6
08AA4:  MOVLW  0C
08AA6:  MOVWF  FF7
08AA8:  MOVLB  0
08AAA:  CALL   24DC
.................... } else { 
08AAE:  BRA    8AE4
08AB0:  MOVLB  1
.................... lcd_gotoxy(10,4); 
08AB2:  MOVLW  0A
08AB4:  MOVWF  x2B
08AB6:  MOVLW  04
08AB8:  MOVWF  x2C
08ABA:  MOVLB  0
08ABC:  CALL   240A
.................... printf(lcd_putc, "Minutos: %02u",minuto); 
08AC0:  MOVLW  4E
08AC2:  MOVWF  FF6
08AC4:  MOVLW  0C
08AC6:  MOVWF  FF7
08AC8:  MOVLW  09
08ACA:  MOVLB  1
08ACC:  MOVWF  x27
08ACE:  MOVLB  0
08AD0:  CALL   279A
08AD4:  MOVFF  115,127
08AD8:  MOVLW  01
08ADA:  MOVLB  1
08ADC:  MOVWF  x28
08ADE:  MOVLB  0
08AE0:  CALL   271E
.................... } 
.................... restart_wdt(); 
08AE4:  CLRWDT
08AE6:  BRA    83CE
08AE8:  MOVLB  1
....................  
.................... } // todo lleno cuando salgo de aqui 
....................  
.................... if (submenu == 10) Menu = 62; 
08AEA:  MOVF   x26,W
08AEC:  SUBLW  0A
08AEE:  BNZ   8AF4
08AF0:  MOVLW  3E
08AF2:  MOVWF  27
.................... if (submenu == 6) { 
08AF4:  MOVF   x26,W
08AF6:  SUBLW  06
08AF8:  BNZ   8B20
.................... Menu = 1; 
08AFA:  MOVLW  01
08AFC:  MOVWF  27
.................... ds1307_set_date_time(dia,mes,anio,dias,hora,minuto,0); 
08AFE:  MOVFF  112,127
08B02:  MOVFF  111,128
08B06:  MOVFF  116,129
08B0A:  MOVFF  113,12A
08B0E:  MOVFF  114,12B
08B12:  MOVFF  115,12C
08B16:  CLRF   x2D
08B18:  MOVLB  0
08B1A:  CALL   824C
08B1E:  MOVLB  1
.................... } 
08B20:  MOVLB  0
08B22:  GOTO   926C (RETURN)
.................... } 
....................  
.................... void inicio(){  /////////////// INICIO ////////////////////// 
.................... //// Pullups para el teclado //// 
.................... port_b_pullups(true); 
*
024FC:  BCF    FF1.7
....................  
.................... /////////  Inicio el WatchDog  /////////////// 
.................... setup_wdt(WDT_ON); 
024FE:  BSF    FD1.0
....................  
.................... //// Interrupciones ///// 
.................... enable_interrupts(global); 
02500:  MOVLW  C0
02502:  IORWF  FF2,F
.................... //disable_interrupts(global); 
.................... enable_interrupts(int_rda); // Interrupcion de llegada de datos 
02504:  BSF    F9D.5
.................... enable_interrupts(INT_TIMER1); // Interrupcion por timer 1 
02506:  BSF    F9D.0
....................  
.................... ////// Inicio de dispositivos ////// 
.................... DHT11_init(); 
02508:  BRA    2096
.................... DS1307_init(); 
0250A:  BRA    20E8
.................... lcd_init(); 
0250C:  BRA    2362
....................  
.................... /////////////////////// Arrancamos el timer 1 para medir tiempos internos //////////// 
.................... setup_timer_1(T1_INTERNAL | T1_DIV_BY_8); 
0250E:  MOVLW  B5
02510:  MOVWF  FCD
.................... set_timer1(0); 
02512:  CLRF   FCF
02514:  CLRF   FCE
....................  
....................  
.................... ////// Inicio de variables /////////// 
.................... Menu = 1;      // Posicion dentro del menu 0 
02516:  MOVLW  01
02518:  MOVWF  27
.................... Tiempo1=0; // Contador de tiempos internos larga en 0 
0251A:  CLRF   46
.................... TempOut=40;    // Temperatura remota (afuera) 
0251C:  MOVLW  28
0251E:  MOVWF  42
.................... Sol=100;       // Intensidad del sol (remota, afuera) 
02520:  MOVLW  64
02522:  MOVWF  43
.................... Rebote = false;    // Teclado no presionado 
02524:  BCF    34.0
.................... EstadoAl = read_eeprom(EstAlarma);  // Leo el tiempo para salir 
02526:  MOVFF  FF2,112
0252A:  BCF    FF2.7
0252C:  CLRF   FAA
0252E:  MOVLW  02
02530:  MOVWF  FA9
02532:  BCF    FA6.6
02534:  BCF    FA6.7
02536:  BSF    FA6.0
02538:  MOVF   FA8,W
0253A:  MOVLB  1
0253C:  BTFSC  x12.7
0253E:  BSF    FF2.7
02540:  MOVWF  44
.................... TpoSilencioso = read_eeprom(TpoSil);  // Leo el tiempo silencioso 
02542:  MOVFF  FF2,112
02546:  BCF    FF2.7
02548:  CLRF   FAA
0254A:  MOVLW  04
0254C:  MOVWF  FA9
0254E:  BCF    FA6.6
02550:  BCF    FA6.7
02552:  BSF    FA6.0
02554:  MOVF   FA8,W
02556:  BTFSC  x12.7
02558:  BSF    FF2.7
0255A:  MOVWF  x0F
.................... TpoSalida = read_eeprom(TpoSal);  // Leo el tiempo para salir 
0255C:  MOVFF  FF2,112
02560:  BCF    FF2.7
02562:  CLRF   FAA
02564:  MOVLW  05
02566:  MOVWF  FA9
02568:  BCF    FA6.6
0256A:  BCF    FA6.7
0256C:  BSF    FA6.0
0256E:  MOVF   FA8,W
02570:  BTFSC  x12.7
02572:  BSF    FF2.7
02574:  MOVWF  x10
.................... Passwd[0] = read_eeprom(Password);  // Contrasea1 de ROM a RAM 
02576:  MOVFF  FF2,112
0257A:  BCF    FF2.7
0257C:  CLRF   FAA
0257E:  MOVLW  06
02580:  MOVWF  FA9
02582:  BCF    FA6.6
02584:  BCF    FA6.7
02586:  BSF    FA6.0
02588:  MOVF   FA8,W
0258A:  BTFSC  x12.7
0258C:  BSF    FF2.7
0258E:  MOVWF  x0D
.................... Passwd[1] = read_eeprom(Password + 1);  // Contrasea2 de ROM a RAM 
02590:  MOVFF  FF2,112
02594:  BCF    FF2.7
02596:  CLRF   FAA
02598:  MOVLW  07
0259A:  MOVWF  FA9
0259C:  BCF    FA6.6
0259E:  BCF    FA6.7
025A0:  BSF    FA6.0
025A2:  MOVF   FA8,W
025A4:  BTFSC  x12.7
025A6:  BSF    FF2.7
025A8:  MOVWF  x0E
....................  
.................... restart_wdt(); 
025AA:  CLRWDT
....................  
.................... ////////////// Recuperamos intensidades de EEPROM ///////////////// 
.................... int aux1; 
.................... for (aux1=32;aux1<93;aux1++){ // llena todo desde el 32 al 93  
025AC:  MOVLW  20
025AE:  MOVWF  x11
025B0:  MOVF   x11,W
025B2:  SUBLW  5C
025B4:  BTFSS  FD8.0
025B6:  BRA    26AC
.................... //IntLuz[aux1] = read_eeprom(aux1); 
.................... IntLuz[aux1] = 15; 
025B8:  CLRF   03
025BA:  MOVF   x11,W
025BC:  ADDLW  47
025BE:  MOVWF  FE9
025C0:  MOVLW  00
025C2:  ADDWFC 03,W
025C4:  MOVWF  FEA
025C6:  MOVLW  0F
025C8:  MOVWF  FEF
025CA:  CLRF   19
025CC:  BTFSC  FF2.7
025CE:  BSF    19.7
025D0:  BCF    FF2.7
.................... delay_ms(1); 
025D2:  MOVLW  01
025D4:  MOVWF  x37
025D6:  MOVLB  0
025D8:  CALL   0D76
025DC:  BTFSC  19.7
025DE:  BSF    FF2.7
.................... if (IntLuz[aux1] > 80) { // La luz estaba encendida 
025E0:  CLRF   03
025E2:  MOVLB  1
025E4:  MOVF   x11,W
025E6:  ADDLW  47
025E8:  MOVWF  FE9
025EA:  MOVLW  00
025EC:  ADDWFC 03,W
025EE:  MOVWF  FEA
025F0:  MOVF   FEF,W
025F2:  SUBLW  50
025F4:  BC    2664
.................... printf("%c%c%c%c", 250, aux1, (IntLuz[aux1]-100), aux1+(IntLuz[aux1]-100)); // Le cargo la intensidad 
025F6:  CLRF   03
025F8:  MOVF   x11,W
025FA:  ADDLW  47
025FC:  MOVWF  FE9
025FE:  MOVLW  00
02600:  ADDWFC 03,W
02602:  MOVWF  FEA
02604:  MOVLW  64
02606:  SUBWF  FEF,W
02608:  MOVWF  x12
0260A:  CLRF   03
0260C:  MOVF   x11,W
0260E:  ADDLW  47
02610:  MOVWF  FE9
02612:  MOVLW  00
02614:  ADDWFC 03,W
02616:  MOVWF  FEA
02618:  MOVLW  64
0261A:  SUBWF  FEF,W
0261C:  ADDWF  x11,W
0261E:  MOVWF  x13
02620:  MOVLW  FA
02622:  MOVWF  x1D
02624:  MOVLB  0
02626:  RCALL  23EA
02628:  MOVFF  111,11D
0262C:  RCALL  23EA
0262E:  MOVFF  112,11D
02632:  RCALL  23EA
02634:  MOVFF  113,11D
02638:  RCALL  23EA
.................... printf("%c%c%c%c", 250, aux1, 90, aux1+90); // La enciendo 
0263A:  MOVLW  5A
0263C:  MOVLB  1
0263E:  ADDWF  x11,W
02640:  MOVWF  x12
02642:  MOVLW  FA
02644:  MOVWF  x1D
02646:  MOVLB  0
02648:  RCALL  23EA
0264A:  MOVFF  111,11D
0264E:  RCALL  23EA
02650:  MOVLW  5A
02652:  MOVLB  1
02654:  MOVWF  x1D
02656:  MOVLB  0
02658:  RCALL  23EA
0265A:  MOVFF  112,11D
0265E:  RCALL  23EA
.................... } else{ // La luz estaba apagada 
02660:  BRA    26A4
02662:  MOVLB  1
.................... printf("%c%c%c%c", 250, aux1, (IntLuz[aux1]), aux1+(IntLuz[aux1])); // Le cargo la intensidad 
02664:  CLRF   03
02666:  MOVF   x11,W
02668:  ADDLW  47
0266A:  MOVWF  FE9
0266C:  MOVLW  00
0266E:  ADDWFC 03,W
02670:  MOVWF  FEA
02672:  MOVFF  FEF,112
02676:  CLRF   03
02678:  MOVF   x11,W
0267A:  ADDLW  47
0267C:  MOVWF  FE9
0267E:  MOVLW  00
02680:  ADDWFC 03,W
02682:  MOVWF  FEA
02684:  MOVF   FEF,W
02686:  ADDWF  x11,W
02688:  MOVWF  x13
0268A:  MOVLW  FA
0268C:  MOVWF  x1D
0268E:  MOVLB  0
02690:  RCALL  23EA
02692:  MOVFF  111,11D
02696:  RCALL  23EA
02698:  MOVFF  112,11D
0269C:  RCALL  23EA
0269E:  MOVFF  113,11D
026A2:  RCALL  23EA
.................... } 
.................... restart_wdt(); 
026A4:  CLRWDT
026A6:  MOVLB  1
026A8:  INCF   x11,F
026AA:  BRA    25B0
.................... } 
....................  
....................  
.................... LIMPIARLCD; // Limpiamos la pantalla 
026AC:  MOVLW  5C
026AE:  MOVWF  FF6
026B0:  MOVLW  0C
026B2:  MOVWF  FF7
026B4:  MOVLB  0
026B6:  RCALL  24DC
026B8:  GOTO   9198 (RETURN)
....................  
.................... /*while(1){  ///////////////////// Impresion de caracteres 
.................... int kkk; 
....................  
.................... for(kkk=0;kkk<255;++kkk){ 
....................    lcd_gotoxy(1,1); 
....................    printf(lcd_putc, "(%03u)%c (%03u)%c (%03u)%c",kkk,kkk,kkk+1,kkk+1,kkk+2,kkk+2); 
....................    lcd_gotoxy(1,2); 
....................    printf(lcd_putc, "(%03u)%c (%03u)%c (%03u)%c",kkk+3,kkk+3,kkk+4,kkk+4,kkk+5,kkk+5); 
....................    lcd_gotoxy(1,3); 
....................    printf(lcd_putc, "(%03u)%c (%03u)%c (%03u)%c",kkk+6,kkk+6,kkk+7,kkk+7,kkk+8,kkk+8); 
....................    lcd_gotoxy(1,4); 
....................    printf(lcd_putc, "(%03u)%c (%03u)%c (%03u)%c",kkk+9,kkk+9,kkk+10,kkk+10,kkk+11,kkk+11); 
.................... delay_ms(2000); 
.................... } 
.................... */ 
.................... } 
....................  
....................  
.................... void DHT11_init() 
.................... { 
.................... output_float(DHT11_pin); 
*
02096:  BSF    F93.5
.................... delay_ms(1000); 
02098:  MOVLW  04
0209A:  MOVLB  1
0209C:  MOVWF  x12
0209E:  CLRF   19
020A0:  BTFSC  FF2.7
020A2:  BSF    19.7
020A4:  BCF    FF2.7
020A6:  MOVLW  FA
020A8:  MOVWF  x37
020AA:  MOVLB  0
020AC:  CALL   0D76
020B0:  BTFSC  19.7
020B2:  BSF    FF2.7
020B4:  MOVLB  1
020B6:  DECFSZ x12,F
020B8:  BRA    209E
020BA:  MOVLB  0
020BC:  GOTO   250A (RETURN)
.................... } 
....................  
.................... unsigned char get_byte() 
*
0117E:  MOVLB  1
01180:  CLRF   x39
01182:  CLRF   x3A
.................... { 
.................... unsigned char s=0; 
.................... unsigned char value=0; 
....................  
.................... for(s=0;s<8;s+=1) 
01184:  CLRF   x39
01186:  MOVF   x39,W
01188:  SUBLW  07
0118A:  BNC   11B4
.................... { 
.................... value<<=1; 
0118C:  BCF    FD8.0
0118E:  RLCF   x3A,F
.................... while(!input(DHT11_pin)); 
01190:  BSF    F93.5
01192:  BTFSS  F81.5
01194:  BRA    1190
.................... delay_us(30); 
01196:  MOVLW  09
01198:  MOVWF  00
0119A:  DECFSZ 00,F
0119C:  BRA    119A
0119E:  BRA    11A0
....................  
.................... if(input(DHT11_pin)) 
011A0:  BSF    F93.5
011A2:  BTFSS  F81.5
011A4:  BRA    11A8
.................... { 
.................... value|=1; 
011A6:  BSF    x3A.0
.................... } 
.................... while(input(DHT11_pin)); 
011A8:  BSF    F93.5
011AA:  BTFSC  F81.5
011AC:  BRA    11A8
011AE:  MOVLW  01
011B0:  ADDWF  x39,F
011B2:  BRA    1186
.................... } 
.................... return value; 
011B4:  MOVFF  13A,01
011B8:  MOVLB  0
011BA:  GOTO   123E (RETURN)
.................... } 
....................  
.................... unsigned char get_data() 
011BE:  MOVLB  1
011C0:  BCF    x34.0
011C2:  CLRF   x35
011C4:  CLRF   x36
.................... { 
.................... short chk=0; 
.................... unsigned char s=0; 
.................... unsigned char check_sum=0; 
....................  
.................... output_high(DHT11_pin); 
011C6:  BCF    F93.5
011C8:  BSF    F8A.5
.................... output_low(DHT11_pin); 
011CA:  BCF    F93.5
011CC:  BCF    F8A.5
.................... delay_ms(18); 
011CE:  MOVLW  12
011D0:  MOVWF  x37
011D2:  MOVLB  0
011D4:  RCALL  0D76
.................... output_high(DHT11_pin); 
011D6:  BCF    F93.5
011D8:  BSF    F8A.5
.................... delay_us(26); 
011DA:  MOVLW  08
011DC:  MOVWF  00
011DE:  DECFSZ 00,F
011E0:  BRA    11DE
011E2:  NOP   
....................  
.................... chk=input(DHT11_pin); 
011E4:  BSF    F93.5
011E6:  MOVLB  1
011E8:  BCF    x34.0
011EA:  BTFSC  F81.5
011EC:  BSF    x34.0
.................... if(chk) 
011EE:  BTFSS  x34.0
011F0:  BRA    11F8
.................... { 
.................... return 1; 
011F2:  MOVLW  01
011F4:  MOVWF  01
011F6:  BRA    1288
.................... } 
.................... delay_us(80); 
011F8:  MOVLW  1A
011FA:  MOVWF  00
011FC:  DECFSZ 00,F
011FE:  BRA    11FC
01200:  NOP   
....................  
.................... chk=input(DHT11_pin); 
01202:  BSF    F93.5
01204:  BCF    x34.0
01206:  BTFSC  F81.5
01208:  BSF    x34.0
.................... if(!chk) 
0120A:  BTFSC  x34.0
0120C:  BRA    1214
.................... { 
.................... return 2; 
0120E:  MOVLW  02
01210:  MOVWF  01
01212:  BRA    1288
.................... } 
.................... delay_us(80); 
01214:  MOVLW  1A
01216:  MOVWF  00
01218:  DECFSZ 00,F
0121A:  BRA    1218
0121C:  NOP   
....................  
.................... for(s=0;s<=4;s+=1) 
0121E:  CLRF   x35
01220:  MOVF   x35,W
01222:  SUBLW  04
01224:  BNC   1252
.................... { 
.................... values[s]=get_byte(); 
01226:  CLRF   03
01228:  MOVF   x35,W
0122A:  ADDLW  1A
0122C:  MOVWF  01
0122E:  MOVLW  00
01230:  ADDWFC 03,F
01232:  MOVFF  01,137
01236:  MOVFF  03,138
0123A:  MOVLB  0
0123C:  BRA    117E
0123E:  MOVFF  138,FEA
01242:  MOVFF  137,FE9
01246:  MOVFF  01,FEF
0124A:  MOVLW  01
0124C:  MOVLB  1
0124E:  ADDWF  x35,F
01250:  BRA    1220
.................... } 
....................  
.................... output_high(DHT11_pin); 
01252:  BCF    F93.5
01254:  BSF    F8A.5
....................  
.................... for(s=0;s<4;s+=1) 
01256:  CLRF   x35
01258:  MOVF   x35,W
0125A:  SUBLW  03
0125C:  BNC   1276
.................... { 
.................... check_sum+=values[s]; 
0125E:  CLRF   03
01260:  MOVF   x35,W
01262:  ADDLW  1A
01264:  MOVWF  FE9
01266:  MOVLW  00
01268:  ADDWFC 03,W
0126A:  MOVWF  FEA
0126C:  MOVF   FEF,W
0126E:  ADDWF  x36,F
01270:  MOVLW  01
01272:  ADDWF  x35,F
01274:  BRA    1258
.................... } 
....................  
.................... if(check_sum!=values[4]) 
01276:  MOVF   1E,W
01278:  SUBWF  x36,W
0127A:  BZ    1284
.................... { 
.................... return 3; 
0127C:  MOVLW  03
0127E:  MOVWF  01
01280:  BRA    1288
.................... } 
01282:  BRA    1288
.................... else 
.................... { 
.................... return 0; 
01284:  MOVLW  00
01286:  MOVWF  01
.................... } 
01288:  MOVLB  0
0128A:  GOTO   1290 (RETURN)
.................... } 
....................  
....................  
.................... ////////////////////////// INTERRUPCIONES ////////////////////////////// 
.................... #int_rda 
.................... void BusData(){ 
.................... if (kbhit()){ 
*
00C6C:  BTFSS  F9E.5
00C6E:  BRA    0CA8
.................... Comando[i]=getc(); 
00C70:  CLRF   03
00C72:  MOVF   39,W
00C74:  ADDLW  35
00C76:  MOVWF  FE9
00C78:  MOVLW  00
00C7A:  ADDWFC 03,W
00C7C:  MOVWF  FEA
00C7E:  BTFSS  F9E.5
00C80:  BRA    0C7E
00C82:  MOVFF  FAE,FEF
.................... if (Comando[i] == 250) i=0; 
00C86:  CLRF   03
00C88:  MOVF   39,W
00C8A:  ADDLW  35
00C8C:  MOVWF  FE9
00C8E:  MOVLW  00
00C90:  ADDWFC 03,W
00C92:  MOVWF  FEA
00C94:  MOVF   FEF,W
00C96:  SUBLW  FA
00C98:  BNZ   0C9E
00C9A:  CLRF   39
00C9C:  BRA    0CA0
.................... else ++i; 
00C9E:  INCF   39,F
.................... if (i==3) Comunica(); 
00CA0:  MOVF   39,W
00CA2:  SUBLW  03
00CA4:  BTFSC  FD8.2
00CA6:  BRA    0C5E
.................... } 
.................... } 
....................  
00CA8:  BCF    F9E.5
00CAA:  GOTO   006C
.................... #int_TIMER1 
.................... void  TIMER1_isr(void) //Funcin de interrupcin por desbordamiento TMR1   
.................... { 
.................... set_timer1(0); //carga del TMR1 
*
015FC:  CLRF   FCF
015FE:  CLRF   FCE
.................... Tiempo(); // Tomo el tiempo 
01600:  GOTO   0DA0
.................... if (sec == 30) Ambiente(); // Tomo las variables ambientales (incluidas las remotas con cuidado de no saturar el bus) 
01604:  MOVF   20,W
01606:  SUBLW  1E
01608:  BTFSC  FD8.2
0160A:  BRA    128E
.................... ++Tiempo1; 
0160C:  INCF   46,F
0160E:  BCF    F9E.0
01610:  GOTO   006C
.................... } 
....................  
.................... void Comunica(){ 
.................... i=0; 
*
00C5E:  CLRF   39
....................  
.................... if (( (Comando[0]) + (Comando[1]) ) == Comando[2]){ // Prueba de checksum 
00C60:  MOVF   36,W
00C62:  ADDWF  35,W
00C64:  SUBWF  37,W
00C66:  BNZ   0C68
....................  
....................  
....................  
....................  
....................  
.................... } // if checksum 
00C68:  GOTO   0CA8 (RETURN)
.................... } //fn 
....................  
....................  
.................... void Teclado(){ 
....................  
.................... if (input(ARRIBA)==1 && input(ABAJO)==1 && input(OOKK)==1 && input(CANCEL)==1) Rebote = false; // Soltamos las teclas 
*
03228:  BSF    F93.0
0322A:  BTFSS  F81.0
0322C:  BRA    3242
0322E:  BSF    F93.1
03230:  BTFSS  F81.1
03232:  BRA    3242
03234:  BSF    F93.2
03236:  BTFSS  F81.2
03238:  BRA    3242
0323A:  BSF    F93.3
0323C:  BTFSS  F81.3
0323E:  BRA    3242
03240:  BCF    34.0
....................  
.................... if (Rebote == false){ // Tomamos el comando ya que el antirebote nos dice que esta ok 
03242:  BTFSC  34.0
03244:  BRA    360E
....................  
.................... switch (Menu){ 
03246:  MOVF   27,W
03248:  ADDLW  BF
0324A:  BTFSC  FD8.0
0324C:  BRA    360E
0324E:  ADDLW  41
03250:  GOTO   3612
....................  
.................... ////////////////////////////// Comienza Menu basico /////////////////////////// 
....................    case 0: 
....................    if (input(ARRIBA)==0 || input(ABAJO)==0 || input(OOKK)==0 || input(CANCEL)==0){ 
03254:  BSF    F93.0
03256:  BTFSS  F81.0
03258:  BRA    326C
0325A:  BSF    F93.1
0325C:  BTFSS  F81.1
0325E:  BRA    326C
03260:  BSF    F93.2
03262:  BTFSS  F81.2
03264:  BRA    326C
03266:  BSF    F93.3
03268:  BTFSC  F81.3
0326A:  BRA    3276
....................    Holding(); 
0326C:  GOTO   26BC
....................    Rebote = True; 
03270:  BSF    34.0
....................    Menu = 1; 
03272:  MOVLW  01
03274:  MOVWF  27
....................    } 
....................    break; 
03276:  BRA    360E
....................     
....................    case 1:  // Resumen ppal 
....................    if (input(OOKK)==0){ 
03278:  BSF    F93.2
0327A:  BTFSC  F81.2
0327C:  BRA    3284
....................    Rebote = True; 
0327E:  BSF    34.0
....................    Menu = 2; 
03280:  MOVLW  02
03282:  MOVWF  27
....................    } 
....................    if (input(CANCEL)==0){ 
03284:  BSF    F93.3
03286:  BTFSC  F81.3
03288:  BRA    328E
....................    Menu = 0; 
0328A:  CLRF   27
....................    Rebote = True; 
0328C:  BSF    34.0
....................    } 
....................    break; 
0328E:  BRA    360E
....................     
....................    case 2:  // Menu - Activar alarma 
....................    if (input(ARRIBA)==0){ 
03290:  BSF    F93.0
03292:  BTFSC  F81.0
03294:  BRA    3296
....................    } 
....................    if (input(ABAJO)==0){ 
03296:  BSF    F93.1
03298:  BTFSC  F81.1
0329A:  BRA    32A2
....................    Rebote = True; 
0329C:  BSF    34.0
....................    Menu = 3; 
0329E:  MOVLW  03
032A0:  MOVWF  27
....................    } 
....................    if (input(OOKK)==0){ 
032A2:  BSF    F93.2
032A4:  BTFSC  F81.2
032A6:  BRA    32AE
....................    Rebote = True; 
032A8:  BSF    34.0
....................    Menu = 21; 
032AA:  MOVLW  15
032AC:  MOVWF  27
....................    } 
....................    if (input(CANCEL)==0){ 
032AE:  BSF    F93.3
032B0:  BTFSC  F81.3
032B2:  BRA    32BA
....................    Rebote = True; 
032B4:  BSF    34.0
....................    Menu = 1; 
032B6:  MOVLW  01
032B8:  MOVWF  27
....................    } 
....................    break; 
032BA:  BRA    360E
....................     
....................    case 3: // Menu - Luces 
....................    if (input(ARRIBA)==0){ 
032BC:  BSF    F93.0
032BE:  BTFSC  F81.0
032C0:  BRA    32C8
....................    Rebote = True; 
032C2:  BSF    34.0
....................    Menu = 2; 
032C4:  MOVLW  02
032C6:  MOVWF  27
....................    } 
....................    if (input(ABAJO)==0){ 
032C8:  BSF    F93.1
032CA:  BTFSC  F81.1
032CC:  BRA    32D4
....................    Rebote = True; 
032CE:  BSF    34.0
....................    Menu = 4; 
032D0:  MOVLW  04
032D2:  MOVWF  27
....................    } 
....................    if (input(OOKK)==0){ 
032D4:  BSF    F93.2
032D6:  BTFSC  F81.2
032D8:  BRA    32E0
....................    Rebote = True; 
032DA:  BSF    34.0
....................    Menu = 31; 
032DC:  MOVLW  1F
032DE:  MOVWF  27
....................    } 
....................    if (input(CANCEL)==0){ 
032E0:  BSF    F93.3
032E2:  BTFSC  F81.3
032E4:  BRA    32EC
....................    Rebote = True; 
032E6:  BSF    34.0
....................    Menu = 1; 
032E8:  MOVLW  01
032EA:  MOVWF  27
....................    } 
....................    break; 
032EC:  BRA    360E
....................     
....................    case 4: // Menu - Casandra 
....................    if (input(ARRIBA)==0){ 
032EE:  BSF    F93.0
032F0:  BTFSC  F81.0
032F2:  BRA    32FA
....................    Rebote = True; 
032F4:  BSF    34.0
....................    Menu = 3; 
032F6:  MOVLW  03
032F8:  MOVWF  27
....................    } 
....................    if (input(ABAJO)==0){ 
032FA:  BSF    F93.1
032FC:  BTFSC  F81.1
032FE:  BRA    3306
....................    Rebote = True; 
03300:  BSF    34.0
....................    Menu = 5; 
03302:  MOVLW  05
03304:  MOVWF  27
....................    } 
....................    if (input(OOKK)==0){ 
03306:  BSF    F93.2
03308:  BTFSC  F81.2
0330A:  BRA    3312
....................    Rebote = True; 
0330C:  BSF    34.0
....................    Menu = 41; 
0330E:  MOVLW  29
03310:  MOVWF  27
....................    } 
....................    if (input(CANCEL)==0){ 
03312:  BSF    F93.3
03314:  BTFSC  F81.3
03316:  BRA    331E
....................    Rebote = True; 
03318:  BSF    34.0
....................    Menu = 1; 
0331A:  MOVLW  01
0331C:  MOVWF  27
....................    } 
....................    break; 
0331E:  BRA    360E
....................     
....................    case 5: // Menu - Grupo automatico 
....................    if (input(ARRIBA)==0){ 
03320:  BSF    F93.0
03322:  BTFSC  F81.0
03324:  BRA    332C
....................    Rebote = True; 
03326:  BSF    34.0
....................    Menu = 4; 
03328:  MOVLW  04
0332A:  MOVWF  27
....................    } 
....................    if (input(ABAJO)==0){ 
0332C:  BSF    F93.1
0332E:  BTFSC  F81.1
03330:  BRA    3338
....................    Rebote = True; 
03332:  BSF    34.0
....................    Menu = 6; 
03334:  MOVLW  06
03336:  MOVWF  27
....................    } 
....................    if (input(OOKK)==0){ 
03338:  BSF    F93.2
0333A:  BTFSC  F81.2
0333C:  BRA    3344
....................    Rebote = True; 
0333E:  BSF    34.0
....................    Menu = 51; 
03340:  MOVLW  33
03342:  MOVWF  27
....................    } 
....................    if (input(CANCEL)==0){ 
03344:  BSF    F93.3
03346:  BTFSC  F81.3
03348:  BRA    3350
....................    Rebote = True; 
0334A:  BSF    34.0
....................    Menu = 1; 
0334C:  MOVLW  01
0334E:  MOVWF  27
....................    } 
....................    break; 
03350:  BRA    360E
....................     
....................    case 6: // Menu - Luces 
....................    if (input(ARRIBA)==0){ 
03352:  BSF    F93.0
03354:  BTFSC  F81.0
03356:  BRA    335E
....................    Rebote = True; 
03358:  BSF    34.0
....................    Menu = 5; 
0335A:  MOVLW  05
0335C:  MOVWF  27
....................    } 
....................    if (input(ABAJO)==0){ 
0335E:  BSF    F93.1
03360:  BTFSC  F81.1
03362:  BRA    3364
....................    } 
....................    if (input(OOKK)==0){ 
03364:  BSF    F93.2
03366:  BTFSC  F81.2
03368:  BRA    3370
....................    Rebote = True; 
0336A:  BSF    34.0
....................    Menu = 61; 
0336C:  MOVLW  3D
0336E:  MOVWF  27
....................    } 
....................    if (input(CANCEL)==0){ 
03370:  BSF    F93.3
03372:  BTFSC  F81.3
03374:  BRA    337C
....................    Rebote = True; 
03376:  BSF    34.0
....................    Menu = 1; 
03378:  MOVLW  01
0337A:  MOVWF  27
....................    } 
....................    break; 
0337C:  BRA    360E
....................     
....................  
....................  
.................... ///////////////////////////////////////////// Comienza menu alarma ///////// 
....................  
....................    case 21: // Menu - ALARMA Total 
....................    if (input(ARRIBA)==0){ 
0337E:  BSF    F93.0
03380:  BTFSC  F81.0
03382:  BRA    3384
....................    } 
....................    if (input(ABAJO)==0){ 
03384:  BSF    F93.1
03386:  BTFSC  F81.1
03388:  BRA    3390
....................    Rebote = True; 
0338A:  BSF    34.0
....................    Menu = 22; 
0338C:  MOVLW  16
0338E:  MOVWF  27
....................    } 
....................    if (input(OOKK)==0){ 
03390:  BSF    F93.2
03392:  BTFSC  F81.2
03394:  BRA    339C
....................    Rebote = True; 
03396:  BSF    34.0
....................    Menu = 121; 
03398:  MOVLW  79
0339A:  MOVWF  27
....................    } 
....................    if (input(CANCEL)==0){ 
0339C:  BSF    F93.3
0339E:  BTFSC  F81.3
033A0:  BRA    33A8
....................    Rebote = True; 
033A2:  BSF    34.0
....................    Menu = 2; 
033A4:  MOVLW  02
033A6:  MOVWF  27
....................    } 
....................    break; 
033A8:  BRA    360E
....................     
....................    case 22: // Menu - Alarma noche suave 
....................    if (input(ARRIBA)==0){ 
033AA:  BSF    F93.0
033AC:  BTFSC  F81.0
033AE:  BRA    33B6
....................    Rebote = True; 
033B0:  BSF    34.0
....................    Menu = 21; 
033B2:  MOVLW  15
033B4:  MOVWF  27
....................    } 
....................    if (input(ABAJO)==0){ 
033B6:  BSF    F93.1
033B8:  BTFSC  F81.1
033BA:  BRA    33C2
....................    Rebote = True; 
033BC:  BSF    34.0
....................    Menu = 23; 
033BE:  MOVLW  17
033C0:  MOVWF  27
....................    } 
....................    if (input(OOKK)==0){ 
033C2:  BSF    F93.2
033C4:  BTFSC  F81.2
033C6:  BRA    33CE
....................    Rebote = True; 
033C8:  BSF    34.0
....................    Menu = 122; 
033CA:  MOVLW  7A
033CC:  MOVWF  27
....................    } 
....................    if (input(CANCEL)==0){ 
033CE:  BSF    F93.3
033D0:  BTFSC  F81.3
033D2:  BRA    33DA
....................    Rebote = True; 
033D4:  BSF    34.0
....................    Menu = 2; 
033D6:  MOVLW  02
033D8:  MOVWF  27
....................    } 
....................    break; 
033DA:  BRA    360E
....................     
....................    case 23: // Menu - Alarma noche dura 
....................    if (input(ARRIBA)==0){ 
033DC:  BSF    F93.0
033DE:  BTFSC  F81.0
033E0:  BRA    33E8
....................    Rebote = True; 
033E2:  BSF    34.0
....................    Menu = 22; 
033E4:  MOVLW  16
033E6:  MOVWF  27
....................    } 
....................    if (input(ABAJO)==0){ 
033E8:  BSF    F93.1
033EA:  BTFSC  F81.1
033EC:  BRA    33F4
....................    Rebote = True; 
033EE:  BSF    34.0
....................    Menu = 24; 
033F0:  MOVLW  18
033F2:  MOVWF  27
....................    } 
....................    if (input(OOKK)==0){ 
033F4:  BSF    F93.2
033F6:  BTFSC  F81.2
033F8:  BRA    3400
....................    Rebote = True; 
033FA:  BSF    34.0
....................    Menu = 123; 
033FC:  MOVLW  7B
033FE:  MOVWF  27
....................    } 
....................    if (input(CANCEL)==0){ 
03400:  BSF    F93.3
03402:  BTFSC  F81.3
03404:  BRA    340C
....................    Rebote = True; 
03406:  BSF    34.0
....................    Menu = 2; 
03408:  MOVLW  02
0340A:  MOVWF  27
....................    } 
....................    break; 
0340C:  BRA    360E
....................     
....................    case 24: // Menu - Alarma conf 
....................    if (input(ARRIBA)==0){ 
0340E:  BSF    F93.0
03410:  BTFSC  F81.0
03412:  BRA    341A
....................    Rebote = True; 
03414:  BSF    34.0
....................    Menu = 23; 
03416:  MOVLW  17
03418:  MOVWF  27
....................    } 
....................    if (input(ABAJO)==0){ 
0341A:  BSF    F93.1
0341C:  BTFSC  F81.1
0341E:  BRA    3420
....................    } 
....................    if (input(OOKK)==0){ 
03420:  BSF    F93.2
03422:  BTFSC  F81.2
03424:  BRA    342C
....................    Rebote = True; 
03426:  BSF    34.0
....................    Menu = 124; 
03428:  MOVLW  7C
0342A:  MOVWF  27
....................    } 
....................    if (input(CANCEL)==0){ 
0342C:  BSF    F93.3
0342E:  BTFSC  F81.3
03430:  BRA    3438
....................    Rebote = True; 
03432:  BSF    34.0
....................    Menu = 2; 
03434:  MOVLW  02
03436:  MOVWF  27
....................    } 
....................    break; 
03438:  BRA    360E
....................     
....................  
.................... ///////////////////////////////////////////// Comienza menu de Luces ///////// 
....................  
....................    case 31: // Menu - Grupo automatico 
....................    if (input(ARRIBA)==0){ 
0343A:  BSF    F93.0
0343C:  BTFSC  F81.0
0343E:  BRA    3440
....................    } 
....................    if (input(ABAJO)==0){ 
03440:  BSF    F93.1
03442:  BTFSC  F81.1
03444:  BRA    344C
....................    Rebote = True; 
03446:  BSF    34.0
....................    Menu = 32; 
03448:  MOVLW  20
0344A:  MOVWF  27
....................    } 
....................    if (input(OOKK)==0){ 
0344C:  BSF    F93.2
0344E:  BTFSC  F81.2
03450:  BRA    3458
....................    Rebote = True; 
03452:  BSF    34.0
....................    Menu = 131; 
03454:  MOVLW  83
03456:  MOVWF  27
....................    } 
....................    if (input(CANCEL)==0){ 
03458:  BSF    F93.3
0345A:  BTFSC  F81.3
0345C:  BRA    3464
....................    Rebote = True; 
0345E:  BSF    34.0
....................    Menu = 3; 
03460:  MOVLW  03
03462:  MOVWF  27
....................    } 
....................    break; 
03464:  BRA    360E
....................     
....................    case 32: // Menu - Grupo automatico 
....................    if (input(ARRIBA)==0){ 
03466:  BSF    F93.0
03468:  BTFSC  F81.0
0346A:  BRA    3472
....................    Rebote = True; 
0346C:  BSF    34.0
....................    Menu = 31; 
0346E:  MOVLW  1F
03470:  MOVWF  27
....................    } 
....................    if (input(ABAJO)==0){ 
03472:  BSF    F93.1
03474:  BTFSC  F81.1
03476:  BRA    347E
....................    Rebote = True; 
03478:  BSF    34.0
....................    Menu = 33; 
0347A:  MOVLW  21
0347C:  MOVWF  27
....................    } 
....................    if (input(OOKK)==0){ 
0347E:  BSF    F93.2
03480:  BTFSC  F81.2
03482:  BRA    348A
....................    Rebote = True; 
03484:  BSF    34.0
....................    Menu = 132; 
03486:  MOVLW  84
03488:  MOVWF  27
....................    } 
....................    if (input(CANCEL)==0){ 
0348A:  BSF    F93.3
0348C:  BTFSC  F81.3
0348E:  BRA    3496
....................    Rebote = True; 
03490:  BSF    34.0
....................    Menu = 3; 
03492:  MOVLW  03
03494:  MOVWF  27
....................    } 
....................    break; 
03496:  BRA    360E
....................     
....................    case 33: // Menu - Grupo automatico 
....................    if (input(ARRIBA)==0){ 
03498:  BSF    F93.0
0349A:  BTFSC  F81.0
0349C:  BRA    34A4
....................    Rebote = True; 
0349E:  BSF    34.0
....................    Menu = 32; 
034A0:  MOVLW  20
034A2:  MOVWF  27
....................    } 
....................    if (input(ABAJO)==0){ 
034A4:  BSF    F93.1
034A6:  BTFSC  F81.1
034A8:  BRA    34AA
....................    } 
....................    if (input(OOKK)==0){ 
034AA:  BSF    F93.2
034AC:  BTFSC  F81.2
034AE:  BRA    34B6
....................    Rebote = True; 
034B0:  BSF    34.0
....................    Menu = 133; 
034B2:  MOVLW  85
034B4:  MOVWF  27
....................    } 
....................    if (input(CANCEL)==0){ 
034B6:  BSF    F93.3
034B8:  BTFSC  F81.3
034BA:  BRA    34C2
....................    Rebote = True; 
034BC:  BSF    34.0
....................    Menu = 3; 
034BE:  MOVLW  03
034C0:  MOVWF  27
....................    } 
....................    break; 
034C2:  BRA    360E
....................     
....................  
....................  
.................... /*//////////////////////////////////////////// Comienza menu de Casandra ///////// 
....................  
....................    case 41: // Menu - Grupo automatico 
....................    if (input(ARRIBA)==0){ 
....................    } 
....................    if (input(ABAJO)==0){ 
....................    Rebote = True; 
....................    Menu = 42; 
....................    } 
....................    if (input(OOKK)==0){ 
....................    Rebote = True; 
....................    Menu = 141; 
....................    } 
....................    if (input(CANCEL)==0){ 
....................    Rebote = True; 
....................    Menu = 4; 
....................    } 
....................    break; 
....................     
....................    case 42: // Menu - Grupo automatico 
....................    if (input(ARRIBA)==0){ 
....................    Rebote = True; 
....................    Menu = 41; 
....................    } 
....................    if (input(ABAJO)==0){ 
....................    Rebote = True; 
....................    Menu = 43; 
....................    } 
....................    if (input(OOKK)==0){ 
....................    Rebote = True; 
....................    Menu = 142; 
....................    } 
....................    if (input(CANCEL)==0){ 
....................    Rebote = True; 
....................    Menu = 4; 
....................    } 
....................    break; 
....................     
....................    case 43: // Menu - Grupo automatico 
....................    if (input(ARRIBA)==0){ 
....................    Rebote = True; 
....................    Menu = 42; 
....................    } 
....................    if (input(ABAJO)==0){ 
....................    Rebote = True; 
....................    Menu = 44; 
....................    } 
....................    if (input(OOKK)==0){ 
....................    Rebote = True; 
....................    Menu = 143; 
....................    } 
....................    if (input(CANCEL)==0){ 
....................    Rebote = True; 
....................    Menu = 4; 
....................    } 
....................    break; 
....................     
....................    case 44: // Menu - Grupo automatico 
....................    if (input(ARRIBA)==0){ 
....................    Rebote = True; 
....................    Menu = 43; 
....................    } 
....................    if (input(ABAJO)==0){ 
....................    } 
....................    if (input(OOKK)==0){ 
....................    Rebote = True; 
....................    Menu = 144; 
....................    } 
....................    if (input(CANCEL)==0){ 
....................    Rebote = True; 
....................    Menu = 4; 
....................    } 
....................    break; 
....................     
.................... */ 
....................  
.................... ///////////////////////////////////////////// Comienza menu del Automatico ///////// 
....................  
....................    case 51: // Menu - Grupo automatico 
....................    if (input(ARRIBA)==0){ 
034C4:  BSF    F93.0
034C6:  BTFSC  F81.0
034C8:  BRA    34CA
....................    } 
....................    if (input(ABAJO)==0){ 
034CA:  BSF    F93.1
034CC:  BTFSC  F81.1
034CE:  BRA    34D6
....................    Rebote = True; 
034D0:  BSF    34.0
....................    Menu = 52; 
034D2:  MOVLW  34
034D4:  MOVWF  27
....................    } 
....................    if (input(OOKK)==0){ 
034D6:  BSF    F93.2
034D8:  BTFSC  F81.2
034DA:  BRA    34E2
....................    Rebote = True; 
034DC:  BSF    34.0
....................    Menu = 151; 
034DE:  MOVLW  97
034E0:  MOVWF  27
....................    } 
....................    if (input(CANCEL)==0){ 
034E2:  BSF    F93.3
034E4:  BTFSC  F81.3
034E6:  BRA    34EE
....................    Rebote = True; 
034E8:  BSF    34.0
....................    Menu = 5; 
034EA:  MOVLW  05
034EC:  MOVWF  27
....................    } 
....................    break; 
034EE:  BRA    360E
....................     
....................    case 52: // Menu - Grupo automatico 
....................    if (input(ARRIBA)==0){ 
034F0:  BSF    F93.0
034F2:  BTFSC  F81.0
034F4:  BRA    34FC
....................    Rebote = True; 
034F6:  BSF    34.0
....................    Menu = 51; 
034F8:  MOVLW  33
034FA:  MOVWF  27
....................    } 
....................    if (input(ABAJO)==0){ 
034FC:  BSF    F93.1
034FE:  BTFSC  F81.1
03500:  BRA    3508
....................    Rebote = True; 
03502:  BSF    34.0
....................    Menu = 53; 
03504:  MOVLW  35
03506:  MOVWF  27
....................    } 
....................    if (input(OOKK)==0){ 
03508:  BSF    F93.2
0350A:  BTFSC  F81.2
0350C:  BRA    3514
....................    Rebote = True; 
0350E:  BSF    34.0
....................    Menu = 152; 
03510:  MOVLW  98
03512:  MOVWF  27
....................    } 
....................    if (input(CANCEL)==0){ 
03514:  BSF    F93.3
03516:  BTFSC  F81.3
03518:  BRA    3520
....................    Rebote = True; 
0351A:  BSF    34.0
....................    Menu = 5; 
0351C:  MOVLW  05
0351E:  MOVWF  27
....................    } 
....................    break; 
03520:  BRA    360E
....................     
....................    case 53: // Menu - Grupo automatico 
....................    if (input(ARRIBA)==0){ 
03522:  BSF    F93.0
03524:  BTFSC  F81.0
03526:  BRA    352E
....................    Rebote = True; 
03528:  BSF    34.0
....................    Menu = 52; 
0352A:  MOVLW  34
0352C:  MOVWF  27
....................    } 
....................    if (input(ABAJO)==0){ 
0352E:  BSF    F93.1
03530:  BTFSC  F81.1
03532:  BRA    3534
....................    } 
....................    if (input(OOKK)==0){ 
03534:  BSF    F93.2
03536:  BTFSC  F81.2
03538:  BRA    3540
....................    Rebote = True; 
0353A:  BSF    34.0
....................    Menu = 153; 
0353C:  MOVLW  99
0353E:  MOVWF  27
....................    } 
....................    if (input(CANCEL)==0){ 
03540:  BSF    F93.3
03542:  BTFSC  F81.3
03544:  BRA    354C
....................    Rebote = True; 
03546:  BSF    34.0
....................    Menu = 5; 
03548:  MOVLW  05
0354A:  MOVWF  27
....................    } 
....................    break; 
0354C:  BRA    360E
....................     
....................  
.................... ///////////////////////////////////////////// Comienza menu de Configuracion ///////// 
....................  
....................    case 61: // Menu - Grupo automatico 
....................    if (input(ARRIBA)==0){ 
0354E:  BSF    F93.0
03550:  BTFSC  F81.0
03552:  BRA    3554
....................    } 
....................    if (input(ABAJO)==0){ 
03554:  BSF    F93.1
03556:  BTFSC  F81.1
03558:  BRA    3560
....................    Rebote = True; 
0355A:  BSF    34.0
....................    Menu = 62; 
0355C:  MOVLW  3E
0355E:  MOVWF  27
....................    } 
....................    if (input(OOKK)==0){ 
03560:  BSF    F93.2
03562:  BTFSC  F81.2
03564:  BRA    356C
....................    Rebote = True; 
03566:  BSF    34.0
....................    Menu = 161; 
03568:  MOVLW  A1
0356A:  MOVWF  27
....................    } 
....................    if (input(CANCEL)==0){ 
0356C:  BSF    F93.3
0356E:  BTFSC  F81.3
03570:  BRA    3578
....................    Rebote = True; 
03572:  BSF    34.0
....................    Menu = 6; 
03574:  MOVLW  06
03576:  MOVWF  27
....................    } 
....................    break; 
03578:  BRA    360E
....................     
....................    case 62: // Menu - Grupo automatico 
....................    if (input(ARRIBA)==0){ 
0357A:  BSF    F93.0
0357C:  BTFSC  F81.0
0357E:  BRA    3586
....................    Rebote = True; 
03580:  BSF    34.0
....................    Menu = 61; 
03582:  MOVLW  3D
03584:  MOVWF  27
....................    } 
....................    if (input(ABAJO)==0){ 
03586:  BSF    F93.1
03588:  BTFSC  F81.1
0358A:  BRA    3592
....................    Rebote = True; 
0358C:  BSF    34.0
....................    Menu = 63; 
0358E:  MOVLW  3F
03590:  MOVWF  27
....................    } 
....................    if (input(OOKK)==0){ 
03592:  BSF    F93.2
03594:  BTFSC  F81.2
03596:  BRA    359E
....................    Rebote = True; 
03598:  BSF    34.0
....................    Menu = 162; 
0359A:  MOVLW  A2
0359C:  MOVWF  27
....................    } 
....................    if (input(CANCEL)==0){ 
0359E:  BSF    F93.3
035A0:  BTFSC  F81.3
035A2:  BRA    35AA
....................    Rebote = True; 
035A4:  BSF    34.0
....................    Menu = 6; 
035A6:  MOVLW  06
035A8:  MOVWF  27
....................    } 
....................    break; 
035AA:  BRA    360E
....................     
....................    case 63: // Menu - Grupo automatico 
....................    if (input(ARRIBA)==0){ 
035AC:  BSF    F93.0
035AE:  BTFSC  F81.0
035B0:  BRA    35B8
....................    Rebote = True; 
035B2:  BSF    34.0
....................    Menu = 62; 
035B4:  MOVLW  3E
035B6:  MOVWF  27
....................    } 
....................    if (input(ABAJO)==0){ 
035B8:  BSF    F93.1
035BA:  BTFSC  F81.1
035BC:  BRA    35C4
....................    Rebote = True; 
035BE:  BSF    34.0
....................    Menu = 64; 
035C0:  MOVLW  40
035C2:  MOVWF  27
....................    } 
....................    if (input(OOKK)==0){ 
035C4:  BSF    F93.2
035C6:  BTFSC  F81.2
035C8:  BRA    35D0
....................    Rebote = True; 
035CA:  BSF    34.0
....................    Menu = 163; 
035CC:  MOVLW  A3
035CE:  MOVWF  27
....................    } 
....................    if (input(CANCEL)==0){ 
035D0:  BSF    F93.3
035D2:  BTFSC  F81.3
035D4:  BRA    35DC
....................    Rebote = True; 
035D6:  BSF    34.0
....................    Menu = 6; 
035D8:  MOVLW  06
035DA:  MOVWF  27
....................    } 
....................    break; 
035DC:  BRA    360E
....................     
....................    case 64: // Menu - Grupo automatico 
....................    if (input(ARRIBA)==0){ 
035DE:  BSF    F93.0
035E0:  BTFSC  F81.0
035E2:  BRA    35EA
....................    Rebote = True; 
035E4:  BSF    34.0
....................    Menu = 63; 
035E6:  MOVLW  3F
035E8:  MOVWF  27
....................    } 
....................    if (input(ABAJO)==0){ 
035EA:  BSF    F93.1
035EC:  BTFSC  F81.1
035EE:  BRA    35F0
....................    } 
....................    if (input(OOKK)==0){ 
035F0:  BSF    F93.2
035F2:  BTFSC  F81.2
035F4:  BRA    35FC
....................    Rebote = True; 
035F6:  BSF    34.0
....................    Menu = 164; 
035F8:  MOVLW  A4
035FA:  MOVWF  27
....................    } 
....................    if (input(CANCEL)==0){ 
035FC:  BSF    F93.3
035FE:  BTFSC  F81.3
03600:  BRA    3608
....................    Rebote = True; 
03602:  BSF    34.0
....................    Menu = 6; 
03604:  MOVLW  06
03606:  MOVWF  27
....................    } 
....................    break; 
03608:  BRA    360E
....................     
.................... Pantalla(); // Actualizamos la pantalla 
0360A:  CALL   27C2
....................  
.................... } // switch 
.................... } // if del antirebote 
0360E:  GOTO   919E (RETURN)
.................... } // Fn 
....................  
.................... void Pantalla(){ 
....................  
.................... switch (Menu){ 
*
027C2:  MOVF   27,W
027C4:  ADDLW  BF
027C6:  BTFSC  FD8.0
027C8:  GOTO   318A
027CC:  ADDLW  41
027CE:  GOTO   318C
....................  
....................    case 0: 
....................    output_high(LCDLED); 
027D2:  BCF    F95.6
027D4:  BSF    F8C.6
....................    lcd_putc("\f"); // Limpiamos la pantalla, por este motivo solo la llamamos cuando es necesario 
027D6:  MOVLW  14
027D8:  MOVWF  FF6
027DA:  MOVLW  16
027DC:  MOVWF  FF7
027DE:  RCALL  24DC
....................    break; 
027E0:  GOTO   318A
....................  
....................    case 1: 
.................... //   output_low(LCDLED); 
....................    lcd_gotoxy(1,1); 
027E4:  MOVLW  01
027E6:  MOVLB  1
027E8:  MOVWF  x2B
027EA:  MOVWF  x2C
027EC:  MOVLB  0
027EE:  RCALL  240A
....................    printf(lcd_putc, "%c%c%c %02u %c%c%c  %02u:%02u:%02u", Dia[0], Dia[1], Dia[2], day, Mes[0], Mes[1], Mes[2], hrs, min, sec); 
027F0:  MOVFF  3A,12A
027F4:  RCALL  2474
027F6:  MOVFF  3B,12A
027FA:  RCALL  2474
027FC:  MOVFF  3C,12A
02800:  RCALL  2474
02802:  MOVLW  20
02804:  MOVLB  1
02806:  MOVWF  x2A
02808:  MOVLB  0
0280A:  RCALL  2474
0280C:  MOVFF  23,127
02810:  MOVLW  01
02812:  MOVLB  1
02814:  MOVWF  x28
02816:  MOVLB  0
02818:  RCALL  271E
0281A:  MOVLW  20
0281C:  MOVLB  1
0281E:  MOVWF  x2A
02820:  MOVLB  0
02822:  RCALL  2474
02824:  MOVFF  3E,12A
02828:  RCALL  2474
0282A:  MOVFF  3F,12A
0282E:  RCALL  2474
02830:  MOVFF  40,12A
02834:  RCALL  2474
02836:  MOVLW  20
02838:  MOVLB  1
0283A:  MOVWF  x2A
0283C:  MOVLB  0
0283E:  RCALL  2474
02840:  MOVLW  20
02842:  MOVLB  1
02844:  MOVWF  x2A
02846:  MOVLB  0
02848:  RCALL  2474
0284A:  MOVFF  22,127
0284E:  MOVLW  01
02850:  MOVLB  1
02852:  MOVWF  x28
02854:  MOVLB  0
02856:  RCALL  271E
02858:  MOVLW  3A
0285A:  MOVLB  1
0285C:  MOVWF  x2A
0285E:  MOVLB  0
02860:  RCALL  2474
02862:  MOVFF  21,127
02866:  MOVLW  01
02868:  MOVLB  1
0286A:  MOVWF  x28
0286C:  MOVLB  0
0286E:  RCALL  271E
02870:  MOVLW  3A
02872:  MOVLB  1
02874:  MOVWF  x2A
02876:  MOVLB  0
02878:  RCALL  2474
0287A:  MOVFF  20,127
0287E:  MOVLW  01
02880:  MOVLB  1
02882:  MOVWF  x28
02884:  MOVLB  0
02886:  RCALL  271E
....................    lcd_gotoxy(1,2); 
02888:  MOVLW  01
0288A:  MOVLB  1
0288C:  MOVWF  x2B
0288E:  MOVLW  02
02890:  MOVWF  x2C
02892:  MOVLB  0
02894:  RCALL  240A
....................    printf(lcd_putc, " Temp:  %02u%cC / %02u%cC  ", TempIn, 210, TempOut, 210); 
02896:  MOVLW  16
02898:  MOVWF  FF6
0289A:  MOVLW  16
0289C:  MOVWF  FF7
0289E:  MOVLW  08
028A0:  MOVLB  1
028A2:  MOVWF  x27
028A4:  MOVLB  0
028A6:  RCALL  279A
028A8:  MOVFF  1C,127
028AC:  MOVLW  01
028AE:  MOVLB  1
028B0:  MOVWF  x28
028B2:  MOVLB  0
028B4:  RCALL  271E
028B6:  MOVLW  D2
028B8:  MOVLB  1
028BA:  MOVWF  x2A
028BC:  MOVLB  0
028BE:  RCALL  2474
028C0:  MOVLW  24
028C2:  MOVWF  FF6
028C4:  MOVLW  16
028C6:  MOVWF  FF7
028C8:  MOVLW  04
028CA:  MOVLB  1
028CC:  MOVWF  x27
028CE:  MOVLB  0
028D0:  RCALL  279A
028D2:  MOVFF  42,127
028D6:  MOVLW  01
028D8:  MOVLB  1
028DA:  MOVWF  x28
028DC:  MOVLB  0
028DE:  RCALL  271E
028E0:  MOVLW  D2
028E2:  MOVLB  1
028E4:  MOVWF  x2A
028E6:  MOVLB  0
028E8:  RCALL  2474
028EA:  MOVLW  2E
028EC:  MOVWF  FF6
028EE:  MOVLW  16
028F0:  MOVWF  FF7
028F2:  MOVLW  03
028F4:  MOVLB  1
028F6:  MOVWF  x27
028F8:  MOVLB  0
028FA:  RCALL  279A
....................    lcd_gotoxy(1,3); 
028FC:  MOVLW  01
028FE:  MOVLB  1
02900:  MOVWF  x2B
02902:  MOVLW  03
02904:  MOVWF  x2C
02906:  MOVLB  0
02908:  RCALL  240A
....................    printf(lcd_putc, " HR: %02u%%   Sol: %3u ", Hum, Sol); 
0290A:  MOVLW  32
0290C:  MOVWF  FF6
0290E:  MOVLW  16
02910:  MOVWF  FF7
02912:  MOVLW  05
02914:  MOVLB  1
02916:  MOVWF  x27
02918:  MOVLB  0
0291A:  RCALL  279A
0291C:  MOVFF  1A,127
02920:  MOVLW  01
02922:  MOVLB  1
02924:  MOVWF  x28
02926:  MOVLB  0
02928:  RCALL  271E
0292A:  MOVLW  25
0292C:  MOVLB  1
0292E:  MOVWF  x2A
02930:  MOVLB  0
02932:  RCALL  2474
02934:  MOVLW  3D
02936:  MOVWF  FF6
02938:  MOVLW  16
0293A:  MOVWF  FF7
0293C:  MOVLW  08
0293E:  MOVLB  1
02940:  MOVWF  x27
02942:  MOVLB  0
02944:  RCALL  279A
02946:  MOVFF  43,127
0294A:  MOVLW  13
0294C:  MOVLB  1
0294E:  MOVWF  x28
02950:  MOVLB  0
02952:  RCALL  271E
02954:  MOVLW  20
02956:  MOVLB  1
02958:  MOVWF  x2A
0295A:  MOVLB  0
0295C:  RCALL  2474
....................    lcd_gotoxy(1,4); 
0295E:  MOVLW  01
02960:  MOVLB  1
02962:  MOVWF  x2B
02964:  MOVLW  04
02966:  MOVWF  x2C
02968:  MOVLB  0
0296A:  RCALL  240A
....................    if (EstadoAl==1)  printf(lcd_putc, "Alarma: Desactivada "); 
0296C:  DECFSZ 44,W
0296E:  BRA    297A
02970:  MOVLW  4A
02972:  MOVWF  FF6
02974:  MOVLW  16
02976:  MOVWF  FF7
02978:  RCALL  24DC
....................    if (EstadoAl==3)  printf(lcd_putc, "Alarma: TOTAL Activa"); 
0297A:  MOVF   44,W
0297C:  SUBLW  03
0297E:  BNZ   298A
02980:  MOVLW  60
02982:  MOVWF  FF6
02984:  MOVLW  16
02986:  MOVWF  FF7
02988:  RCALL  24DC
....................    if (EstadoAl==4)  printf(lcd_putc, "Alarma: NOCTURNA Act"); 
0298A:  MOVF   44,W
0298C:  SUBLW  04
0298E:  BNZ   299A
02990:  MOVLW  76
02992:  MOVWF  FF6
02994:  MOVLW  16
02996:  MOVWF  FF7
02998:  RCALL  24DC
....................    if (EstadoAl==5)  printf(lcd_putc, "Alarma: EXTERIOR Act"); 
0299A:  MOVF   44,W
0299C:  SUBLW  05
0299E:  BNZ   29AA
029A0:  MOVLW  8C
029A2:  MOVWF  FF6
029A4:  MOVLW  16
029A6:  MOVWF  FF7
029A8:  RCALL  24DC
....................    break; 
029AA:  GOTO   318A
....................  
....................    case 2: 
.................... //   Tiempo(); // Tomo el tiempo 
.................... //   Ambiente(); // Tomo las variables ambientales (incluidas las remotas con cuidado de no saturar el bus) 
.................... //   output_low(LCDLED); 
....................    lcd_gotoxy(1,1); 
029AE:  MOVLW  01
029B0:  MOVLB  1
029B2:  MOVWF  x2B
029B4:  MOVWF  x2C
029B6:  MOVLB  0
029B8:  RCALL  240A
....................    printf(lcd_putc, "======= MENU ======="); 
029BA:  MOVLW  A2
029BC:  MOVWF  FF6
029BE:  MOVLW  16
029C0:  MOVWF  FF7
029C2:  RCALL  24DC
....................    lcd_gotoxy(1,2); 
029C4:  MOVLW  01
029C6:  MOVLB  1
029C8:  MOVWF  x2B
029CA:  MOVLW  02
029CC:  MOVWF  x2C
029CE:  MOVLB  0
029D0:  RCALL  240A
....................    printf(lcd_putc, " ~ (1) Alarma       "); 
029D2:  MOVLW  B8
029D4:  MOVWF  FF6
029D6:  MOVLW  16
029D8:  MOVWF  FF7
029DA:  RCALL  24DC
....................    lcd_gotoxy(1,3); 
029DC:  MOVLW  01
029DE:  MOVLB  1
029E0:  MOVWF  x2B
029E2:  MOVLW  03
029E4:  MOVWF  x2C
029E6:  MOVLB  0
029E8:  RCALL  240A
....................    printf(lcd_putc, "   (2) Luces        "); 
029EA:  MOVLW  CE
029EC:  MOVWF  FF6
029EE:  MOVLW  16
029F0:  MOVWF  FF7
029F2:  RCALL  24DC
....................    lcd_gotoxy(1,4); 
029F4:  MOVLW  01
029F6:  MOVLB  1
029F8:  MOVWF  x2B
029FA:  MOVLW  04
029FC:  MOVWF  x2C
029FE:  MOVLB  0
02A00:  RCALL  240A
....................    printf(lcd_putc, "   (3) Casandra     "); 
02A02:  MOVLW  E4
02A04:  MOVWF  FF6
02A06:  MOVLW  16
02A08:  MOVWF  FF7
02A0A:  RCALL  24DC
....................    break; 
02A0C:  GOTO   318A
....................  
....................    case 3: 
.................... //   Tiempo(); // Tomo el tiempo 
.................... //   Ambiente(); // Tomo las variables ambientales (incluidas las remotas con cuidado de no saturar el bus) 
.................... //   output_low(LCDLED); 
....................    lcd_gotoxy(1,1); 
02A10:  MOVLW  01
02A12:  MOVLB  1
02A14:  MOVWF  x2B
02A16:  MOVWF  x2C
02A18:  MOVLB  0
02A1A:  RCALL  240A
....................    printf(lcd_putc, "======= MENU ======="); 
02A1C:  MOVLW  FA
02A1E:  MOVWF  FF6
02A20:  MOVLW  16
02A22:  MOVWF  FF7
02A24:  RCALL  24DC
....................    lcd_gotoxy(1,2); 
02A26:  MOVLW  01
02A28:  MOVLB  1
02A2A:  MOVWF  x2B
02A2C:  MOVLW  02
02A2E:  MOVWF  x2C
02A30:  MOVLB  0
02A32:  RCALL  240A
....................    printf(lcd_putc, "   (1) Alarma       "); 
02A34:  MOVLW  10
02A36:  MOVWF  FF6
02A38:  MOVLW  17
02A3A:  MOVWF  FF7
02A3C:  RCALL  24DC
....................    lcd_gotoxy(1,3); 
02A3E:  MOVLW  01
02A40:  MOVLB  1
02A42:  MOVWF  x2B
02A44:  MOVLW  03
02A46:  MOVWF  x2C
02A48:  MOVLB  0
02A4A:  RCALL  240A
....................    printf(lcd_putc, " ~ (2) Luces        "); 
02A4C:  MOVLW  26
02A4E:  MOVWF  FF6
02A50:  MOVLW  17
02A52:  MOVWF  FF7
02A54:  RCALL  24DC
....................    lcd_gotoxy(1,4); 
02A56:  MOVLW  01
02A58:  MOVLB  1
02A5A:  MOVWF  x2B
02A5C:  MOVLW  04
02A5E:  MOVWF  x2C
02A60:  MOVLB  0
02A62:  RCALL  240A
....................    printf(lcd_putc, "   (3) Casandra     "); 
02A64:  MOVLW  3C
02A66:  MOVWF  FF6
02A68:  MOVLW  17
02A6A:  MOVWF  FF7
02A6C:  RCALL  24DC
....................    break; 
02A6E:  BRA    318A
....................  
....................    case 4: 
.................... //   Tiempo(); // Tomo el tiempo 
.................... //   Ambiente(); // Tomo las variables ambientales (incluidas las remotas con cuidado de no saturar el bus) 
.................... //   output_low(LCDLED); 
....................    lcd_gotoxy(1,1); 
02A70:  MOVLW  01
02A72:  MOVLB  1
02A74:  MOVWF  x2B
02A76:  MOVWF  x2C
02A78:  MOVLB  0
02A7A:  RCALL  240A
....................    printf(lcd_putc, "======= MENU ======="); 
02A7C:  MOVLW  52
02A7E:  MOVWF  FF6
02A80:  MOVLW  17
02A82:  MOVWF  FF7
02A84:  RCALL  24DC
....................    lcd_gotoxy(1,2); 
02A86:  MOVLW  01
02A88:  MOVLB  1
02A8A:  MOVWF  x2B
02A8C:  MOVLW  02
02A8E:  MOVWF  x2C
02A90:  MOVLB  0
02A92:  RCALL  240A
....................    printf(lcd_putc, "   (2) Luces        "); 
02A94:  MOVLW  68
02A96:  MOVWF  FF6
02A98:  MOVLW  17
02A9A:  MOVWF  FF7
02A9C:  RCALL  24DC
....................    lcd_gotoxy(1,3); 
02A9E:  MOVLW  01
02AA0:  MOVLB  1
02AA2:  MOVWF  x2B
02AA4:  MOVLW  03
02AA6:  MOVWF  x2C
02AA8:  MOVLB  0
02AAA:  RCALL  240A
....................    printf(lcd_putc, " ~ (3) Casandra     "); 
02AAC:  MOVLW  7E
02AAE:  MOVWF  FF6
02AB0:  MOVLW  17
02AB2:  MOVWF  FF7
02AB4:  RCALL  24DC
....................    lcd_gotoxy(1,4); 
02AB6:  MOVLW  01
02AB8:  MOVLB  1
02ABA:  MOVWF  x2B
02ABC:  MOVLW  04
02ABE:  MOVWF  x2C
02AC0:  MOVLB  0
02AC2:  RCALL  240A
....................    printf(lcd_putc, "   (4) Automatico   "); 
02AC4:  MOVLW  94
02AC6:  MOVWF  FF6
02AC8:  MOVLW  17
02ACA:  MOVWF  FF7
02ACC:  RCALL  24DC
....................    break; 
02ACE:  BRA    318A
....................  
....................    case 5: 
.................... //   Tiempo(); // Tomo el tiempo 
.................... //   Ambiente(); // Tomo las variables ambientales (incluidas las remotas con cuidado de no saturar el bus) 
.................... //   output_low(LCDLED); 
....................    lcd_gotoxy(1,1); 
02AD0:  MOVLW  01
02AD2:  MOVLB  1
02AD4:  MOVWF  x2B
02AD6:  MOVWF  x2C
02AD8:  MOVLB  0
02ADA:  RCALL  240A
....................    printf(lcd_putc, "======= MENU ======="); 
02ADC:  MOVLW  AA
02ADE:  MOVWF  FF6
02AE0:  MOVLW  17
02AE2:  MOVWF  FF7
02AE4:  RCALL  24DC
....................    lcd_gotoxy(1,2); 
02AE6:  MOVLW  01
02AE8:  MOVLB  1
02AEA:  MOVWF  x2B
02AEC:  MOVLW  02
02AEE:  MOVWF  x2C
02AF0:  MOVLB  0
02AF2:  RCALL  240A
....................    printf(lcd_putc, "   (3) Casandra     "); 
02AF4:  MOVLW  C0
02AF6:  MOVWF  FF6
02AF8:  MOVLW  17
02AFA:  MOVWF  FF7
02AFC:  RCALL  24DC
....................    lcd_gotoxy(1,3); 
02AFE:  MOVLW  01
02B00:  MOVLB  1
02B02:  MOVWF  x2B
02B04:  MOVLW  03
02B06:  MOVWF  x2C
02B08:  MOVLB  0
02B0A:  RCALL  240A
....................    printf(lcd_putc, " ~ (4) Automatico   "); 
02B0C:  MOVLW  D6
02B0E:  MOVWF  FF6
02B10:  MOVLW  17
02B12:  MOVWF  FF7
02B14:  RCALL  24DC
....................    lcd_gotoxy(1,4); 
02B16:  MOVLW  01
02B18:  MOVLB  1
02B1A:  MOVWF  x2B
02B1C:  MOVLW  04
02B1E:  MOVWF  x2C
02B20:  MOVLB  0
02B22:  RCALL  240A
....................    printf(lcd_putc, "   (5) Configuracion"); 
02B24:  MOVLW  EC
02B26:  MOVWF  FF6
02B28:  MOVLW  17
02B2A:  MOVWF  FF7
02B2C:  RCALL  24DC
....................    break; 
02B2E:  BRA    318A
....................  
....................    case 6: 
.................... //   Tiempo(); // Tomo el tiempo 
.................... //   Ambiente(); // Tomo las variables ambientales (incluidas las remotas con cuidado de no saturar el bus) 
.................... //   output_low(LCDLED); 
....................    lcd_gotoxy(1,1); 
02B30:  MOVLW  01
02B32:  MOVLB  1
02B34:  MOVWF  x2B
02B36:  MOVWF  x2C
02B38:  MOVLB  0
02B3A:  RCALL  240A
....................    printf(lcd_putc, "======= MENU ======="); 
02B3C:  MOVLW  02
02B3E:  MOVWF  FF6
02B40:  MOVLW  18
02B42:  MOVWF  FF7
02B44:  RCALL  24DC
....................    lcd_gotoxy(1,2); 
02B46:  MOVLW  01
02B48:  MOVLB  1
02B4A:  MOVWF  x2B
02B4C:  MOVLW  02
02B4E:  MOVWF  x2C
02B50:  MOVLB  0
02B52:  RCALL  240A
....................    printf(lcd_putc, "   (3) Casandra     "); 
02B54:  MOVLW  18
02B56:  MOVWF  FF6
02B58:  MOVLW  18
02B5A:  MOVWF  FF7
02B5C:  RCALL  24DC
....................    lcd_gotoxy(1,3); 
02B5E:  MOVLW  01
02B60:  MOVLB  1
02B62:  MOVWF  x2B
02B64:  MOVLW  03
02B66:  MOVWF  x2C
02B68:  MOVLB  0
02B6A:  RCALL  240A
....................    printf(lcd_putc, "   (4) Automatico   "); 
02B6C:  MOVLW  2E
02B6E:  MOVWF  FF6
02B70:  MOVLW  18
02B72:  MOVWF  FF7
02B74:  RCALL  24DC
....................    lcd_gotoxy(1,4); 
02B76:  MOVLW  01
02B78:  MOVLB  1
02B7A:  MOVWF  x2B
02B7C:  MOVLW  04
02B7E:  MOVWF  x2C
02B80:  MOVLB  0
02B82:  RCALL  240A
....................    printf(lcd_putc, " ~ (5) Configuracion"); 
02B84:  MOVLW  44
02B86:  MOVWF  FF6
02B88:  MOVLW  18
02B8A:  MOVWF  FF7
02B8C:  RCALL  24DC
....................    break; 
02B8E:  BRA    318A
....................  
....................    case 21: 
.................... //   Tiempo(); // Tomo el tiempo 
.................... //   Ambiente(); // Tomo las variables ambientales (incluidas las remotas con cuidado de no saturar el bus) 
.................... //   output_low(LCDLED); 
....................    lcd_gotoxy(1,1); 
02B90:  MOVLW  01
02B92:  MOVLB  1
02B94:  MOVWF  x2B
02B96:  MOVWF  x2C
02B98:  MOVLB  0
02B9A:  RCALL  240A
....................    printf(lcd_putc, "====== Alarma ======"); 
02B9C:  MOVLW  5A
02B9E:  MOVWF  FF6
02BA0:  MOVLW  18
02BA2:  MOVWF  FF7
02BA4:  RCALL  24DC
....................    lcd_gotoxy(1,2); 
02BA6:  MOVLW  01
02BA8:  MOVLB  1
02BAA:  MOVWF  x2B
02BAC:  MOVLW  02
02BAE:  MOVWF  x2C
02BB0:  MOVLB  0
02BB2:  RCALL  240A
....................    printf(lcd_putc, "~ (1) Activar Total "); 
02BB4:  MOVLW  70
02BB6:  MOVWF  FF6
02BB8:  MOVLW  18
02BBA:  MOVWF  FF7
02BBC:  RCALL  24DC
....................    lcd_gotoxy(1,3); 
02BBE:  MOVLW  01
02BC0:  MOVLB  1
02BC2:  MOVWF  x2B
02BC4:  MOVLW  03
02BC6:  MOVWF  x2C
02BC8:  MOVLB  0
02BCA:  RCALL  240A
....................    printf(lcd_putc, "  (2) Activar Noche "); 
02BCC:  MOVLW  86
02BCE:  MOVWF  FF6
02BD0:  MOVLW  18
02BD2:  MOVWF  FF7
02BD4:  RCALL  24DC
....................    lcd_gotoxy(1,4); 
02BD6:  MOVLW  01
02BD8:  MOVLB  1
02BDA:  MOVWF  x2B
02BDC:  MOVLW  04
02BDE:  MOVWF  x2C
02BE0:  MOVLB  0
02BE2:  RCALL  240A
....................    printf(lcd_putc, "  (3) Activar Afuera"); 
02BE4:  MOVLW  9C
02BE6:  MOVWF  FF6
02BE8:  MOVLW  18
02BEA:  MOVWF  FF7
02BEC:  RCALL  24DC
....................    break; 
02BEE:  BRA    318A
....................  
....................    case 22: 
.................... //   Tiempo(); // Tomo el tiempo 
.................... //   Ambiente(); // Tomo las variables ambientales (incluidas las remotas con cuidado de no saturar el bus) 
.................... //   output_low(LCDLED); 
....................    lcd_gotoxy(1,1); 
02BF0:  MOVLW  01
02BF2:  MOVLB  1
02BF4:  MOVWF  x2B
02BF6:  MOVWF  x2C
02BF8:  MOVLB  0
02BFA:  RCALL  240A
....................    printf(lcd_putc, "====== Alarma ======"); 
02BFC:  MOVLW  B2
02BFE:  MOVWF  FF6
02C00:  MOVLW  18
02C02:  MOVWF  FF7
02C04:  RCALL  24DC
....................    lcd_gotoxy(1,2); 
02C06:  MOVLW  01
02C08:  MOVLB  1
02C0A:  MOVWF  x2B
02C0C:  MOVLW  02
02C0E:  MOVWF  x2C
02C10:  MOVLB  0
02C12:  CALL   240A
....................    printf(lcd_putc, "  (1) Activar Total "); 
02C16:  MOVLW  C8
02C18:  MOVWF  FF6
02C1A:  MOVLW  18
02C1C:  MOVWF  FF7
02C1E:  RCALL  24DC
....................    lcd_gotoxy(1,3); 
02C20:  MOVLW  01
02C22:  MOVLB  1
02C24:  MOVWF  x2B
02C26:  MOVLW  03
02C28:  MOVWF  x2C
02C2A:  MOVLB  0
02C2C:  CALL   240A
....................    printf(lcd_putc, "~ (2) Activar Noche "); 
02C30:  MOVLW  DE
02C32:  MOVWF  FF6
02C34:  MOVLW  18
02C36:  MOVWF  FF7
02C38:  RCALL  24DC
....................    lcd_gotoxy(1,4); 
02C3A:  MOVLW  01
02C3C:  MOVLB  1
02C3E:  MOVWF  x2B
02C40:  MOVLW  04
02C42:  MOVWF  x2C
02C44:  MOVLB  0
02C46:  CALL   240A
....................    printf(lcd_putc, "  (3) Activar Afuera"); 
02C4A:  MOVLW  F4
02C4C:  MOVWF  FF6
02C4E:  MOVLW  18
02C50:  MOVWF  FF7
02C52:  RCALL  24DC
....................    break; 
02C54:  BRA    318A
....................  
....................    case 23: 
.................... //   Tiempo(); // Tomo el tiempo 
.................... //   Ambiente(); // Tomo las variables ambientales (incluidas las remotas con cuidado de no saturar el bus) 
.................... //   output_low(LCDLED); 
....................    lcd_gotoxy(1,1); 
02C56:  MOVLW  01
02C58:  MOVLB  1
02C5A:  MOVWF  x2B
02C5C:  MOVWF  x2C
02C5E:  MOVLB  0
02C60:  CALL   240A
....................    printf(lcd_putc, "====== Alarma ======"); 
02C64:  MOVLW  0A
02C66:  MOVWF  FF6
02C68:  MOVLW  19
02C6A:  MOVWF  FF7
02C6C:  RCALL  24DC
....................    lcd_gotoxy(1,2); 
02C6E:  MOVLW  01
02C70:  MOVLB  1
02C72:  MOVWF  x2B
02C74:  MOVLW  02
02C76:  MOVWF  x2C
02C78:  MOVLB  0
02C7A:  CALL   240A
....................    printf(lcd_putc, "  (2) Activar Noche "); 
02C7E:  MOVLW  20
02C80:  MOVWF  FF6
02C82:  MOVLW  19
02C84:  MOVWF  FF7
02C86:  RCALL  24DC
....................    lcd_gotoxy(1,3); 
02C88:  MOVLW  01
02C8A:  MOVLB  1
02C8C:  MOVWF  x2B
02C8E:  MOVLW  03
02C90:  MOVWF  x2C
02C92:  MOVLB  0
02C94:  CALL   240A
....................    printf(lcd_putc, "~ (3) Activar Afuera"); 
02C98:  MOVLW  36
02C9A:  MOVWF  FF6
02C9C:  MOVLW  19
02C9E:  MOVWF  FF7
02CA0:  RCALL  24DC
....................    lcd_gotoxy(1,4); 
02CA2:  MOVLW  01
02CA4:  MOVLB  1
02CA6:  MOVWF  x2B
02CA8:  MOVLW  04
02CAA:  MOVWF  x2C
02CAC:  MOVLB  0
02CAE:  CALL   240A
....................    printf(lcd_putc, "  (4) Configuracion "); 
02CB2:  MOVLW  4C
02CB4:  MOVWF  FF6
02CB6:  MOVLW  19
02CB8:  MOVWF  FF7
02CBA:  RCALL  24DC
....................    break; 
02CBC:  BRA    318A
....................  
....................    case 24: 
.................... //   Tiempo(); // Tomo el tiempo 
.................... //   Ambiente(); // Tomo las variables ambientales (incluidas las remotas con cuidado de no saturar el bus) 
.................... //   output_low(LCDLED); 
....................    lcd_gotoxy(1,1); 
02CBE:  MOVLW  01
02CC0:  MOVLB  1
02CC2:  MOVWF  x2B
02CC4:  MOVWF  x2C
02CC6:  MOVLB  0
02CC8:  CALL   240A
....................    printf(lcd_putc, "====== Alarma ======"); 
02CCC:  MOVLW  62
02CCE:  MOVWF  FF6
02CD0:  MOVLW  19
02CD2:  MOVWF  FF7
02CD4:  RCALL  24DC
....................    lcd_gotoxy(1,2); 
02CD6:  MOVLW  01
02CD8:  MOVLB  1
02CDA:  MOVWF  x2B
02CDC:  MOVLW  02
02CDE:  MOVWF  x2C
02CE0:  MOVLB  0
02CE2:  CALL   240A
....................    printf(lcd_putc, "  (2) Activar Noche "); 
02CE6:  MOVLW  78
02CE8:  MOVWF  FF6
02CEA:  MOVLW  19
02CEC:  MOVWF  FF7
02CEE:  CALL   24DC
....................    lcd_gotoxy(1,3); 
02CF2:  MOVLW  01
02CF4:  MOVLB  1
02CF6:  MOVWF  x2B
02CF8:  MOVLW  03
02CFA:  MOVWF  x2C
02CFC:  MOVLB  0
02CFE:  CALL   240A
....................    printf(lcd_putc, "  (3) Activar Afuera"); 
02D02:  MOVLW  8E
02D04:  MOVWF  FF6
02D06:  MOVLW  19
02D08:  MOVWF  FF7
02D0A:  CALL   24DC
....................    lcd_gotoxy(1,4); 
02D0E:  MOVLW  01
02D10:  MOVLB  1
02D12:  MOVWF  x2B
02D14:  MOVLW  04
02D16:  MOVWF  x2C
02D18:  MOVLB  0
02D1A:  CALL   240A
....................    printf(lcd_putc, "~ (4) Configuracion "); 
02D1E:  MOVLW  A4
02D20:  MOVWF  FF6
02D22:  MOVLW  19
02D24:  MOVWF  FF7
02D26:  CALL   24DC
....................    break; 
02D2A:  BRA    318A
....................  
....................    case 31: 
.................... //   Tiempo(); // Tomo el tiempo 
.................... //   Ambiente(); // Tomo las variables ambientales (incluidas las remotas con cuidado de no saturar el bus) 
.................... //   output_low(LCDLED); 
....................    lcd_gotoxy(1,1); 
02D2C:  MOVLW  01
02D2E:  MOVLB  1
02D30:  MOVWF  x2B
02D32:  MOVWF  x2C
02D34:  MOVLB  0
02D36:  CALL   240A
....................    printf(lcd_putc, "= Control de luces ="); 
02D3A:  MOVLW  BA
02D3C:  MOVWF  FF6
02D3E:  MOVLW  19
02D40:  MOVWF  FF7
02D42:  CALL   24DC
....................    lcd_gotoxy(1,2); 
02D46:  MOVLW  01
02D48:  MOVLB  1
02D4A:  MOVWF  x2B
02D4C:  MOVLW  02
02D4E:  MOVWF  x2C
02D50:  MOVLB  0
02D52:  CALL   240A
....................    printf(lcd_putc, " ~ (1) Prend/Apagar "); 
02D56:  MOVLW  D0
02D58:  MOVWF  FF6
02D5A:  MOVLW  19
02D5C:  MOVWF  FF7
02D5E:  CALL   24DC
....................    lcd_gotoxy(1,3); 
02D62:  MOVLW  01
02D64:  MOVLB  1
02D66:  MOVWF  x2B
02D68:  MOVLW  03
02D6A:  MOVWF  x2C
02D6C:  MOVLB  0
02D6E:  CALL   240A
....................    printf(lcd_putc, "   (2) Grupos       "); 
02D72:  MOVLW  E6
02D74:  MOVWF  FF6
02D76:  MOVLW  19
02D78:  MOVWF  FF7
02D7A:  CALL   24DC
....................    lcd_gotoxy(1,4); 
02D7E:  MOVLW  01
02D80:  MOVLB  1
02D82:  MOVWF  x2B
02D84:  MOVLW  04
02D86:  MOVWF  x2C
02D88:  MOVLB  0
02D8A:  CALL   240A
....................    printf(lcd_putc, "   (3) Regulacion   "); 
02D8E:  MOVLW  FC
02D90:  MOVWF  FF6
02D92:  MOVLW  19
02D94:  MOVWF  FF7
02D96:  CALL   24DC
....................    break; 
02D9A:  BRA    318A
....................  
....................    case 32: 
.................... //   Tiempo(); // Tomo el tiempo 
.................... //   Ambiente(); // Tomo las variables ambientales (incluidas las remotas con cuidado de no saturar el bus) 
.................... //   output_low(LCDLED); 
....................    lcd_gotoxy(1,1); 
02D9C:  MOVLW  01
02D9E:  MOVLB  1
02DA0:  MOVWF  x2B
02DA2:  MOVWF  x2C
02DA4:  MOVLB  0
02DA6:  CALL   240A
....................    printf(lcd_putc, "= Control de luces ="); 
02DAA:  MOVLW  12
02DAC:  MOVWF  FF6
02DAE:  MOVLW  1A
02DB0:  MOVWF  FF7
02DB2:  CALL   24DC
....................    lcd_gotoxy(1,2); 
02DB6:  MOVLW  01
02DB8:  MOVLB  1
02DBA:  MOVWF  x2B
02DBC:  MOVLW  02
02DBE:  MOVWF  x2C
02DC0:  MOVLB  0
02DC2:  CALL   240A
....................    printf(lcd_putc, "   (1) Prend/Apagar "); 
02DC6:  MOVLW  28
02DC8:  MOVWF  FF6
02DCA:  MOVLW  1A
02DCC:  MOVWF  FF7
02DCE:  CALL   24DC
....................    lcd_gotoxy(1,3); 
02DD2:  MOVLW  01
02DD4:  MOVLB  1
02DD6:  MOVWF  x2B
02DD8:  MOVLW  03
02DDA:  MOVWF  x2C
02DDC:  MOVLB  0
02DDE:  CALL   240A
....................    printf(lcd_putc, " ~ (2) Grupos       "); 
02DE2:  MOVLW  3E
02DE4:  MOVWF  FF6
02DE6:  MOVLW  1A
02DE8:  MOVWF  FF7
02DEA:  CALL   24DC
....................    lcd_gotoxy(1,4); 
02DEE:  MOVLW  01
02DF0:  MOVLB  1
02DF2:  MOVWF  x2B
02DF4:  MOVLW  04
02DF6:  MOVWF  x2C
02DF8:  MOVLB  0
02DFA:  CALL   240A
....................    printf(lcd_putc, "   (3) Regulacion   "); 
02DFE:  MOVLW  54
02E00:  MOVWF  FF6
02E02:  MOVLW  1A
02E04:  MOVWF  FF7
02E06:  CALL   24DC
....................    break; 
02E0A:  BRA    318A
....................  
....................    case 33: 
.................... //   Tiempo(); // Tomo el tiempo 
.................... //   Ambiente(); // Tomo las variables ambientales (incluidas las remotas con cuidado de no saturar el bus) 
.................... //   output_low(LCDLED); 
....................    lcd_gotoxy(1,1); 
02E0C:  MOVLW  01
02E0E:  MOVLB  1
02E10:  MOVWF  x2B
02E12:  MOVWF  x2C
02E14:  MOVLB  0
02E16:  CALL   240A
....................    printf(lcd_putc, "= Control de luces ="); 
02E1A:  MOVLW  6A
02E1C:  MOVWF  FF6
02E1E:  MOVLW  1A
02E20:  MOVWF  FF7
02E22:  CALL   24DC
....................    lcd_gotoxy(1,2); 
02E26:  MOVLW  01
02E28:  MOVLB  1
02E2A:  MOVWF  x2B
02E2C:  MOVLW  02
02E2E:  MOVWF  x2C
02E30:  MOVLB  0
02E32:  CALL   240A
....................    printf(lcd_putc, "   (1) Prend/Apagar "); 
02E36:  MOVLW  80
02E38:  MOVWF  FF6
02E3A:  MOVLW  1A
02E3C:  MOVWF  FF7
02E3E:  CALL   24DC
....................    lcd_gotoxy(1,3); 
02E42:  MOVLW  01
02E44:  MOVLB  1
02E46:  MOVWF  x2B
02E48:  MOVLW  03
02E4A:  MOVWF  x2C
02E4C:  MOVLB  0
02E4E:  CALL   240A
....................    printf(lcd_putc, "   (2) Grupos       "); 
02E52:  MOVLW  96
02E54:  MOVWF  FF6
02E56:  MOVLW  1A
02E58:  MOVWF  FF7
02E5A:  CALL   24DC
....................    lcd_gotoxy(1,4); 
02E5E:  MOVLW  01
02E60:  MOVLB  1
02E62:  MOVWF  x2B
02E64:  MOVLW  04
02E66:  MOVWF  x2C
02E68:  MOVLB  0
02E6A:  CALL   240A
....................    printf(lcd_putc, " ~ (3) Regulacion   "); 
02E6E:  MOVLW  AC
02E70:  MOVWF  FF6
02E72:  MOVLW  1A
02E74:  MOVWF  FF7
02E76:  CALL   24DC
....................    break; 
02E7A:  BRA    318A
.................... /* 
....................    case 41: 
.................... //   Tiempo(); // Tomo el tiempo 
.................... //   Ambiente(); // Tomo las variables ambientales (incluidas las remotas con cuidado de no saturar el bus) 
.................... //   output_low(LCDLED); 
....................    lcd_gotoxy(1,1); 
....................    printf(lcd_putc, "== Nivel Casandra =="); 
....................    lcd_gotoxy(1,2); 
....................    printf(lcd_putc, " ~ (1) Serv y Autom "); 
....................    lcd_gotoxy(1,3); 
....................    printf(lcd_putc, "   (2) Solo Serv    "); 
....................    lcd_gotoxy(1,4); 
....................    printf(lcd_putc, "   (3) Solo Autom   "); 
....................    break; 
....................  
....................    case 42: 
.................... //   Tiempo(); // Tomo el tiempo 
.................... //   Ambiente(); // Tomo las variables ambientales (incluidas las remotas con cuidado de no saturar el bus) 
.................... //   output_low(LCDLED); 
....................    lcd_gotoxy(1,1); 
....................    printf(lcd_putc, "== Nivel Casandra =="); 
....................    lcd_gotoxy(1,2); 
....................    printf(lcd_putc, "   (1) Serv y Autom "); 
....................    lcd_gotoxy(1,3); 
....................    printf(lcd_putc, " ~ (2) Solo Serv    "); 
....................    lcd_gotoxy(1,4); 
....................    printf(lcd_putc, "   (3) Solo Autom   "); 
....................    break; 
....................  
....................    case 43: 
.................... //   Tiempo(); // Tomo el tiempo 
.................... //   Ambiente(); // Tomo las variables ambientales (incluidas las remotas con cuidado de no saturar el bus) 
.................... //   output_low(LCDLED); 
....................    lcd_gotoxy(1,1); 
....................    printf(lcd_putc, "== Nivel Casandra =="); 
....................    lcd_gotoxy(1,2); 
....................    printf(lcd_putc, "   (2) Solo Serv    "); 
....................    lcd_gotoxy(1,3); 
....................    printf(lcd_putc, " ~ (3) Solo Autom   "); 
....................    lcd_gotoxy(1,4); 
....................    printf(lcd_putc, "   (4) Nada :(      "); 
....................    break; 
....................  
....................    case 44: 
.................... //   Tiempo(); // Tomo el tiempo 
.................... //   Ambiente(); // Tomo las variables ambientales (incluidas las remotas con cuidado de no saturar el bus) 
.................... //   output_low(LCDLED); 
....................    lcd_gotoxy(1,1); 
....................    printf(lcd_putc, "== Nivel Casandra =="); 
....................    lcd_gotoxy(1,2); 
....................    printf(lcd_putc, "   (2) Solo Serv    "); 
....................    lcd_gotoxy(1,3); 
....................    printf(lcd_putc, "   (3) Solo Autom   "); 
....................    lcd_gotoxy(1,4); 
....................    printf(lcd_putc, " ~ (4) Nada :(      "); 
....................    break; 
.................... */ 
....................    case 51: 
.................... //   Tiempo(); // Tomo el tiempo 
.................... //   Ambiente(); // Tomo las variables ambientales (incluidas las remotas con cuidado de no saturar el bus) 
.................... //   output_low(LCDLED); 
....................    lcd_gotoxy(1,1); 
02E7C:  MOVLW  01
02E7E:  MOVLB  1
02E80:  MOVWF  x2B
02E82:  MOVWF  x2C
02E84:  MOVLB  0
02E86:  CALL   240A
....................    printf(lcd_putc, "==== Automatico ===="); 
02E8A:  MOVLW  C2
02E8C:  MOVWF  FF6
02E8E:  MOVLW  1A
02E90:  MOVWF  FF7
02E92:  CALL   24DC
....................    lcd_gotoxy(1,2); 
02E96:  MOVLW  01
02E98:  MOVLB  1
02E9A:  MOVWF  x2B
02E9C:  MOVLW  02
02E9E:  MOVWF  x2C
02EA0:  MOVLB  0
02EA2:  CALL   240A
....................    printf(lcd_putc, " ~ (1) Elegir dias  "); 
02EA6:  MOVLW  D8
02EA8:  MOVWF  FF6
02EAA:  MOVLW  1A
02EAC:  MOVWF  FF7
02EAE:  CALL   24DC
....................    lcd_gotoxy(1,3); 
02EB2:  MOVLW  01
02EB4:  MOVLB  1
02EB6:  MOVWF  x2B
02EB8:  MOVLW  03
02EBA:  MOVWF  x2C
02EBC:  MOVLB  0
02EBE:  CALL   240A
....................    printf(lcd_putc, "   (2) Horario      "); 
02EC2:  MOVLW  EE
02EC4:  MOVWF  FF6
02EC6:  MOVLW  1A
02EC8:  MOVWF  FF7
02ECA:  CALL   24DC
....................    lcd_gotoxy(1,4); 
02ECE:  MOVLW  01
02ED0:  MOVLB  1
02ED2:  MOVWF  x2B
02ED4:  MOVLW  04
02ED6:  MOVWF  x2C
02ED8:  MOVLB  0
02EDA:  CALL   240A
....................    printf(lcd_putc, "   (3) Elegir luces "); 
02EDE:  MOVLW  04
02EE0:  MOVWF  FF6
02EE2:  MOVLW  1B
02EE4:  MOVWF  FF7
02EE6:  CALL   24DC
....................    break; 
02EEA:  BRA    318A
....................  
....................    case 52: 
.................... //   Tiempo(); // Tomo el tiempo 
.................... //   Ambiente(); // Tomo las variables ambientales (incluidas las remotas con cuidado de no saturar el bus) 
.................... //   output_low(LCDLED); 
....................    lcd_gotoxy(1,1); 
02EEC:  MOVLW  01
02EEE:  MOVLB  1
02EF0:  MOVWF  x2B
02EF2:  MOVWF  x2C
02EF4:  MOVLB  0
02EF6:  CALL   240A
....................    printf(lcd_putc, "==== Automatico ===="); 
02EFA:  MOVLW  1A
02EFC:  MOVWF  FF6
02EFE:  MOVLW  1B
02F00:  MOVWF  FF7
02F02:  CALL   24DC
....................    lcd_gotoxy(1,2); 
02F06:  MOVLW  01
02F08:  MOVLB  1
02F0A:  MOVWF  x2B
02F0C:  MOVLW  02
02F0E:  MOVWF  x2C
02F10:  MOVLB  0
02F12:  CALL   240A
....................    printf(lcd_putc, "   (1) Elegir dias  "); 
02F16:  MOVLW  30
02F18:  MOVWF  FF6
02F1A:  MOVLW  1B
02F1C:  MOVWF  FF7
02F1E:  CALL   24DC
....................    lcd_gotoxy(1,3); 
02F22:  MOVLW  01
02F24:  MOVLB  1
02F26:  MOVWF  x2B
02F28:  MOVLW  03
02F2A:  MOVWF  x2C
02F2C:  MOVLB  0
02F2E:  CALL   240A
....................    printf(lcd_putc, " ~ (2) Horario      "); 
02F32:  MOVLW  46
02F34:  MOVWF  FF6
02F36:  MOVLW  1B
02F38:  MOVWF  FF7
02F3A:  CALL   24DC
....................    lcd_gotoxy(1,4); 
02F3E:  MOVLW  01
02F40:  MOVLB  1
02F42:  MOVWF  x2B
02F44:  MOVLW  04
02F46:  MOVWF  x2C
02F48:  MOVLB  0
02F4A:  CALL   240A
....................    printf(lcd_putc, "   (3) Elegir luces "); 
02F4E:  MOVLW  5C
02F50:  MOVWF  FF6
02F52:  MOVLW  1B
02F54:  MOVWF  FF7
02F56:  CALL   24DC
....................    break; 
02F5A:  BRA    318A
....................  
....................    case 53: 
.................... //   Tiempo(); // Tomo el tiempo 
.................... //   Ambiente(); // Tomo las variables ambientales (incluidas las remotas con cuidado de no saturar el bus) 
.................... //   output_low(LCDLED); 
....................    lcd_gotoxy(1,1); 
02F5C:  MOVLW  01
02F5E:  MOVLB  1
02F60:  MOVWF  x2B
02F62:  MOVWF  x2C
02F64:  MOVLB  0
02F66:  CALL   240A
....................    printf(lcd_putc, "==== Automatico ===="); 
02F6A:  MOVLW  72
02F6C:  MOVWF  FF6
02F6E:  MOVLW  1B
02F70:  MOVWF  FF7
02F72:  CALL   24DC
....................    lcd_gotoxy(1,2); 
02F76:  MOVLW  01
02F78:  MOVLB  1
02F7A:  MOVWF  x2B
02F7C:  MOVLW  02
02F7E:  MOVWF  x2C
02F80:  MOVLB  0
02F82:  CALL   240A
....................    printf(lcd_putc, "   (1) Elegir dias  "); 
02F86:  MOVLW  88
02F88:  MOVWF  FF6
02F8A:  MOVLW  1B
02F8C:  MOVWF  FF7
02F8E:  CALL   24DC
....................    lcd_gotoxy(1,3); 
02F92:  MOVLW  01
02F94:  MOVLB  1
02F96:  MOVWF  x2B
02F98:  MOVLW  03
02F9A:  MOVWF  x2C
02F9C:  MOVLB  0
02F9E:  CALL   240A
....................    printf(lcd_putc, "   (2) Horario      "); 
02FA2:  MOVLW  9E
02FA4:  MOVWF  FF6
02FA6:  MOVLW  1B
02FA8:  MOVWF  FF7
02FAA:  CALL   24DC
....................    lcd_gotoxy(1,4); 
02FAE:  MOVLW  01
02FB0:  MOVLB  1
02FB2:  MOVWF  x2B
02FB4:  MOVLW  04
02FB6:  MOVWF  x2C
02FB8:  MOVLB  0
02FBA:  CALL   240A
....................    printf(lcd_putc, " ~ (3) Elegir luces "); 
02FBE:  MOVLW  B4
02FC0:  MOVWF  FF6
02FC2:  MOVLW  1B
02FC4:  MOVWF  FF7
02FC6:  CALL   24DC
....................    break; 
02FCA:  BRA    318A
....................  
....................    case 61: 
.................... //   Tiempo(); // Tomo el tiempo 
.................... //   Ambiente(); // Tomo las variables ambientales (incluidas las remotas con cuidado de no saturar el bus) 
.................... //   output_low(LCDLED); 
....................    lcd_gotoxy(1,1); 
02FCC:  MOVLW  01
02FCE:  MOVLB  1
02FD0:  MOVWF  x2B
02FD2:  MOVWF  x2C
02FD4:  MOVLB  0
02FD6:  CALL   240A
....................    printf(lcd_putc, "=== Configuracion =="); 
02FDA:  MOVLW  CA
02FDC:  MOVWF  FF6
02FDE:  MOVLW  1B
02FE0:  MOVWF  FF7
02FE2:  CALL   24DC
....................    lcd_gotoxy(1,2); 
02FE6:  MOVLW  01
02FE8:  MOVLB  1
02FEA:  MOVWF  x2B
02FEC:  MOVLW  02
02FEE:  MOVWF  x2C
02FF0:  MOVLB  0
02FF2:  CALL   240A
....................    printf(lcd_putc, " ~ (1) Cambiar Clave"); 
02FF6:  MOVLW  E0
02FF8:  MOVWF  FF6
02FFA:  MOVLW  1B
02FFC:  MOVWF  FF7
02FFE:  CALL   24DC
....................    lcd_gotoxy(1,3); 
03002:  MOVLW  01
03004:  MOVLB  1
03006:  MOVWF  x2B
03008:  MOVLW  03
0300A:  MOVWF  x2C
0300C:  MOVLB  0
0300E:  CALL   240A
....................    printf(lcd_putc, "   (2) Fecha y hora "); 
03012:  MOVLW  F6
03014:  MOVWF  FF6
03016:  MOVLW  1B
03018:  MOVWF  FF7
0301A:  CALL   24DC
....................    lcd_gotoxy(1,4); 
0301E:  MOVLW  01
03020:  MOVLB  1
03022:  MOVWF  x2B
03024:  MOVLW  04
03026:  MOVWF  x2C
03028:  MOVLB  0
0302A:  CALL   240A
....................    printf(lcd_putc, "   (3) Resetear :O  "); 
0302E:  MOVLW  0C
03030:  MOVWF  FF6
03032:  MOVLW  1C
03034:  MOVWF  FF7
03036:  CALL   24DC
....................    break; 
0303A:  BRA    318A
....................  
....................    case 62: 
.................... //   Tiempo(); // Tomo el tiempo 
.................... //   Ambiente(); // Tomo las variables ambientales (incluidas las remotas con cuidado de no saturar el bus) 
.................... //   output_low(LCDLED); 
....................    lcd_gotoxy(1,1); 
0303C:  MOVLW  01
0303E:  MOVLB  1
03040:  MOVWF  x2B
03042:  MOVWF  x2C
03044:  MOVLB  0
03046:  CALL   240A
....................    printf(lcd_putc, "=== Configuracion =="); 
0304A:  MOVLW  22
0304C:  MOVWF  FF6
0304E:  MOVLW  1C
03050:  MOVWF  FF7
03052:  CALL   24DC
....................    lcd_gotoxy(1,2); 
03056:  MOVLW  01
03058:  MOVLB  1
0305A:  MOVWF  x2B
0305C:  MOVLW  02
0305E:  MOVWF  x2C
03060:  MOVLB  0
03062:  CALL   240A
....................    printf(lcd_putc, "   (1) Cambiar Clave"); 
03066:  MOVLW  38
03068:  MOVWF  FF6
0306A:  MOVLW  1C
0306C:  MOVWF  FF7
0306E:  CALL   24DC
....................    lcd_gotoxy(1,3); 
03072:  MOVLW  01
03074:  MOVLB  1
03076:  MOVWF  x2B
03078:  MOVLW  03
0307A:  MOVWF  x2C
0307C:  MOVLB  0
0307E:  CALL   240A
....................    printf(lcd_putc, " ~ (2) Fecha y hora "); 
03082:  MOVLW  4E
03084:  MOVWF  FF6
03086:  MOVLW  1C
03088:  MOVWF  FF7
0308A:  CALL   24DC
....................    lcd_gotoxy(1,4); 
0308E:  MOVLW  01
03090:  MOVLB  1
03092:  MOVWF  x2B
03094:  MOVLW  04
03096:  MOVWF  x2C
03098:  MOVLB  0
0309A:  CALL   240A
....................    printf(lcd_putc, "   (3) Resetear :O  "); 
0309E:  MOVLW  64
030A0:  MOVWF  FF6
030A2:  MOVLW  1C
030A4:  MOVWF  FF7
030A6:  CALL   24DC
....................    break; 
030AA:  BRA    318A
....................  
....................    case 63: 
.................... //   Tiempo(); // Tomo el tiempo 
.................... //   Ambiente(); // Tomo las variables ambientales (incluidas las remotas con cuidado de no saturar el bus) 
.................... //   output_low(LCDLED); 
....................    lcd_gotoxy(1,1); 
030AC:  MOVLW  01
030AE:  MOVLB  1
030B0:  MOVWF  x2B
030B2:  MOVWF  x2C
030B4:  MOVLB  0
030B6:  CALL   240A
....................    printf(lcd_putc, "=== Configuracion =="); 
030BA:  MOVLW  7A
030BC:  MOVWF  FF6
030BE:  MOVLW  1C
030C0:  MOVWF  FF7
030C2:  CALL   24DC
....................    lcd_gotoxy(1,2); 
030C6:  MOVLW  01
030C8:  MOVLB  1
030CA:  MOVWF  x2B
030CC:  MOVLW  02
030CE:  MOVWF  x2C
030D0:  MOVLB  0
030D2:  CALL   240A
....................    printf(lcd_putc, "   (2) Fecha y hora "); 
030D6:  MOVLW  90
030D8:  MOVWF  FF6
030DA:  MOVLW  1C
030DC:  MOVWF  FF7
030DE:  CALL   24DC
....................    lcd_gotoxy(1,3); 
030E2:  MOVLW  01
030E4:  MOVLB  1
030E6:  MOVWF  x2B
030E8:  MOVLW  03
030EA:  MOVWF  x2C
030EC:  MOVLB  0
030EE:  CALL   240A
....................    printf(lcd_putc, " ~ (3) Resetear :O  "); 
030F2:  MOVLW  A6
030F4:  MOVWF  FF6
030F6:  MOVLW  1C
030F8:  MOVWF  FF7
030FA:  CALL   24DC
....................    lcd_gotoxy(1,4); 
030FE:  MOVLW  01
03100:  MOVLB  1
03102:  MOVWF  x2B
03104:  MOVLW  04
03106:  MOVWF  x2C
03108:  MOVLB  0
0310A:  CALL   240A
....................    printf(lcd_putc, "   (4) Acerca de..  "); 
0310E:  MOVLW  BC
03110:  MOVWF  FF6
03112:  MOVLW  1C
03114:  MOVWF  FF7
03116:  CALL   24DC
....................    break; 
0311A:  BRA    318A
....................  
....................    case 64: 
.................... //   Tiempo(); // Tomo el tiempo 
.................... //   Ambiente(); // Tomo las variables ambientales (incluidas las remotas con cuidado de no saturar el bus) 
.................... //   output_low(LCDLED); 
....................    lcd_gotoxy(1,1); 
0311C:  MOVLW  01
0311E:  MOVLB  1
03120:  MOVWF  x2B
03122:  MOVWF  x2C
03124:  MOVLB  0
03126:  CALL   240A
....................    printf(lcd_putc, "=== Configuracion =="); 
0312A:  MOVLW  D2
0312C:  MOVWF  FF6
0312E:  MOVLW  1C
03130:  MOVWF  FF7
03132:  CALL   24DC
....................    lcd_gotoxy(1,2); 
03136:  MOVLW  01
03138:  MOVLB  1
0313A:  MOVWF  x2B
0313C:  MOVLW  02
0313E:  MOVWF  x2C
03140:  MOVLB  0
03142:  CALL   240A
....................    printf(lcd_putc, "   (2) Fecha y hora "); 
03146:  MOVLW  E8
03148:  MOVWF  FF6
0314A:  MOVLW  1C
0314C:  MOVWF  FF7
0314E:  CALL   24DC
....................    lcd_gotoxy(1,3); 
03152:  MOVLW  01
03154:  MOVLB  1
03156:  MOVWF  x2B
03158:  MOVLW  03
0315A:  MOVWF  x2C
0315C:  MOVLB  0
0315E:  CALL   240A
....................    printf(lcd_putc, "   (3) Resetear :O  "); 
03162:  MOVLW  FE
03164:  MOVWF  FF6
03166:  MOVLW  1C
03168:  MOVWF  FF7
0316A:  CALL   24DC
....................    lcd_gotoxy(1,4); 
0316E:  MOVLW  01
03170:  MOVLB  1
03172:  MOVWF  x2B
03174:  MOVLW  04
03176:  MOVWF  x2C
03178:  MOVLB  0
0317A:  CALL   240A
....................    printf(lcd_putc, " ~ (4) Acerca de..  "); 
0317E:  MOVLW  14
03180:  MOVWF  FF6
03182:  MOVLW  1D
03184:  MOVWF  FF7
03186:  CALL   24DC
....................    break; 
....................   
.................... } 
0318A:  RETURN 0
....................  
.................... } 
....................  
.................... void Tiempo(){ 
.................... ds1307_get_date(day,month,year,dow); 
.................... delay_ms(5); 
*
00E54:  MOVLW  05
00E56:  MOVLB  1
00E58:  MOVWF  x37
00E5A:  MOVLB  0
00E5C:  RCALL  0D76
....................  
.................... ds1307_get_time(hrs,min,sec); 
.................... delay_ms(5); 
*
00EFC:  MOVLW  05
00EFE:  MOVLB  1
00F00:  MOVWF  x37
00F02:  MOVLB  0
00F04:  RCALL  0D76
....................  
.................... if ((hrs == 0) && (min == 0) && (sec == 0)){ // Empieza un nuevo dia, reseteamos los valores maximos y minimos 
00F06:  MOVF   22,F
00F08:  BNZ   0F18
00F0A:  MOVF   21,F
00F0C:  BNZ   0F18
00F0E:  MOVF   20,F
00F10:  BNZ   0F18
.................... TempMax[0]=0; 
00F12:  CLRF   28
.................... TempMin[0]=255; 
00F14:  SETF   2C
.................... SolMax[0]=0; 
00F16:  CLRF   30
.................... } 
....................  
.................... switch (dow){ 
00F18:  MOVLW  01
00F1A:  SUBWF  26,W
00F1C:  ADDLW  F9
00F1E:  BC    0FDA
00F20:  ADDLW  07
00F22:  GOTO   1124
....................    case 1: 
....................    Dia="Lun"; 
00F26:  CLRF   FEA
00F28:  MOVLW  3A
00F2A:  MOVWF  FE9
00F2C:  MOVLW  00
00F2E:  CALL   02C4
00F32:  TBLRD*-
00F34:  TBLRD*+
00F36:  MOVF   FF5,W
00F38:  MOVWF  FEE
00F3A:  IORLW  00
00F3C:  BNZ   0F34
....................    break; 
00F3E:  BRA    0FDA
....................  
....................    case 2: 
....................    Dia="Mar"; 
00F40:  CLRF   FEA
00F42:  MOVLW  3A
00F44:  MOVWF  FE9
00F46:  MOVLW  00
00F48:  CALL   01FC
00F4C:  TBLRD*-
00F4E:  TBLRD*+
00F50:  MOVF   FF5,W
00F52:  MOVWF  FEE
00F54:  IORLW  00
00F56:  BNZ   0F4E
....................    break; 
00F58:  BRA    0FDA
....................  
....................    case 3: 
....................    Dia="Mie"; 
00F5A:  CLRF   FEA
00F5C:  MOVLW  3A
00F5E:  MOVWF  FE9
00F60:  MOVLW  00
00F62:  CALL   02D8
00F66:  TBLRD*-
00F68:  TBLRD*+
00F6A:  MOVF   FF5,W
00F6C:  MOVWF  FEE
00F6E:  IORLW  00
00F70:  BNZ   0F68
....................    break; 
00F72:  BRA    0FDA
....................  
....................    case 4: 
....................    Dia="Jue"; 
00F74:  CLRF   FEA
00F76:  MOVLW  3A
00F78:  MOVWF  FE9
00F7A:  MOVLW  00
00F7C:  CALL   02EC
00F80:  TBLRD*-
00F82:  TBLRD*+
00F84:  MOVF   FF5,W
00F86:  MOVWF  FEE
00F88:  IORLW  00
00F8A:  BNZ   0F82
....................    break; 
00F8C:  BRA    0FDA
....................  
....................    case 5: 
....................    Dia="Vie"; 
00F8E:  CLRF   FEA
00F90:  MOVLW  3A
00F92:  MOVWF  FE9
00F94:  MOVLW  00
00F96:  CALL   0300
00F9A:  TBLRD*-
00F9C:  TBLRD*+
00F9E:  MOVF   FF5,W
00FA0:  MOVWF  FEE
00FA2:  IORLW  00
00FA4:  BNZ   0F9C
....................    break; 
00FA6:  BRA    0FDA
....................  
....................    case 6: 
....................    Dia="Sab"; 
00FA8:  CLRF   FEA
00FAA:  MOVLW  3A
00FAC:  MOVWF  FE9
00FAE:  MOVLW  00
00FB0:  CALL   0314
00FB4:  TBLRD*-
00FB6:  TBLRD*+
00FB8:  MOVF   FF5,W
00FBA:  MOVWF  FEE
00FBC:  IORLW  00
00FBE:  BNZ   0FB6
....................    break; 
00FC0:  BRA    0FDA
....................  
....................    case 7: 
....................    Dia="Dom"; 
00FC2:  CLRF   FEA
00FC4:  MOVLW  3A
00FC6:  MOVWF  FE9
00FC8:  MOVLW  00
00FCA:  CALL   0328
00FCE:  TBLRD*-
00FD0:  TBLRD*+
00FD2:  MOVF   FF5,W
00FD4:  MOVWF  FEE
00FD6:  IORLW  00
00FD8:  BNZ   0FD0
....................    break; 
.................... } 
....................  
.................... switch (month){ 
00FDA:  MOVLW  01
00FDC:  SUBWF  24,W
00FDE:  ADDLW  F4
00FE0:  BTFSC  FD8.0
00FE2:  BRA    1120
00FE4:  ADDLW  0C
00FE6:  GOTO   114C
....................    case 1: 
....................    Mes="Ene"; 
00FEA:  CLRF   FEA
00FEC:  MOVLW  3E
00FEE:  MOVWF  FE9
00FF0:  MOVLW  00
00FF2:  CALL   01D4
00FF6:  TBLRD*-
00FF8:  TBLRD*+
00FFA:  MOVF   FF5,W
00FFC:  MOVWF  FEE
00FFE:  IORLW  00
01000:  BNZ   0FF8
....................    break; 
01002:  BRA    1120
....................  
....................    case 2: 
....................    Mes="Feb"; 
01004:  CLRF   FEA
01006:  MOVLW  3E
01008:  MOVWF  FE9
0100A:  MOVLW  00
0100C:  CALL   01E8
01010:  TBLRD*-
01012:  TBLRD*+
01014:  MOVF   FF5,W
01016:  MOVWF  FEE
01018:  IORLW  00
0101A:  BNZ   1012
....................    break; 
0101C:  BRA    1120
....................  
....................    case 3: 
....................    Mes="Mar"; 
0101E:  CLRF   FEA
01020:  MOVLW  3E
01022:  MOVWF  FE9
01024:  MOVLW  00
01026:  CALL   01FC
0102A:  TBLRD*-
0102C:  TBLRD*+
0102E:  MOVF   FF5,W
01030:  MOVWF  FEE
01032:  IORLW  00
01034:  BNZ   102C
....................    break; 
01036:  BRA    1120
....................  
....................    case 4: 
....................    Mes="Abr"; 
01038:  CLRF   FEA
0103A:  MOVLW  3E
0103C:  MOVWF  FE9
0103E:  MOVLW  00
01040:  CALL   0210
01044:  TBLRD*-
01046:  TBLRD*+
01048:  MOVF   FF5,W
0104A:  MOVWF  FEE
0104C:  IORLW  00
0104E:  BNZ   1046
....................    break; 
01050:  BRA    1120
....................  
....................    case 5: 
....................    Mes="May"; 
01052:  CLRF   FEA
01054:  MOVLW  3E
01056:  MOVWF  FE9
01058:  MOVLW  00
0105A:  CALL   0224
0105E:  TBLRD*-
01060:  TBLRD*+
01062:  MOVF   FF5,W
01064:  MOVWF  FEE
01066:  IORLW  00
01068:  BNZ   1060
....................    break; 
0106A:  BRA    1120
....................  
....................    case 6: 
....................    Mes="Jun"; 
0106C:  CLRF   FEA
0106E:  MOVLW  3E
01070:  MOVWF  FE9
01072:  MOVLW  00
01074:  CALL   0238
01078:  TBLRD*-
0107A:  TBLRD*+
0107C:  MOVF   FF5,W
0107E:  MOVWF  FEE
01080:  IORLW  00
01082:  BNZ   107A
....................    break; 
01084:  BRA    1120
....................  
....................    case 7: 
....................    Mes="Jul"; 
01086:  CLRF   FEA
01088:  MOVLW  3E
0108A:  MOVWF  FE9
0108C:  MOVLW  00
0108E:  CALL   024C
01092:  TBLRD*-
01094:  TBLRD*+
01096:  MOVF   FF5,W
01098:  MOVWF  FEE
0109A:  IORLW  00
0109C:  BNZ   1094
....................    break; 
0109E:  BRA    1120
....................  
....................    case 8: 
....................    Mes="Ago"; 
010A0:  CLRF   FEA
010A2:  MOVLW  3E
010A4:  MOVWF  FE9
010A6:  MOVLW  00
010A8:  CALL   0260
010AC:  TBLRD*-
010AE:  TBLRD*+
010B0:  MOVF   FF5,W
010B2:  MOVWF  FEE
010B4:  IORLW  00
010B6:  BNZ   10AE
....................    break; 
010B8:  BRA    1120
....................  
....................    case 9: 
....................    Mes="Sep"; 
010BA:  CLRF   FEA
010BC:  MOVLW  3E
010BE:  MOVWF  FE9
010C0:  MOVLW  00
010C2:  CALL   0274
010C6:  TBLRD*-
010C8:  TBLRD*+
010CA:  MOVF   FF5,W
010CC:  MOVWF  FEE
010CE:  IORLW  00
010D0:  BNZ   10C8
....................    break; 
010D2:  BRA    1120
....................  
....................    case 10: 
....................    Mes="Oct"; 
010D4:  CLRF   FEA
010D6:  MOVLW  3E
010D8:  MOVWF  FE9
010DA:  MOVLW  00
010DC:  CALL   0288
010E0:  TBLRD*-
010E2:  TBLRD*+
010E4:  MOVF   FF5,W
010E6:  MOVWF  FEE
010E8:  IORLW  00
010EA:  BNZ   10E2
....................    break; 
010EC:  BRA    1120
....................  
....................    case 11: 
....................    Mes="Nov"; 
010EE:  CLRF   FEA
010F0:  MOVLW  3E
010F2:  MOVWF  FE9
010F4:  MOVLW  00
010F6:  CALL   029C
010FA:  TBLRD*-
010FC:  TBLRD*+
010FE:  MOVF   FF5,W
01100:  MOVWF  FEE
01102:  IORLW  00
01104:  BNZ   10FC
....................    break; 
01106:  BRA    1120
....................  
....................    case 12: 
....................    Mes="Dic"; 
01108:  CLRF   FEA
0110A:  MOVLW  3E
0110C:  MOVWF  FE9
0110E:  MOVLW  00
01110:  CALL   02B0
01114:  TBLRD*-
01116:  TBLRD*+
01118:  MOVF   FF5,W
0111A:  MOVWF  FEE
0111C:  IORLW  00
0111E:  BNZ   1116
....................    break; 
.................... } 
01120:  GOTO   1604 (RETURN)
....................  
.................... } 
....................  
.................... void Ambiente(){ 
.................... state = get_data(); 
*
0128E:  BRA    11BE
01290:  MOVFF  01,1F
....................  
.................... if (TempOut > TempMax[0]){ // tenemos una nueva temperatura maxima del dia 
01294:  MOVF   42,W
01296:  SUBWF  28,W
01298:  BTFSC  FD8.0
0129A:  BRA    13B4
.................... TempMax[0] = TempOut; 
0129C:  MOVFF  42,28
.................... write_eeprom(((dow * 5) + 95),TempMax[0]); 
012A0:  MOVF   26,W
012A2:  MULLW  05
012A4:  MOVF   FF3,W
012A6:  ADDLW  5F
012A8:  MOVLB  1
012AA:  MOVWF  x34
012AC:  MOVF   FF2,W
012AE:  MOVWF  00
012B0:  BCF    FF2.7
012B2:  CLRF   FAA
012B4:  MOVFF  134,FA9
012B8:  MOVFF  28,FA8
012BC:  BCF    FA6.6
012BE:  BCF    FA6.7
012C0:  BSF    FA6.2
012C2:  MOVLB  F
012C4:  MOVLW  55
012C6:  MOVWF  FA7
012C8:  MOVLW  AA
012CA:  MOVWF  FA7
012CC:  BSF    FA6.1
012CE:  BTFSC  FA6.1
012D0:  BRA    12CE
012D2:  BCF    FA6.2
012D4:  MOVF   00,W
012D6:  IORWF  FF2,F
.................... delay_ms(2); 
012D8:  MOVLW  02
012DA:  MOVLB  1
012DC:  MOVWF  x37
012DE:  MOVLB  0
012E0:  RCALL  0D76
.................... TempMax[1] = day; 
012E2:  MOVFF  23,29
.................... write_eeprom(((dow * 5) + 96),TempMax[1]); 
012E6:  MOVF   26,W
012E8:  MULLW  05
012EA:  MOVF   FF3,W
012EC:  ADDLW  60
012EE:  MOVLB  1
012F0:  MOVWF  x34
012F2:  MOVF   FF2,W
012F4:  MOVWF  00
012F6:  BCF    FF2.7
012F8:  CLRF   FAA
012FA:  MOVFF  134,FA9
012FE:  MOVFF  29,FA8
01302:  BCF    FA6.6
01304:  BCF    FA6.7
01306:  BSF    FA6.2
01308:  MOVLB  F
0130A:  MOVLW  55
0130C:  MOVWF  FA7
0130E:  MOVLW  AA
01310:  MOVWF  FA7
01312:  BSF    FA6.1
01314:  BTFSC  FA6.1
01316:  BRA    1314
01318:  BCF    FA6.2
0131A:  MOVF   00,W
0131C:  IORWF  FF2,F
.................... delay_ms(2); 
0131E:  MOVLW  02
01320:  MOVLB  1
01322:  MOVWF  x37
01324:  MOVLB  0
01326:  RCALL  0D76
.................... TempMax[2] = hrs; 
01328:  MOVFF  22,2A
.................... write_eeprom(((dow * 5) + 97),TempMax[2]); 
0132C:  MOVF   26,W
0132E:  MULLW  05
01330:  MOVF   FF3,W
01332:  ADDLW  61
01334:  MOVLB  1
01336:  MOVWF  x34
01338:  MOVF   FF2,W
0133A:  MOVWF  00
0133C:  BCF    FF2.7
0133E:  CLRF   FAA
01340:  MOVFF  134,FA9
01344:  MOVFF  2A,FA8
01348:  BCF    FA6.6
0134A:  BCF    FA6.7
0134C:  BSF    FA6.2
0134E:  MOVLB  F
01350:  MOVLW  55
01352:  MOVWF  FA7
01354:  MOVLW  AA
01356:  MOVWF  FA7
01358:  BSF    FA6.1
0135A:  BTFSC  FA6.1
0135C:  BRA    135A
0135E:  BCF    FA6.2
01360:  MOVF   00,W
01362:  IORWF  FF2,F
.................... delay_ms(2); 
01364:  MOVLW  02
01366:  MOVLB  1
01368:  MOVWF  x37
0136A:  MOVLB  0
0136C:  RCALL  0D76
.................... TempMax[3] = min; 
0136E:  MOVFF  21,2B
.................... write_eeprom(((dow * 5) + 98),TempMax[3]); 
01372:  MOVF   26,W
01374:  MULLW  05
01376:  MOVF   FF3,W
01378:  ADDLW  62
0137A:  MOVLB  1
0137C:  MOVWF  x34
0137E:  MOVF   FF2,W
01380:  MOVWF  00
01382:  BCF    FF2.7
01384:  CLRF   FAA
01386:  MOVFF  134,FA9
0138A:  MOVFF  2B,FA8
0138E:  BCF    FA6.6
01390:  BCF    FA6.7
01392:  BSF    FA6.2
01394:  MOVLB  F
01396:  MOVLW  55
01398:  MOVWF  FA7
0139A:  MOVLW  AA
0139C:  MOVWF  FA7
0139E:  BSF    FA6.1
013A0:  BTFSC  FA6.1
013A2:  BRA    13A0
013A4:  BCF    FA6.2
013A6:  MOVF   00,W
013A8:  IORWF  FF2,F
.................... delay_ms(2); 
013AA:  MOVLW  02
013AC:  MOVLB  1
013AE:  MOVWF  x37
013B0:  MOVLB  0
013B2:  RCALL  0D76
.................... } 
....................  
.................... if (TempOut < TempMin[0]){ // tenemos una nueva temperatura minima del dia 
013B4:  MOVF   2C,W
013B6:  SUBWF  42,W
013B8:  BTFSC  FD8.0
013BA:  BRA    14D4
.................... TempMin[0] = TempOut; 
013BC:  MOVFF  42,2C
.................... write_eeprom(((dow * 5) + 130),TempMin[0]); 
013C0:  MOVF   26,W
013C2:  MULLW  05
013C4:  MOVF   FF3,W
013C6:  ADDLW  82
013C8:  MOVLB  1
013CA:  MOVWF  x34
013CC:  MOVF   FF2,W
013CE:  MOVWF  00
013D0:  BCF    FF2.7
013D2:  CLRF   FAA
013D4:  MOVFF  134,FA9
013D8:  MOVFF  2C,FA8
013DC:  BCF    FA6.6
013DE:  BCF    FA6.7
013E0:  BSF    FA6.2
013E2:  MOVLB  F
013E4:  MOVLW  55
013E6:  MOVWF  FA7
013E8:  MOVLW  AA
013EA:  MOVWF  FA7
013EC:  BSF    FA6.1
013EE:  BTFSC  FA6.1
013F0:  BRA    13EE
013F2:  BCF    FA6.2
013F4:  MOVF   00,W
013F6:  IORWF  FF2,F
.................... delay_ms(2); 
013F8:  MOVLW  02
013FA:  MOVLB  1
013FC:  MOVWF  x37
013FE:  MOVLB  0
01400:  RCALL  0D76
.................... TempMin[1] = day; 
01402:  MOVFF  23,2D
.................... write_eeprom(((dow * 5) + 131),TempMin[1]); 
01406:  MOVF   26,W
01408:  MULLW  05
0140A:  MOVF   FF3,W
0140C:  ADDLW  83
0140E:  MOVLB  1
01410:  MOVWF  x34
01412:  MOVF   FF2,W
01414:  MOVWF  00
01416:  BCF    FF2.7
01418:  CLRF   FAA
0141A:  MOVFF  134,FA9
0141E:  MOVFF  2D,FA8
01422:  BCF    FA6.6
01424:  BCF    FA6.7
01426:  BSF    FA6.2
01428:  MOVLB  F
0142A:  MOVLW  55
0142C:  MOVWF  FA7
0142E:  MOVLW  AA
01430:  MOVWF  FA7
01432:  BSF    FA6.1
01434:  BTFSC  FA6.1
01436:  BRA    1434
01438:  BCF    FA6.2
0143A:  MOVF   00,W
0143C:  IORWF  FF2,F
.................... delay_ms(2); 
0143E:  MOVLW  02
01440:  MOVLB  1
01442:  MOVWF  x37
01444:  MOVLB  0
01446:  RCALL  0D76
.................... TempMin[2] = hrs; 
01448:  MOVFF  22,2E
.................... write_eeprom(((dow * 5) + 132),TempMin[2]); 
0144C:  MOVF   26,W
0144E:  MULLW  05
01450:  MOVF   FF3,W
01452:  ADDLW  84
01454:  MOVLB  1
01456:  MOVWF  x34
01458:  MOVF   FF2,W
0145A:  MOVWF  00
0145C:  BCF    FF2.7
0145E:  CLRF   FAA
01460:  MOVFF  134,FA9
01464:  MOVFF  2E,FA8
01468:  BCF    FA6.6
0146A:  BCF    FA6.7
0146C:  BSF    FA6.2
0146E:  MOVLB  F
01470:  MOVLW  55
01472:  MOVWF  FA7
01474:  MOVLW  AA
01476:  MOVWF  FA7
01478:  BSF    FA6.1
0147A:  BTFSC  FA6.1
0147C:  BRA    147A
0147E:  BCF    FA6.2
01480:  MOVF   00,W
01482:  IORWF  FF2,F
.................... delay_ms(2); 
01484:  MOVLW  02
01486:  MOVLB  1
01488:  MOVWF  x37
0148A:  MOVLB  0
0148C:  RCALL  0D76
.................... TempMin[3] = min; 
0148E:  MOVFF  21,2F
.................... write_eeprom(((dow * 5) + 133),TempMin[3]); 
01492:  MOVF   26,W
01494:  MULLW  05
01496:  MOVF   FF3,W
01498:  ADDLW  85
0149A:  MOVLB  1
0149C:  MOVWF  x34
0149E:  MOVF   FF2,W
014A0:  MOVWF  00
014A2:  BCF    FF2.7
014A4:  CLRF   FAA
014A6:  MOVFF  134,FA9
014AA:  MOVFF  2F,FA8
014AE:  BCF    FA6.6
014B0:  BCF    FA6.7
014B2:  BSF    FA6.2
014B4:  MOVLB  F
014B6:  MOVLW  55
014B8:  MOVWF  FA7
014BA:  MOVLW  AA
014BC:  MOVWF  FA7
014BE:  BSF    FA6.1
014C0:  BTFSC  FA6.1
014C2:  BRA    14C0
014C4:  BCF    FA6.2
014C6:  MOVF   00,W
014C8:  IORWF  FF2,F
.................... delay_ms(2); 
014CA:  MOVLW  02
014CC:  MOVLB  1
014CE:  MOVWF  x37
014D0:  MOVLB  0
014D2:  RCALL  0D76
.................... } 
....................  
.................... if (Sol > SolMax[0]){ // tenemos una nueva radiacion solar maxima 
014D4:  MOVF   43,W
014D6:  SUBWF  30,W
014D8:  BTFSC  FD8.0
014DA:  BRA    15F8
.................... SolMax[0] = Sol; 
014DC:  MOVFF  43,30
.................... write_eeprom(((dow * 5) + 165),SolMax[0]); 
014E0:  MOVF   26,W
014E2:  MULLW  05
014E4:  MOVF   FF3,W
014E6:  ADDLW  A5
014E8:  MOVLB  1
014EA:  MOVWF  x34
014EC:  MOVF   FF2,W
014EE:  MOVWF  00
014F0:  BCF    FF2.7
014F2:  CLRF   FAA
014F4:  MOVFF  134,FA9
014F8:  MOVFF  30,FA8
014FC:  BCF    FA6.6
014FE:  BCF    FA6.7
01500:  BSF    FA6.2
01502:  MOVLB  F
01504:  MOVLW  55
01506:  MOVWF  FA7
01508:  MOVLW  AA
0150A:  MOVWF  FA7
0150C:  BSF    FA6.1
0150E:  BTFSC  FA6.1
01510:  BRA    150E
01512:  BCF    FA6.2
01514:  MOVF   00,W
01516:  IORWF  FF2,F
.................... delay_ms(2); 
01518:  MOVLW  02
0151A:  MOVLB  1
0151C:  MOVWF  x37
0151E:  MOVLB  0
01520:  RCALL  0D76
.................... SolMax[1] = day; 
01522:  MOVFF  23,31
.................... write_eeprom(((dow * 5) + 166),SolMax[1]); 
01526:  MOVF   26,W
01528:  MULLW  05
0152A:  MOVF   FF3,W
0152C:  ADDLW  A6
0152E:  MOVLB  1
01530:  MOVWF  x34
01532:  MOVF   FF2,W
01534:  MOVWF  00
01536:  BCF    FF2.7
01538:  CLRF   FAA
0153A:  MOVFF  134,FA9
0153E:  MOVFF  31,FA8
01542:  BCF    FA6.6
01544:  BCF    FA6.7
01546:  BSF    FA6.2
01548:  MOVLB  F
0154A:  MOVLW  55
0154C:  MOVWF  FA7
0154E:  MOVLW  AA
01550:  MOVWF  FA7
01552:  BSF    FA6.1
01554:  BTFSC  FA6.1
01556:  BRA    1554
01558:  BCF    FA6.2
0155A:  MOVF   00,W
0155C:  IORWF  FF2,F
.................... delay_ms(2); 
0155E:  MOVLW  02
01560:  MOVLB  1
01562:  MOVWF  x37
01564:  MOVLB  0
01566:  RCALL  0D76
.................... SolMax[2] = hrs; 
01568:  MOVFF  22,32
.................... write_eeprom(((dow * 5) + 167),SolMax[2]); 
0156C:  MOVF   26,W
0156E:  MULLW  05
01570:  MOVF   FF3,W
01572:  ADDLW  A7
01574:  MOVLB  1
01576:  MOVWF  x34
01578:  MOVF   FF2,W
0157A:  MOVWF  00
0157C:  BCF    FF2.7
0157E:  CLRF   FAA
01580:  MOVFF  134,FA9
01584:  MOVFF  32,FA8
01588:  BCF    FA6.6
0158A:  BCF    FA6.7
0158C:  BSF    FA6.2
0158E:  MOVLB  F
01590:  MOVLW  55
01592:  MOVWF  FA7
01594:  MOVLW  AA
01596:  MOVWF  FA7
01598:  BSF    FA6.1
0159A:  BTFSC  FA6.1
0159C:  BRA    159A
0159E:  BCF    FA6.2
015A0:  MOVF   00,W
015A2:  IORWF  FF2,F
.................... delay_ms(2); 
015A4:  MOVLW  02
015A6:  MOVLB  1
015A8:  MOVWF  x37
015AA:  MOVLB  0
015AC:  CALL   0D76
.................... SolMax[3] = min; 
015B0:  MOVFF  21,33
.................... write_eeprom(((dow * 5) + 168),SolMax[3]); 
015B4:  MOVF   26,W
015B6:  MULLW  05
015B8:  MOVF   FF3,W
015BA:  ADDLW  A8
015BC:  MOVLB  1
015BE:  MOVWF  x34
015C0:  MOVF   FF2,W
015C2:  MOVWF  00
015C4:  BCF    FF2.7
015C6:  CLRF   FAA
015C8:  MOVFF  134,FA9
015CC:  MOVFF  33,FA8
015D0:  BCF    FA6.6
015D2:  BCF    FA6.7
015D4:  BSF    FA6.2
015D6:  MOVLB  F
015D8:  MOVLW  55
015DA:  MOVWF  FA7
015DC:  MOVLW  AA
015DE:  MOVWF  FA7
015E0:  BSF    FA6.1
015E2:  BTFSC  FA6.1
015E4:  BRA    15E2
015E6:  BCF    FA6.2
015E8:  MOVF   00,W
015EA:  IORWF  FF2,F
.................... delay_ms(2); 
015EC:  MOVLW  02
015EE:  MOVLB  1
015F0:  MOVWF  x37
015F2:  MOVLB  0
015F4:  CALL   0D76
.................... } 
015F8:  GOTO   160C (RETURN)
....................  
.................... } // fn 
....................  
.................... void Holding(){ 
.................... while (input(ARRIBA)==0 || input(ABAJO)==0 || input(OOKK)==0 || input(CANCEL)==0){ 
*
026BC:  BSF    F93.0
026BE:  BTFSS  F81.0
026C0:  BRA    26D4
026C2:  BSF    F93.1
026C4:  BTFSS  F81.1
026C6:  BRA    26D4
026C8:  BSF    F93.2
026CA:  BTFSS  F81.2
026CC:  BRA    26D4
026CE:  BSF    F93.3
026D0:  BTFSC  F81.3
026D2:  BRA    26EE
....................  
.................... lcd_gotoxy(1,2); 
026D4:  MOVLW  01
026D6:  MOVLB  1
026D8:  MOVWF  x2B
026DA:  MOVLW  02
026DC:  MOVWF  x2C
026DE:  MOVLB  0
026E0:  RCALL  240A
.................... printf(lcd_putc,"   hola  :)     "); 
026E2:  MOVLW  2A
026E4:  MOVWF  FF6
026E6:  MOVLW  1D
026E8:  MOVWF  FF7
026EA:  RCALL  24DC
026EC:  BRA    26BC
....................  
.................... } // while 
026EE:  GOTO   3270 (RETURN)
....................  
.................... } //fn 
....................  
....................  
.................... void AcercaDe(){ // se lleva el 5% de ROM 
.................... restart_wdt(); 
*
08DA2:  CLRWDT
.................... int k=0; 
08DA4:  MOVLB  1
08DA6:  CLRF   x11
.................... while (input(ARRIBA)==1 && input(ABAJO)==1 && input(CANCEL)==1){ 
08DA8:  BSF    F93.0
08DAA:  BTFSS  F81.0
08DAC:  BRA    9162
08DAE:  BSF    F93.1
08DB0:  BTFSS  F81.1
08DB2:  BRA    9162
08DB4:  BSF    F93.3
08DB6:  BTFSS  F81.3
08DB8:  BRA    9162
.................... if (k<250) ++k; 
08DBA:  MOVF   x11,W
08DBC:  SUBLW  F9
08DBE:  BNC   8DC2
08DC0:  INCF   x11,F
.................... lcd_gotoxy(1,1); 
08DC2:  MOVLW  01
08DC4:  MOVWF  x2B
08DC6:  MOVWF  x2C
08DC8:  MOVLB  0
08DCA:  CALL   240A
.................... if (k==0) printf(lcd_putc,"==                 C"); 
08DCE:  MOVLB  1
08DD0:  MOVF   x11,F
08DD2:  BNZ   8DE4
08DD4:  MOVLW  3C
08DD6:  MOVWF  FF6
08DD8:  MOVLW  1D
08DDA:  MOVWF  FF7
08DDC:  MOVLB  0
08DDE:  CALL   24DC
08DE2:  MOVLB  1
.................... if (k==5) printf(lcd_putc,"==                C "); 
08DE4:  MOVF   x11,W
08DE6:  SUBLW  05
08DE8:  BNZ   8DFA
08DEA:  MOVLW  52
08DEC:  MOVWF  FF6
08DEE:  MOVLW  1D
08DF0:  MOVWF  FF7
08DF2:  MOVLB  0
08DF4:  CALL   24DC
08DF8:  MOVLB  1
.................... if (k==10) printf(lcd_putc,"==               C  "); 
08DFA:  MOVF   x11,W
08DFC:  SUBLW  0A
08DFE:  BNZ   8E10
08E00:  MOVLW  68
08E02:  MOVWF  FF6
08E04:  MOVLW  1D
08E06:  MOVWF  FF7
08E08:  MOVLB  0
08E0A:  CALL   24DC
08E0E:  MOVLB  1
.................... if (k==15) printf(lcd_putc,"==              C  A"); 
08E10:  MOVF   x11,W
08E12:  SUBLW  0F
08E14:  BNZ   8E26
08E16:  MOVLW  7E
08E18:  MOVWF  FF6
08E1A:  MOVLW  1D
08E1C:  MOVWF  FF7
08E1E:  MOVLB  0
08E20:  CALL   24DC
08E24:  MOVLB  1
.................... if (k==20) printf(lcd_putc,"==             C  A "); 
08E26:  MOVF   x11,W
08E28:  SUBLW  14
08E2A:  BNZ   8E3C
08E2C:  MOVLW  94
08E2E:  MOVWF  FF6
08E30:  MOVLW  1D
08E32:  MOVWF  FF7
08E34:  MOVLB  0
08E36:  CALL   24DC
08E3A:  MOVLB  1
.................... if (k==25) printf(lcd_putc,"==            C  A  "); 
08E3C:  MOVF   x11,W
08E3E:  SUBLW  19
08E40:  BNZ   8E52
08E42:  MOVLW  AA
08E44:  MOVWF  FF6
08E46:  MOVLW  1D
08E48:  MOVWF  FF7
08E4A:  MOVLB  0
08E4C:  CALL   24DC
08E50:  MOVLB  1
.................... if (k==30) printf(lcd_putc,"==           C  A  S"); 
08E52:  MOVF   x11,W
08E54:  SUBLW  1E
08E56:  BNZ   8E68
08E58:  MOVLW  C0
08E5A:  MOVWF  FF6
08E5C:  MOVLW  1D
08E5E:  MOVWF  FF7
08E60:  MOVLB  0
08E62:  CALL   24DC
08E66:  MOVLB  1
.................... if (k==35) printf(lcd_putc,"==          C  A  S "); 
08E68:  MOVF   x11,W
08E6A:  SUBLW  23
08E6C:  BNZ   8E7E
08E6E:  MOVLW  D6
08E70:  MOVWF  FF6
08E72:  MOVLW  1D
08E74:  MOVWF  FF7
08E76:  MOVLB  0
08E78:  CALL   24DC
08E7C:  MOVLB  1
.................... if (k==40) printf(lcd_putc,"==         C  A  S  "); 
08E7E:  MOVF   x11,W
08E80:  SUBLW  28
08E82:  BNZ   8E94
08E84:  MOVLW  EC
08E86:  MOVWF  FF6
08E88:  MOVLW  1D
08E8A:  MOVWF  FF7
08E8C:  MOVLB  0
08E8E:  CALL   24DC
08E92:  MOVLB  1
.................... if (k==45) printf(lcd_putc,"==        C  A  S  A"); 
08E94:  MOVF   x11,W
08E96:  SUBLW  2D
08E98:  BNZ   8EAA
08E9A:  MOVLW  02
08E9C:  MOVWF  FF6
08E9E:  MOVLW  1E
08EA0:  MOVWF  FF7
08EA2:  MOVLB  0
08EA4:  CALL   24DC
08EA8:  MOVLB  1
.................... if (k==50) printf(lcd_putc,"==       C  A  S  A "); 
08EAA:  MOVF   x11,W
08EAC:  SUBLW  32
08EAE:  BNZ   8EC0
08EB0:  MOVLW  18
08EB2:  MOVWF  FF6
08EB4:  MOVLW  1E
08EB6:  MOVWF  FF7
08EB8:  MOVLB  0
08EBA:  CALL   24DC
08EBE:  MOVLB  1
.................... if (k==55) printf(lcd_putc,"==      C  A  S  A  "); 
08EC0:  MOVF   x11,W
08EC2:  SUBLW  37
08EC4:  BNZ   8ED6
08EC6:  MOVLW  2E
08EC8:  MOVWF  FF6
08ECA:  MOVLW  1E
08ECC:  MOVWF  FF7
08ECE:  MOVLB  0
08ED0:  CALL   24DC
08ED4:  MOVLB  1
.................... if (k==60) printf(lcd_putc,"==     C  A  S  A  N"); 
08ED6:  MOVF   x11,W
08ED8:  SUBLW  3C
08EDA:  BNZ   8EEC
08EDC:  MOVLW  44
08EDE:  MOVWF  FF6
08EE0:  MOVLW  1E
08EE2:  MOVWF  FF7
08EE4:  MOVLB  0
08EE6:  CALL   24DC
08EEA:  MOVLB  1
.................... if (k==65) printf(lcd_putc,"==    C  A  S  A  N "); 
08EEC:  MOVF   x11,W
08EEE:  SUBLW  41
08EF0:  BNZ   8F02
08EF2:  MOVLW  5A
08EF4:  MOVWF  FF6
08EF6:  MOVLW  1E
08EF8:  MOVWF  FF7
08EFA:  MOVLB  0
08EFC:  CALL   24DC
08F00:  MOVLB  1
.................... if (k==70) printf(lcd_putc,"==   C  A  S  A  N  "); 
08F02:  MOVF   x11,W
08F04:  SUBLW  46
08F06:  BNZ   8F18
08F08:  MOVLW  70
08F0A:  MOVWF  FF6
08F0C:  MOVLW  1E
08F0E:  MOVWF  FF7
08F10:  MOVLB  0
08F12:  CALL   24DC
08F16:  MOVLB  1
.................... if (k==75) printf(lcd_putc,"==  C  A  S  A  N  D"); 
08F18:  MOVF   x11,W
08F1A:  SUBLW  4B
08F1C:  BNZ   8F2E
08F1E:  MOVLW  86
08F20:  MOVWF  FF6
08F22:  MOVLW  1E
08F24:  MOVWF  FF7
08F26:  MOVLB  0
08F28:  CALL   24DC
08F2C:  MOVLB  1
.................... if (k==80) printf(lcd_putc,"== C  A  S  A  N  D "); 
08F2E:  MOVF   x11,W
08F30:  SUBLW  50
08F32:  BNZ   8F44
08F34:  MOVLW  9C
08F36:  MOVWF  FF6
08F38:  MOVLW  1E
08F3A:  MOVWF  FF7
08F3C:  MOVLB  0
08F3E:  CALL   24DC
08F42:  MOVLB  1
.................... if (k==85) printf(lcd_putc,"== C A  S  A  N  D  "); 
08F44:  MOVF   x11,W
08F46:  SUBLW  55
08F48:  BNZ   8F5A
08F4A:  MOVLW  B2
08F4C:  MOVWF  FF6
08F4E:  MOVLW  1E
08F50:  MOVWF  FF7
08F52:  MOVLB  0
08F54:  CALL   24DC
08F58:  MOVLB  1
.................... if (k==90) printf(lcd_putc,"== CA  S  A  N  D  R"); 
08F5A:  MOVF   x11,W
08F5C:  SUBLW  5A
08F5E:  BNZ   8F70
08F60:  MOVLW  C8
08F62:  MOVWF  FF6
08F64:  MOVLW  1E
08F66:  MOVWF  FF7
08F68:  MOVLB  0
08F6A:  CALL   24DC
08F6E:  MOVLB  1
.................... if (k==95) printf(lcd_putc, "== CA S  A  N  D  R "); 
08F70:  MOVF   x11,W
08F72:  SUBLW  5F
08F74:  BNZ   8F86
08F76:  MOVLW  DE
08F78:  MOVWF  FF6
08F7A:  MOVLW  1E
08F7C:  MOVWF  FF7
08F7E:  MOVLB  0
08F80:  CALL   24DC
08F84:  MOVLB  1
.................... if (k==100) printf(lcd_putc,"== CAS  A  N  D  R  "); 
08F86:  MOVF   x11,W
08F88:  SUBLW  64
08F8A:  BNZ   8F9C
08F8C:  MOVLW  F4
08F8E:  MOVWF  FF6
08F90:  MOVLW  1E
08F92:  MOVWF  FF7
08F94:  MOVLB  0
08F96:  CALL   24DC
08F9A:  MOVLB  1
.................... if (k==105) printf(lcd_putc,"== CAS A  N  D  R  A"); 
08F9C:  MOVF   x11,W
08F9E:  SUBLW  69
08FA0:  BNZ   8FB2
08FA2:  MOVLW  0A
08FA4:  MOVWF  FF6
08FA6:  MOVLW  1F
08FA8:  MOVWF  FF7
08FAA:  MOVLB  0
08FAC:  CALL   24DC
08FB0:  MOVLB  1
.................... if (k==110) printf(lcd_putc,"== CASA  N  D  R  A "); 
08FB2:  MOVF   x11,W
08FB4:  SUBLW  6E
08FB6:  BNZ   8FC8
08FB8:  MOVLW  20
08FBA:  MOVWF  FF6
08FBC:  MOVLW  1F
08FBE:  MOVWF  FF7
08FC0:  MOVLB  0
08FC2:  CALL   24DC
08FC6:  MOVLB  1
.................... if (k==115) printf(lcd_putc,"== CASA N  D  R  A  "); 
08FC8:  MOVF   x11,W
08FCA:  SUBLW  73
08FCC:  BNZ   8FDE
08FCE:  MOVLW  36
08FD0:  MOVWF  FF6
08FD2:  MOVLW  1F
08FD4:  MOVWF  FF7
08FD6:  MOVLB  0
08FD8:  CALL   24DC
08FDC:  MOVLB  1
.................... if (k==120) printf(lcd_putc,"== CASAN  D  R  A   "); 
08FDE:  MOVF   x11,W
08FE0:  SUBLW  78
08FE2:  BNZ   8FF4
08FE4:  MOVLW  4C
08FE6:  MOVWF  FF6
08FE8:  MOVLW  1F
08FEA:  MOVWF  FF7
08FEC:  MOVLB  0
08FEE:  CALL   24DC
08FF2:  MOVLB  1
.................... if (k==125) printf(lcd_putc,"== CASAN D  R  A    "); 
08FF4:  MOVF   x11,W
08FF6:  SUBLW  7D
08FF8:  BNZ   900A
08FFA:  MOVLW  62
08FFC:  MOVWF  FF6
08FFE:  MOVLW  1F
09000:  MOVWF  FF7
09002:  MOVLB  0
09004:  CALL   24DC
09008:  MOVLB  1
.................... if (k==130) printf(lcd_putc,"== CASAND  R  A     "); 
0900A:  MOVF   x11,W
0900C:  SUBLW  82
0900E:  BNZ   9020
09010:  MOVLW  78
09012:  MOVWF  FF6
09014:  MOVLW  1F
09016:  MOVWF  FF7
09018:  MOVLB  0
0901A:  CALL   24DC
0901E:  MOVLB  1
.................... if (k==135) printf(lcd_putc,"== CASAND R  A      "); 
09020:  MOVF   x11,W
09022:  SUBLW  87
09024:  BNZ   9036
09026:  MOVLW  8E
09028:  MOVWF  FF6
0902A:  MOVLW  1F
0902C:  MOVWF  FF7
0902E:  MOVLB  0
09030:  CALL   24DC
09034:  MOVLB  1
.................... if (k==140) printf(lcd_putc,"== CASANDR  A       "); 
09036:  MOVF   x11,W
09038:  SUBLW  8C
0903A:  BNZ   904C
0903C:  MOVLW  A4
0903E:  MOVWF  FF6
09040:  MOVLW  1F
09042:  MOVWF  FF7
09044:  MOVLB  0
09046:  CALL   24DC
0904A:  MOVLB  1
.................... if (k==145) printf(lcd_putc,"== CASANDR A        "); 
0904C:  MOVF   x11,W
0904E:  SUBLW  91
09050:  BNZ   9062
09052:  MOVLW  BA
09054:  MOVWF  FF6
09056:  MOVLW  1F
09058:  MOVWF  FF7
0905A:  MOVLB  0
0905C:  CALL   24DC
09060:  MOVLB  1
.................... if (k==150) printf(lcd_putc,"== CASANDRA         "); 
09062:  MOVF   x11,W
09064:  SUBLW  96
09066:  BNZ   9078
09068:  MOVLW  D0
0906A:  MOVWF  FF6
0906C:  MOVLW  1F
0906E:  MOVWF  FF7
09070:  MOVLB  0
09072:  CALL   24DC
09076:  MOVLB  1
.................... if (k==155) printf(lcd_putc,"=== CASANDRA       ="); 
09078:  MOVF   x11,W
0907A:  SUBLW  9B
0907C:  BNZ   908E
0907E:  MOVLW  E6
09080:  MOVWF  FF6
09082:  MOVLW  1F
09084:  MOVWF  FF7
09086:  MOVLB  0
09088:  CALL   24DC
0908C:  MOVLB  1
.................... if (k==160) printf(lcd_putc,"==== CASANDRA     =="); 
0908E:  MOVF   x11,W
09090:  SUBLW  A0
09092:  BNZ   90A4
09094:  MOVLW  FC
09096:  MOVWF  FF6
09098:  MOVLW  1F
0909A:  MOVWF  FF7
0909C:  MOVLB  0
0909E:  CALL   24DC
090A2:  MOVLB  1
.................... if (k==165) printf(lcd_putc,"===== CASANDRA   ==="); 
090A4:  MOVF   x11,W
090A6:  SUBLW  A5
090A8:  BNZ   90BA
090AA:  MOVLW  12
090AC:  MOVWF  FF6
090AE:  MOVLW  20
090B0:  MOVWF  FF7
090B2:  MOVLB  0
090B4:  CALL   24DC
090B8:  MOVLB  1
.................... if (k==170) printf(lcd_putc,"===== CASANDRA ====="); 
090BA:  MOVF   x11,W
090BC:  SUBLW  AA
090BE:  BNZ   90D0
090C0:  MOVLW  28
090C2:  MOVWF  FF6
090C4:  MOVLW  20
090C6:  MOVWF  FF7
090C8:  MOVLB  0
090CA:  CALL   24DC
090CE:  MOVLB  1
.................... if (k==247) printf(lcd_putc,"     CASANDRA %c     ",220); 
090D0:  MOVF   x11,W
090D2:  SUBLW  F7
090D4:  BNZ   910A
090D6:  MOVLW  3E
090D8:  MOVWF  FF6
090DA:  MOVLW  20
090DC:  MOVWF  FF7
090DE:  MOVLW  0E
090E0:  MOVWF  x27
090E2:  MOVLB  0
090E4:  CALL   279A
090E8:  MOVLW  DC
090EA:  MOVLB  1
090EC:  MOVWF  x2A
090EE:  MOVLB  0
090F0:  CALL   2474
090F4:  MOVLW  4E
090F6:  MOVWF  FF6
090F8:  MOVLW  20
090FA:  MOVWF  FF7
090FC:  MOVLW  05
090FE:  MOVLB  1
09100:  MOVWF  x27
09102:  MOVLB  0
09104:  CALL   279A
09108:  MOVLB  1
....................  
.................... lcd_gotoxy(1,2); 
0910A:  MOVLW  01
0910C:  MOVWF  x2B
0910E:  MOVLW  02
09110:  MOVWF  x2C
09112:  MOVLB  0
09114:  CALL   240A
.................... printf(lcd_putc,"Vers: 0.9b  Jun-2014"); 
09118:  MOVLW  54
0911A:  MOVWF  FF6
0911C:  MOVLW  20
0911E:  MOVWF  FF7
09120:  CALL   24DC
.................... lcd_gotoxy(1,3); 
09124:  MOVLW  01
09126:  MOVLB  1
09128:  MOVWF  x2B
0912A:  MOVLW  03
0912C:  MOVWF  x2C
0912E:  MOVLB  0
09130:  CALL   240A
.................... printf(lcd_putc,"~Gonzalo Carvallo M."); 
09134:  MOVLW  6A
09136:  MOVWF  FF6
09138:  MOVLW  20
0913A:  MOVWF  FF7
0913C:  CALL   24DC
.................... lcd_gotoxy(1,4); 
09140:  MOVLW  01
09142:  MOVLB  1
09144:  MOVWF  x2B
09146:  MOVLW  04
09148:  MOVWF  x2C
0914A:  MOVLB  0
0914C:  CALL   240A
.................... printf(lcd_putc,"~gonzacarv@gmail.com"); 
09150:  MOVLW  80
09152:  MOVWF  FF6
09154:  MOVLW  20
09156:  MOVWF  FF7
09158:  CALL   24DC
.................... restart_wdt(); 
0915C:  CLRWDT
0915E:  MOVLB  1
09160:  BRA    8DA8
.................... } // while 
.................... Menu = 1; 
09162:  MOVLW  01
09164:  MOVWF  27
09166:  MOVLB  0
09168:  GOTO   9284 (RETURN)
.................... } // fn 
....................  

Configuration Fuses:
   Word  1: C100   XT FCMEN IESO
   Word  2: 151E   PUT BROWNOUT BORV21 WDT WDT1024
   Word  3: 8700   CCP2C1 PBADEN LPT1OSC MCLR
   Word  4: 0081   STVREN NOLVP NOXINST NODEBUG
   Word  5: C00F   NOPROTECT NOCPB NOCPD
   Word  6: E00F   NOWRT NOWRTC NOWRTB NOWRTD
   Word  7: 400F   NOEBTR NOEBTRB
