CCS PCH C Compiler, Version 5.025, 29880               06-may-15 19:41

               Filename:   D:\Dropbox\Gonzalo\Proyecto Casandra\Version final\Soft\Servidor\main.lst

               ROM used:   47710 bytes (73%)
                           Largest free fragment is 17822
               RAM used:   491 (12%) at main() level
                           567 (14%) worst case
               Stack used: 8 locations (6 in main + 2 for interrupts)
               Stack size: 31

*
00000:  GOTO   B940
*
00008:  MOVWF  04
0000A:  MOVFF  FD8,05
0000E:  MOVFF  FE0,06
00012:  MOVLB  0
00014:  MOVFF  FE9,0C
00018:  MOVFF  FEA,07
0001C:  MOVFF  FE1,08
00020:  MOVFF  FE2,09
00024:  MOVFF  FD9,0A
00028:  MOVFF  FDA,0B
0002C:  MOVFF  FF3,12
00030:  MOVFF  FF4,13
00034:  MOVFF  FFA,14
00038:  MOVFF  FF5,15
0003C:  MOVFF  FF6,16
00040:  MOVFF  FF7,17
00044:  MOVFF  00,0E
00048:  MOVFF  01,0F
0004C:  MOVFF  02,10
00050:  MOVFF  03,11
00054:  BTFSS  F9D.0
00056:  GOTO   0060
0005A:  BTFSC  F9E.0
0005C:  GOTO   1FA0
00060:  BTFSS  F9D.5
00062:  GOTO   006C
00066:  BTFSC  F9E.5
00068:  GOTO   126E
0006C:  MOVFF  0E,00
00070:  MOVFF  0F,01
00074:  MOVFF  10,02
00078:  MOVFF  11,03
0007C:  MOVFF  0C,FE9
00080:  MOVFF  07,FEA
00084:  BSF    07.7
00086:  MOVFF  08,FE1
0008A:  MOVFF  09,FE2
0008E:  MOVFF  0A,FD9
00092:  MOVFF  0B,FDA
00096:  MOVFF  12,FF3
0009A:  MOVFF  13,FF4
0009E:  MOVFF  14,FFA
000A2:  MOVFF  15,FF5
000A6:  MOVFF  16,FF6
000AA:  MOVFF  17,FF7
000AE:  MOVF   04,W
000B0:  MOVFF  06,FE0
000B4:  MOVFF  05,FD8
000B8:  RETFIE 0
.................... /*====================================================================================================== 
.................... ||   Proyecto: Casandra v1.0                                                                          || 
.................... ||   Autor: Gonzalo Carvallo (gonzacarv@gmail.com)                                                    || 
.................... ||   Fecha: 07/2014                                                                                   || 
.................... ||   Compilador: PCWHD v5.025 (www.ccsinfo.com)                                                       || 
.................... ||   Fuente: http://                                                                                  || 
.................... ||                                                                                                    || 
.................... || Firmware del modulo servidor (display, teclado, sensor de humedad y temperatura) correspondiente   || 
.................... || al sistema domotico CASANDRA. Control general con uso intensivo de EEPROM. Comunicacion sobre par  || 
.................... || trenzado usando el transceptor SN75176.                                                            || 
.................... ||                                                                                                    || 
.................... ======================================================================================================*/ 
....................  
.................... #include <18f4620.h> 
.................... //////////// Standard Header file for the PIC18F4620 device //////////////// 
.................... /////////////////////////////////////////////////////////////////////////// 
.................... ////        (C) Copyright 1996, 2013 Custom Computer Services          //// 
.................... //// This source code may only be used by licensed users of the CCS C  //// 
.................... //// compiler.  This source code may only be distributed to other      //// 
.................... //// licensed users of the CCS C compiler.  No other use, reproduction //// 
.................... //// or distribution is permitted without written permission.          //// 
.................... //// Derivative programs created using this software in object code    //// 
.................... //// form are not restricted in any way.                               //// 
.................... /////////////////////////////////////////////////////////////////////////// 
.................... #device PIC18F4620 
000BA:  CLRF   FF7
000BC:  ADDLW  CA
000BE:  MOVWF  FF6
000C0:  MOVLW  00
000C2:  ADDWFC FF7,F
000C4:  TBLRD*+
000C6:  MOVF   FF5,W
000C8:  RETURN 0
000CA:  DATA 28,0C
000CC:  DATA 01,06
000CE:  CLRF   FF7
000D0:  ADDLW  DE
000D2:  MOVWF  FF6
000D4:  MOVLW  00
000D6:  ADDWFC FF7,F
000D8:  TBLRD*+
000DA:  MOVF   FF5,W
000DC:  RETURN 0
000DE:  DATA 20,4C
000E0:  DATA 75,6E
000E2:  DATA 20,3D
000E4:  DATA 3D,00
000E6:  CLRF   FF7
000E8:  ADDLW  F6
000EA:  MOVWF  FF6
000EC:  MOVLW  00
000EE:  ADDWFC FF7,F
000F0:  TBLRD*+
000F2:  MOVF   FF5,W
000F4:  RETURN 0
000F6:  DATA 20,4D
000F8:  DATA 61,72
000FA:  DATA 20,3D
000FC:  DATA 3D,00
000FE:  CLRF   FF7
00100:  ADDLW  0E
00102:  MOVWF  FF6
00104:  MOVLW  01
00106:  ADDWFC FF7,F
00108:  TBLRD*+
0010A:  MOVF   FF5,W
0010C:  RETURN 0
0010E:  DATA 20,4D
00110:  DATA 69,65
00112:  DATA 72,20
00114:  DATA 3D,00
00116:  CLRF   FF7
00118:  ADDLW  26
0011A:  MOVWF  FF6
0011C:  MOVLW  01
0011E:  ADDWFC FF7,F
00120:  TBLRD*+
00122:  MOVF   FF5,W
00124:  RETURN 0
00126:  DATA 20,4A
00128:  DATA 75,65
0012A:  DATA 20,3D
0012C:  DATA 3D,00
0012E:  CLRF   FF7
00130:  ADDLW  3E
00132:  MOVWF  FF6
00134:  MOVLW  01
00136:  ADDWFC FF7,F
00138:  TBLRD*+
0013A:  MOVF   FF5,W
0013C:  RETURN 0
0013E:  DATA 20,56
00140:  DATA 69,65
00142:  DATA 20,3D
00144:  DATA 3D,00
00146:  CLRF   FF7
00148:  ADDLW  56
0014A:  MOVWF  FF6
0014C:  MOVLW  01
0014E:  ADDWFC FF7,F
00150:  TBLRD*+
00152:  MOVF   FF5,W
00154:  RETURN 0
00156:  DATA 20,53
00158:  DATA 61,62
0015A:  DATA 20,3D
0015C:  DATA 3D,00
0015E:  CLRF   FF7
00160:  ADDLW  6E
00162:  MOVWF  FF6
00164:  MOVLW  01
00166:  ADDWFC FF7,F
00168:  TBLRD*+
0016A:  MOVF   FF5,W
0016C:  RETURN 0
0016E:  DATA 20,44
00170:  DATA 6F,6D
00172:  DATA 20,3D
00174:  DATA 3D,00
00176:  CLRF   FF7
00178:  ADDLW  86
0017A:  MOVWF  FF6
0017C:  MOVLW  01
0017E:  ADDWFC FF7,F
00180:  TBLRD*+
00182:  MOVF   FF5,W
00184:  RETURN 0
00186:  DATA 20,48
00188:  DATA 6F,79
0018A:  DATA 20,3D
0018C:  DATA 3D,00
0018E:  CLRF   FF7
00190:  ADDLW  9E
00192:  MOVWF  FF6
00194:  MOVLW  01
00196:  ADDWFC FF7,F
00198:  TBLRD*+
0019A:  MOVF   FF5,W
0019C:  RETURN 0
0019E:  DATA 53,49
001A0:  DATA 00,00
001A2:  CLRF   FF7
001A4:  ADDLW  B2
001A6:  MOVWF  FF6
001A8:  MOVLW  01
001AA:  ADDWFC FF7,F
001AC:  TBLRD*+
001AE:  MOVF   FF5,W
001B0:  RETURN 0
001B2:  DATA 4E,4F
001B4:  DATA 00,00
001B6:  CLRF   FF7
001B8:  ADDLW  C6
001BA:  MOVWF  FF6
001BC:  MOVLW  01
001BE:  ADDWFC FF7,F
001C0:  TBLRD*+
001C2:  MOVF   FF5,W
001C4:  RETURN 0
001C6:  DATA 4C,75
001C8:  DATA 6E,00
001CA:  CLRF   FF7
001CC:  ADDLW  DA
001CE:  MOVWF  FF6
001D0:  MOVLW  01
001D2:  ADDWFC FF7,F
001D4:  TBLRD*+
001D6:  MOVF   FF5,W
001D8:  RETURN 0
001DA:  DATA 20,58
001DC:  DATA 20,00
001DE:  CLRF   FF7
001E0:  ADDLW  EE
001E2:  MOVWF  FF6
001E4:  MOVLW  01
001E6:  ADDWFC FF7,F
001E8:  TBLRD*+
001EA:  MOVF   FF5,W
001EC:  RETURN 0
001EE:  DATA 4D,61
001F0:  DATA 72,00
001F2:  CLRF   FF7
001F4:  ADDLW  02
001F6:  MOVWF  FF6
001F8:  MOVLW  02
001FA:  ADDWFC FF7,F
001FC:  TBLRD*+
001FE:  MOVF   FF5,W
00200:  RETURN 0
00202:  DATA 4D,69
00204:  DATA 65,72
00206:  DATA 00,00
00208:  CLRF   FF7
0020A:  ADDLW  18
0020C:  MOVWF  FF6
0020E:  MOVLW  02
00210:  ADDWFC FF7,F
00212:  TBLRD*+
00214:  MOVF   FF5,W
00216:  RETURN 0
00218:  DATA 20,58
0021A:  DATA 20,20
0021C:  DATA 00,00
0021E:  CLRF   FF7
00220:  ADDLW  2E
00222:  MOVWF  FF6
00224:  MOVLW  02
00226:  ADDWFC FF7,F
00228:  TBLRD*+
0022A:  MOVF   FF5,W
0022C:  RETURN 0
0022E:  DATA 4A,75
00230:  DATA 65,00
00232:  CLRF   FF7
00234:  ADDLW  42
00236:  MOVWF  FF6
00238:  MOVLW  02
0023A:  ADDWFC FF7,F
0023C:  TBLRD*+
0023E:  MOVF   FF5,W
00240:  RETURN 0
00242:  DATA 56,69
00244:  DATA 65,00
00246:  CLRF   FF7
00248:  ADDLW  56
0024A:  MOVWF  FF6
0024C:  MOVLW  02
0024E:  ADDWFC FF7,F
00250:  TBLRD*+
00252:  MOVF   FF5,W
00254:  RETURN 0
00256:  DATA 53,61
00258:  DATA 62,00
0025A:  CLRF   FF7
0025C:  ADDLW  6A
0025E:  MOVWF  FF6
00260:  MOVLW  02
00262:  ADDWFC FF7,F
00264:  TBLRD*+
00266:  MOVF   FF5,W
00268:  RETURN 0
0026A:  DATA 44,6F
0026C:  DATA 6D,00
0026E:  CLRF   FF7
00270:  ADDLW  7E
00272:  MOVWF  FF6
00274:  MOVLW  02
00276:  ADDWFC FF7,F
00278:  TBLRD*+
0027A:  MOVF   FF5,W
0027C:  RETURN 0
0027E:  DATA 20,20
00280:  DATA 20,00
00282:  CLRF   FF7
00284:  ADDLW  92
00286:  MOVWF  FF6
00288:  MOVLW  02
0028A:  ADDWFC FF7,F
0028C:  TBLRD*+
0028E:  MOVF   FF5,W
00290:  RETURN 0
00292:  DATA 20,20
00294:  DATA 20,20
00296:  DATA 00,00
00298:  CLRF   FF7
0029A:  ADDLW  A8
0029C:  MOVWF  FF6
0029E:  MOVLW  02
002A0:  ADDWFC FF7,F
002A2:  TBLRD*+
002A4:  MOVF   FF5,W
002A6:  RETURN 0
002A8:  DATA 4F,4E
002AA:  DATA 00,00
002AC:  CLRF   FF7
002AE:  ADDLW  BC
002B0:  MOVWF  FF6
002B2:  MOVLW  02
002B4:  ADDWFC FF7,F
002B6:  TBLRD*+
002B8:  MOVF   FF5,W
002BA:  RETURN 0
002BC:  DATA 4F,46
002BE:  DATA 46,20
002C0:  DATA 20,00
002C2:  CLRF   FF7
002C4:  ADDLW  D2
002C6:  MOVWF  FF6
002C8:  MOVLW  02
002CA:  ADDWFC FF7,F
002CC:  TBLRD*+
002CE:  MOVF   FF5,W
002D0:  RETURN 0
002D2:  DATA 4C,75
002D4:  DATA 6E,65
002D6:  DATA 73,20
002D8:  DATA 20,20
002DA:  DATA 20,00
002DC:  CLRF   FF7
002DE:  ADDLW  EC
002E0:  MOVWF  FF6
002E2:  MOVLW  02
002E4:  ADDWFC FF7,F
002E6:  TBLRD*+
002E8:  MOVF   FF5,W
002EA:  RETURN 0
002EC:  DATA 4D,61
002EE:  DATA 72,74
002F0:  DATA 65,73
002F2:  DATA 20,20
002F4:  DATA 20,00
002F6:  CLRF   FF7
002F8:  ADDLW  06
002FA:  MOVWF  FF6
002FC:  MOVLW  03
002FE:  ADDWFC FF7,F
00300:  TBLRD*+
00302:  MOVF   FF5,W
00304:  RETURN 0
00306:  DATA 4D,69
00308:  DATA 65,72
0030A:  DATA 63,6F
0030C:  DATA 6C,65
0030E:  DATA 73,00
00310:  CLRF   FF7
00312:  ADDLW  20
00314:  MOVWF  FF6
00316:  MOVLW  03
00318:  ADDWFC FF7,F
0031A:  TBLRD*+
0031C:  MOVF   FF5,W
0031E:  RETURN 0
00320:  DATA 4A,75
00322:  DATA 65,76
00324:  DATA 65,73
00326:  DATA 20,20
00328:  DATA 20,00
0032A:  CLRF   FF7
0032C:  ADDLW  3A
0032E:  MOVWF  FF6
00330:  MOVLW  03
00332:  ADDWFC FF7,F
00334:  TBLRD*+
00336:  MOVF   FF5,W
00338:  RETURN 0
0033A:  DATA 56,69
0033C:  DATA 65,72
0033E:  DATA 6E,65
00340:  DATA 73,20
00342:  DATA 20,00
00344:  CLRF   FF7
00346:  ADDLW  54
00348:  MOVWF  FF6
0034A:  MOVLW  03
0034C:  ADDWFC FF7,F
0034E:  TBLRD*+
00350:  MOVF   FF5,W
00352:  RETURN 0
00354:  DATA 53,61
00356:  DATA 62,61
00358:  DATA 64,6F
0035A:  DATA 20,20
0035C:  DATA 20,00
0035E:  CLRF   FF7
00360:  ADDLW  6E
00362:  MOVWF  FF6
00364:  MOVLW  03
00366:  ADDWFC FF7,F
00368:  TBLRD*+
0036A:  MOVF   FF5,W
0036C:  RETURN 0
0036E:  DATA 44,6F
00370:  DATA 6D,69
00372:  DATA 6E,67
00374:  DATA 6F,20
00376:  DATA 20,00
00378:  CLRF   FF7
0037A:  ADDLW  88
0037C:  MOVWF  FF6
0037E:  MOVLW  03
00380:  ADDWFC FF7,F
00382:  TBLRD*+
00384:  MOVF   FF5,W
00386:  RETURN 0
00388:  DATA 45,6E
0038A:  DATA 65,00
0038C:  CLRF   FF7
0038E:  ADDLW  9C
00390:  MOVWF  FF6
00392:  MOVLW  03
00394:  ADDWFC FF7,F
00396:  TBLRD*+
00398:  MOVF   FF5,W
0039A:  RETURN 0
0039C:  DATA 46,65
0039E:  DATA 62,00
003A0:  CLRF   FF7
003A2:  ADDLW  B0
003A4:  MOVWF  FF6
003A6:  MOVLW  03
003A8:  ADDWFC FF7,F
003AA:  TBLRD*+
003AC:  MOVF   FF5,W
003AE:  RETURN 0
003B0:  DATA 41,62
003B2:  DATA 72,00
003B4:  CLRF   FF7
003B6:  ADDLW  C4
003B8:  MOVWF  FF6
003BA:  MOVLW  03
003BC:  ADDWFC FF7,F
003BE:  TBLRD*+
003C0:  MOVF   FF5,W
003C2:  RETURN 0
003C4:  DATA 4D,61
003C6:  DATA 79,00
003C8:  CLRF   FF7
003CA:  ADDLW  D8
003CC:  MOVWF  FF6
003CE:  MOVLW  03
003D0:  ADDWFC FF7,F
003D2:  TBLRD*+
003D4:  MOVF   FF5,W
003D6:  RETURN 0
003D8:  DATA 4A,75
003DA:  DATA 6E,00
003DC:  CLRF   FF7
003DE:  ADDLW  EC
003E0:  MOVWF  FF6
003E2:  MOVLW  03
003E4:  ADDWFC FF7,F
003E6:  TBLRD*+
003E8:  MOVF   FF5,W
003EA:  RETURN 0
003EC:  DATA 4A,75
003EE:  DATA 6C,00
003F0:  CLRF   FF7
003F2:  ADDLW  00
003F4:  MOVWF  FF6
003F6:  MOVLW  04
003F8:  ADDWFC FF7,F
003FA:  TBLRD*+
003FC:  MOVF   FF5,W
003FE:  RETURN 0
00400:  DATA 41,67
00402:  DATA 6F,00
00404:  CLRF   FF7
00406:  ADDLW  14
00408:  MOVWF  FF6
0040A:  MOVLW  04
0040C:  ADDWFC FF7,F
0040E:  TBLRD*+
00410:  MOVF   FF5,W
00412:  RETURN 0
00414:  DATA 53,65
00416:  DATA 70,00
00418:  CLRF   FF7
0041A:  ADDLW  28
0041C:  MOVWF  FF6
0041E:  MOVLW  04
00420:  ADDWFC FF7,F
00422:  TBLRD*+
00424:  MOVF   FF5,W
00426:  RETURN 0
00428:  DATA 4F,63
0042A:  DATA 74,00
0042C:  CLRF   FF7
0042E:  ADDLW  3C
00430:  MOVWF  FF6
00432:  MOVLW  04
00434:  ADDWFC FF7,F
00436:  TBLRD*+
00438:  MOVF   FF5,W
0043A:  RETURN 0
0043C:  DATA 4E,6F
0043E:  DATA 76,00
00440:  CLRF   FF7
00442:  ADDLW  50
00444:  MOVWF  FF6
00446:  MOVLW  04
00448:  ADDWFC FF7,F
0044A:  TBLRD*+
0044C:  MOVF   FF5,W
0044E:  RETURN 0
00450:  DATA 44,69
00452:  DATA 63,00
00454:  CLRF   FF7
00456:  ADDLW  64
00458:  MOVWF  FF6
0045A:  MOVLW  04
0045C:  ADDWFC FF7,F
0045E:  TBLRD*+
00460:  MOVF   FF5,W
00462:  RETURN 0
00464:  DATA 4D,69
00466:  DATA 65,00
00468:  CLRF   FF7
0046A:  ADDLW  78
0046C:  MOVWF  FF6
0046E:  MOVLW  04
00470:  ADDWFC FF7,F
00472:  TBLRD*+
00474:  MOVF   FF5,W
00476:  RETURN 0
00478:  DATA 3F,3F
0047A:  DATA 00,00
0047C:  DATA 0C,00
0047E:  DATA 3D,3D
00480:  DATA 20,4D
00482:  DATA 61,78
00484:  DATA 2F,4D
00486:  DATA 69,6E
00488:  DATA 20,64
0048A:  DATA 65,25
0048C:  DATA 73,00
0048E:  DATA 4D,61
00490:  DATA 78,69
00492:  DATA 6D,61
00494:  DATA 3A,20
00496:  DATA 25,32
00498:  DATA 64,25
0049A:  DATA 63,43
0049C:  DATA 20,28
0049E:  DATA 25,30
004A0:  DATA 32,64
004A2:  DATA 3A,25
004A4:  DATA 30,32
004A6:  DATA 64,29
004A8:  DATA 00,00
004AA:  DATA 4D,69
004AC:  DATA 6E,69
004AE:  DATA 6D,61
004B0:  DATA 3A,20
004B2:  DATA 25,32
004B4:  DATA 64,25
004B6:  DATA 63,43
004B8:  DATA 20,28
004BA:  DATA 25,30
004BC:  DATA 32,64
004BE:  DATA 3A,25
004C0:  DATA 30,32
004C2:  DATA 64,29
004C4:  DATA 00,00
004C6:  DATA 53,6F
004C8:  DATA 6C,20
004CA:  DATA 6D,61
004CC:  DATA 78,3A
004CE:  DATA 25,33
004D0:  DATA 75,20
004D2:  DATA 20,28
004D4:  DATA 25,30
004D6:  DATA 32,64
004D8:  DATA 3A,25
004DA:  DATA 30,32
004DC:  DATA 64,29
004DE:  DATA 00,00
004E0:  DATA 0C,00
004E2:  DATA 3D,3D
004E4:  DATA 3D,20
004E6:  DATA 54,65
004E8:  DATA 6E,73
004EA:  DATA 69,6F
004EC:  DATA 6E,65
004EE:  DATA 73,28
004F0:  DATA 56,29
004F2:  DATA 20,3D
004F4:  DATA 3D,3D
004F6:  DATA 00,00
004F8:  DATA 20,28
004FA:  DATA 52,29
004FC:  DATA 20,2F
004FE:  DATA 2F,20
00500:  DATA 28,53
00502:  DATA 29,20
00504:  DATA 2F,2F
00506:  DATA 20,28
00508:  DATA 54,29
0050A:  DATA 20,20
0050C:  DATA 00,00
0050E:  DATA 20,20
00510:  DATA 20,42
00512:  DATA 61,74
00514:  DATA 65,72
00516:  DATA 69,61
00518:  DATA 3A,20
0051A:  DATA 25,33
0051C:  DATA 2E,31
0051E:  DATA 77,76
00520:  DATA 20,20
00522:  DATA 20,00
00524:  DATA 0C,00
00526:  DATA 3D,20
00528:  DATA 43,6F
0052A:  DATA 6E,66
0052C:  DATA 2E,20
0052E:  DATA 46,6F
00530:  DATA 74,6F
00532:  DATA 63,65
00534:  DATA 6C,75
00536:  DATA 6C,61
00538:  DATA 20,3D
0053A:  DATA 00,00
0053C:  DATA 53,65
0053E:  DATA 6C,65
00540:  DATA 63,63
00542:  DATA 69,6F
00544:  DATA 6E,65
00546:  DATA 20,65
00548:  DATA 6C,20
0054A:  DATA 6E,69
0054C:  DATA 76,65
0054E:  DATA 6C,20
00550:  DATA 00,00
00552:  DATA 64,65
00554:  DATA 6C,20
00556:  DATA 75,6D
00558:  DATA 62,72
0055A:  DATA 61,6C
0055C:  DATA 20,64
0055E:  DATA 65,20
00560:  DATA 53,6F
00562:  DATA 6C,3A
00564:  DATA 20,20
00566:  DATA 00,00
00568:  DATA 20,20
0056A:  DATA 20,20
0056C:  DATA 20,20
0056E:  DATA 2D,7E
00570:  DATA 25,33
00572:  DATA 75,25
00574:  DATA 25,20
00576:  DATA 20,20
00578:  DATA 20,20
0057A:  DATA 20,20
0057C:  DATA 20,00
0057E:  DATA 20,20
00580:  DATA 20,20
00582:  DATA 20,20
00584:  DATA 2D,7E
00586:  DATA 20,20
00588:  DATA 20,25
0058A:  DATA 25,20
0058C:  DATA 20,20
0058E:  DATA 20,20
00590:  DATA 20,20
00592:  DATA 20,00
00594:  DATA 0C,00
00596:  DATA 3D,20
00598:  DATA 4C,75
0059A:  DATA 63,65
0059C:  DATA 73,20
0059E:  DATA 41,75
005A0:  DATA 74,6F
005A2:  DATA 6D,61
005A4:  DATA 74,69
005A6:  DATA 63,2E
005A8:  DATA 20,3D
005AA:  DATA 00,00
005AC:  DATA 4C,75
005AE:  DATA 7A,20
005B0:  DATA 23,25
005B2:  DATA 30,32
005B4:  DATA 75,20
005B6:  DATA 70,65
005B8:  DATA 72,74
005BA:  DATA 65,6E
005BC:  DATA 65,63
005BE:  DATA 65,20
005C0:  DATA 61,3A
005C2:  DATA 00,00
005C4:  DATA 4C,75
005C6:  DATA 7A,20
005C8:  DATA 20,20
005CA:  DATA 20,20
005CC:  DATA 70,65
005CE:  DATA 72,74
005D0:  DATA 65,6E
005D2:  DATA 65,63
005D4:  DATA 65,20
005D6:  DATA 61,3A
005D8:  DATA 00,00
005DA:  DATA 4C,75
005DC:  DATA 7A,20
005DE:  DATA 23,25
005E0:  DATA 30,32
005E2:  DATA 75,20
005E4:  DATA 70,65
005E6:  DATA 72,74
005E8:  DATA 65,6E
005EA:  DATA 65,63
005EC:  DATA 65,20
005EE:  DATA 61,3A
005F0:  DATA 00,00
005F2:  DATA 47,72
005F4:  DATA 75,70
005F6:  DATA 6F,20
005F8:  DATA 41,75
005FA:  DATA 74,6F
005FC:  DATA 20,28
005FE:  DATA 31,29
00600:  DATA 3A,20
00602:  DATA 2D,25
00604:  DATA 73,2D
00606:  DATA 00,00
00608:  DATA 47,72
0060A:  DATA 75,70
0060C:  DATA 6F,20
0060E:  DATA 41,75
00610:  DATA 74,6F
00612:  DATA 20,28
00614:  DATA 31,29
00616:  DATA 3A,20
00618:  DATA 2D,20
0061A:  DATA 20,2D
0061C:  DATA 00,00
0061E:  DATA 47,72
00620:  DATA 75,70
00622:  DATA 6F,20
00624:  DATA 41,75
00626:  DATA 74,6F
00628:  DATA 20,28
0062A:  DATA 31,29
0062C:  DATA 3A,20
0062E:  DATA 2D,25
00630:  DATA 73,2D
00632:  DATA 00,00
00634:  DATA 47,72
00636:  DATA 75,70
00638:  DATA 6F,20
0063A:  DATA 41,75
0063C:  DATA 74,6F
0063E:  DATA 20,28
00640:  DATA 32,29
00642:  DATA 3A,20
00644:  DATA 2D,25
00646:  DATA 73,2D
00648:  DATA 00,00
0064A:  DATA 47,72
0064C:  DATA 75,70
0064E:  DATA 6F,20
00650:  DATA 41,75
00652:  DATA 74,6F
00654:  DATA 20,28
00656:  DATA 32,29
00658:  DATA 3A,20
0065A:  DATA 2D,20
0065C:  DATA 20,2D
0065E:  DATA 00,00
00660:  DATA 47,72
00662:  DATA 75,70
00664:  DATA 6F,20
00666:  DATA 41,75
00668:  DATA 74,6F
0066A:  DATA 20,28
0066C:  DATA 32,29
0066E:  DATA 3A,20
00670:  DATA 2D,25
00672:  DATA 73,2D
00674:  DATA 00,00
00676:  DATA 0C,00
00678:  DATA 3D,3D
0067A:  DATA 3D,3D
0067C:  DATA 3D,20
0067E:  DATA 20,48
00680:  DATA 6F,72
00682:  DATA 61,72
00684:  DATA 69,6F
00686:  DATA 20,3D
00688:  DATA 3D,3D
0068A:  DATA 3D,3D
0068C:  DATA 00,00
0068E:  DATA 20,20
00690:  DATA 47,72
00692:  DATA 75,70
00694:  DATA 6F,3A
00696:  DATA 20,20
00698:  DATA 41,55
0069A:  DATA 54,4F
0069C:  DATA 20,28
0069E:  DATA 31,29
006A0:  DATA 20,20
006A2:  DATA 00,00
006A4:  DATA 20,20
006A6:  DATA 47,72
006A8:  DATA 75,70
006AA:  DATA 6F,3A
006AC:  DATA 20,20
006AE:  DATA 20,20
006B0:  DATA 20,20
006B2:  DATA 20,20
006B4:  DATA 20,20
006B6:  DATA 20,20
006B8:  DATA 00,00
006BA:  DATA 20,20
006BC:  DATA 47,72
006BE:  DATA 75,70
006C0:  DATA 6F,3A
006C2:  DATA 20,20
006C4:  DATA 41,55
006C6:  DATA 54,4F
006C8:  DATA 20,28
006CA:  DATA 32,29
006CC:  DATA 20,20
006CE:  DATA 00,00
006D0:  DATA 20,20
006D2:  DATA 47,72
006D4:  DATA 75,70
006D6:  DATA 6F,3A
006D8:  DATA 20,20
006DA:  DATA 20,20
006DC:  DATA 20,20
006DE:  DATA 20,20
006E0:  DATA 20,20
006E2:  DATA 20,20
006E4:  DATA 00,00
006E6:  DATA 20,20
006E8:  DATA 47,72
006EA:  DATA 75,70
006EC:  DATA 6F,3A
006EE:  DATA 20,20
006F0:  DATA 41,55
006F2:  DATA 54,4F
006F4:  DATA 20,28
006F6:  DATA 31,29
006F8:  DATA 20,20
006FA:  DATA 00,00
006FC:  DATA 20,20
006FE:  DATA 47,72
00700:  DATA 75,70
00702:  DATA 6F,3A
00704:  DATA 20,20
00706:  DATA 41,55
00708:  DATA 54,4F
0070A:  DATA 20,28
0070C:  DATA 32,29
0070E:  DATA 20,20
00710:  DATA 00,00
00712:  DATA 20,45
00714:  DATA 6E,63
00716:  DATA 65,6E
00718:  DATA 64,69
0071A:  DATA 64,6F
0071C:  DATA 3A,20
0071E:  DATA 46,6F
00720:  DATA 74,6F
00722:  DATA 63,65
00724:  DATA 6C,20
00726:  DATA 00,00
00728:  DATA 20,45
0072A:  DATA 6E,63
0072C:  DATA 65,6E
0072E:  DATA 64,69
00730:  DATA 64,6F
00732:  DATA 3A,20
00734:  DATA 25,30
00736:  DATA 32,75
00738:  DATA 20,68
0073A:  DATA 73,20
0073C:  DATA 20,20
0073E:  DATA 00,00
00740:  DATA 20,45
00742:  DATA 6E,63
00744:  DATA 65,6E
00746:  DATA 64,69
00748:  DATA 64,6F
0074A:  DATA 3A,20
0074C:  DATA 20,20
0074E:  DATA 20,20
00750:  DATA 20,20
00752:  DATA 20,20
00754:  DATA 00,00
00756:  DATA 20,45
00758:  DATA 6E,63
0075A:  DATA 65,6E
0075C:  DATA 64,69
0075E:  DATA 64,6F
00760:  DATA 3A,20
00762:  DATA 46,6F
00764:  DATA 74,6F
00766:  DATA 63,65
00768:  DATA 6C,20
0076A:  DATA 00,00
0076C:  DATA 20,45
0076E:  DATA 6E,63
00770:  DATA 65,6E
00772:  DATA 64,69
00774:  DATA 64,6F
00776:  DATA 3A,20
00778:  DATA 25,30
0077A:  DATA 32,75
0077C:  DATA 20,68
0077E:  DATA 73,20
00780:  DATA 20,20
00782:  DATA 00,00
00784:  DATA 20,41
00786:  DATA 70,61
00788:  DATA 67,61
0078A:  DATA 64,6F
0078C:  DATA 3A,20
0078E:  DATA 46,6F
00790:  DATA 74,6F
00792:  DATA 63,65
00794:  DATA 6C,64
00796:  DATA 61,20
00798:  DATA 00,00
0079A:  DATA 20,41
0079C:  DATA 70,61
0079E:  DATA 67,61
007A0:  DATA 64,6F
007A2:  DATA 3A,20
007A4:  DATA 25,30
007A6:  DATA 32,75
007A8:  DATA 20,68
007AA:  DATA 73,20
007AC:  DATA 20,20
007AE:  DATA 20,20
007B0:  DATA 00,00
007B2:  DATA 20,41
007B4:  DATA 70,61
007B6:  DATA 67,61
007B8:  DATA 64,6F
007BA:  DATA 3A,20
007BC:  DATA 20,20
007BE:  DATA 20,20
007C0:  DATA 20,20
007C2:  DATA 20,20
007C4:  DATA 20,20
007C6:  DATA 00,00
007C8:  DATA 20,41
007CA:  DATA 70,61
007CC:  DATA 67,61
007CE:  DATA 64,6F
007D0:  DATA 3A,20
007D2:  DATA 46,6F
007D4:  DATA 74,6F
007D6:  DATA 63,65
007D8:  DATA 6C,64
007DA:  DATA 61,20
007DC:  DATA 00,00
007DE:  DATA 20,41
007E0:  DATA 70,61
007E2:  DATA 67,61
007E4:  DATA 64,6F
007E6:  DATA 3A,20
007E8:  DATA 25,30
007EA:  DATA 32,75
007EC:  DATA 20,68
007EE:  DATA 73,20
007F0:  DATA 20,20
007F2:  DATA 20,20
007F4:  DATA 00,00
007F6:  DATA 0C,00
007F8:  DATA 3D,20
007FA:  DATA 53,65
007FC:  DATA 6C,65
007FE:  DATA 63,63
00800:  DATA 69,6F
00802:  DATA 6E,61
00804:  DATA 72,20
00806:  DATA 64,69
00808:  DATA 61,73
0080A:  DATA 20,3D
0080C:  DATA 00,00
0080E:  DATA 20,20
00810:  DATA 47,72
00812:  DATA 75,70
00814:  DATA 6F,3A
00816:  DATA 20,20
00818:  DATA 41,55
0081A:  DATA 54,4F
0081C:  DATA 20,28
0081E:  DATA 31,29
00820:  DATA 20,20
00822:  DATA 00,00
00824:  DATA 20,20
00826:  DATA 47,72
00828:  DATA 75,70
0082A:  DATA 6F,3A
0082C:  DATA 20,20
0082E:  DATA 20,20
00830:  DATA 20,20
00832:  DATA 20,20
00834:  DATA 20,20
00836:  DATA 20,20
00838:  DATA 00,00
0083A:  DATA 20,20
0083C:  DATA 47,72
0083E:  DATA 75,70
00840:  DATA 6F,3A
00842:  DATA 20,20
00844:  DATA 41,55
00846:  DATA 54,4F
00848:  DATA 20,28
0084A:  DATA 32,29
0084C:  DATA 20,20
0084E:  DATA 00,00
00850:  DATA 20,20
00852:  DATA 47,72
00854:  DATA 75,70
00856:  DATA 6F,3A
00858:  DATA 20,20
0085A:  DATA 20,20
0085C:  DATA 20,20
0085E:  DATA 20,20
00860:  DATA 20,20
00862:  DATA 20,20
00864:  DATA 00,00
00866:  DATA 20,20
00868:  DATA 47,72
0086A:  DATA 75,70
0086C:  DATA 6F,3A
0086E:  DATA 20,20
00870:  DATA 41,55
00872:  DATA 54,4F
00874:  DATA 20,28
00876:  DATA 31,29
00878:  DATA 20,20
0087A:  DATA 00,00
0087C:  DATA 20,20
0087E:  DATA 47,72
00880:  DATA 75,70
00882:  DATA 6F,3A
00884:  DATA 20,20
00886:  DATA 41,55
00888:  DATA 54,4F
0088A:  DATA 20,28
0088C:  DATA 32,29
0088E:  DATA 20,20
00890:  DATA 00,00
00892:  DATA 20,20
00894:  DATA 20,20
00896:  DATA 20,20
00898:  DATA 25,73
0089A:  DATA 2D,25
0089C:  DATA 73,20
0089E:  DATA 20,20
008A0:  DATA 20,20
008A2:  DATA 20,20
008A4:  DATA 00,00
008A6:  DATA 0C,00
008A8:  DATA 3D,3D
008AA:  DATA 20,43
008AC:  DATA 6F,6E
008AE:  DATA 74,72
008B0:  DATA 6F,6C
008B2:  DATA 20,47
008B4:  DATA 72,75
008B6:  DATA 70,61
008B8:  DATA 6C,20
008BA:  DATA 3D,3D
008BC:  DATA 00,00
008BE:  DATA 20,20
008C0:  DATA 20,25
008C2:  DATA 63,47
008C4:  DATA 72,75
008C6:  DATA 70,6F
008C8:  DATA 3F,20
008CA:  DATA 54,4F
008CC:  DATA 44,41
008CE:  DATA 53,20
008D0:  DATA 20,20
008D2:  DATA 20,00
008D4:  DATA 20,20
008D6:  DATA 20,25
008D8:  DATA 63,47
008DA:  DATA 72,75
008DC:  DATA 70,6F
008DE:  DATA 3F,20
008E0:  DATA 49,4E
008E2:  DATA 54,45
008E4:  DATA 52,49
008E6:  DATA 4F,52
008E8:  DATA 20,00
008EA:  DATA 20,20
008EC:  DATA 20,25
008EE:  DATA 63,47
008F0:  DATA 72,75
008F2:  DATA 70,6F
008F4:  DATA 3F,20
008F6:  DATA 45,58
008F8:  DATA 54,45
008FA:  DATA 52,49
008FC:  DATA 4F,52
008FE:  DATA 20,00
00900:  DATA 20,20
00902:  DATA 20,25
00904:  DATA 63,47
00906:  DATA 72,75
00908:  DATA 70,6F
0090A:  DATA 3F,20
0090C:  DATA 4A,41
0090E:  DATA 52,44
00910:  DATA 49,4E
00912:  DATA 20,20
00914:  DATA 20,00
00916:  DATA 20,20
00918:  DATA 20,25
0091A:  DATA 63,47
0091C:  DATA 72,75
0091E:  DATA 70,6F
00920:  DATA 3F,20
00922:  DATA 46,52
00924:  DATA 45,4E
00926:  DATA 54,45
00928:  DATA 20,20
0092A:  DATA 20,00
0092C:  DATA 20,20
0092E:  DATA 20,25
00930:  DATA 63,47
00932:  DATA 72,75
00934:  DATA 70,6F
00936:  DATA 3F,20
00938:  DATA 50,41
0093A:  DATA 53,49
0093C:  DATA 4C,4C
0093E:  DATA 4F,53
00940:  DATA 20,00
00942:  DATA 20,20
00944:  DATA 20,25
00946:  DATA 63,47
00948:  DATA 72,75
0094A:  DATA 70,6F
0094C:  DATA 3F,20
0094E:  DATA 41,55
00950:  DATA 54,4F
00952:  DATA 20,28
00954:  DATA 31,29
00956:  DATA 20,00
00958:  DATA 20,20
0095A:  DATA 20,25
0095C:  DATA 63,47
0095E:  DATA 72,75
00960:  DATA 70,6F
00962:  DATA 3F,20
00964:  DATA 41,55
00966:  DATA 54,4F
00968:  DATA 20,28
0096A:  DATA 32,29
0096C:  DATA 20,00
0096E:  DATA 20,7E
00970:  DATA 20,25
00972:  DATA 63,47
00974:  DATA 72,75
00976:  DATA 70,6F
00978:  DATA 3F,20
0097A:  DATA 54,4F
0097C:  DATA 44,41
0097E:  DATA 53,20
00980:  DATA 20,20
00982:  DATA 20,00
00984:  DATA 20,7E
00986:  DATA 20,25
00988:  DATA 63,47
0098A:  DATA 72,75
0098C:  DATA 70,6F
0098E:  DATA 3F,20
00990:  DATA 20,20
00992:  DATA 20,20
00994:  DATA 20,20
00996:  DATA 20,20
00998:  DATA 20,00
0099A:  DATA 20,7E
0099C:  DATA 20,25
0099E:  DATA 63,47
009A0:  DATA 72,75
009A2:  DATA 70,6F
009A4:  DATA 3F,20
009A6:  DATA 49,4E
009A8:  DATA 54,45
009AA:  DATA 52,49
009AC:  DATA 4F,52
009AE:  DATA 20,00
009B0:  DATA 20,7E
009B2:  DATA 20,25
009B4:  DATA 63,47
009B6:  DATA 72,75
009B8:  DATA 70,6F
009BA:  DATA 3F,20
009BC:  DATA 20,20
009BE:  DATA 20,20
009C0:  DATA 20,20
009C2:  DATA 20,20
009C4:  DATA 20,00
009C6:  DATA 20,7E
009C8:  DATA 20,25
009CA:  DATA 63,47
009CC:  DATA 72,75
009CE:  DATA 70,6F
009D0:  DATA 3F,20
009D2:  DATA 45,58
009D4:  DATA 54,45
009D6:  DATA 52,49
009D8:  DATA 4F,52
009DA:  DATA 20,00
009DC:  DATA 20,7E
009DE:  DATA 20,25
009E0:  DATA 63,47
009E2:  DATA 72,75
009E4:  DATA 70,6F
009E6:  DATA 3F,20
009E8:  DATA 20,20
009EA:  DATA 20,20
009EC:  DATA 20,20
009EE:  DATA 20,20
009F0:  DATA 20,00
009F2:  DATA 20,7E
009F4:  DATA 20,25
009F6:  DATA 63,47
009F8:  DATA 72,75
009FA:  DATA 70,6F
009FC:  DATA 3F,20
009FE:  DATA 4A,41
00A00:  DATA 52,44
00A02:  DATA 49,4E
00A04:  DATA 20,20
00A06:  DATA 20,00
00A08:  DATA 20,7E
00A0A:  DATA 20,25
00A0C:  DATA 63,47
00A0E:  DATA 72,75
00A10:  DATA 70,6F
00A12:  DATA 3F,20
00A14:  DATA 20,20
00A16:  DATA 20,20
00A18:  DATA 20,20
00A1A:  DATA 20,20
00A1C:  DATA 20,00
00A1E:  DATA 20,7E
00A20:  DATA 20,25
00A22:  DATA 63,47
00A24:  DATA 72,75
00A26:  DATA 70,6F
00A28:  DATA 3F,20
00A2A:  DATA 46,52
00A2C:  DATA 45,4E
00A2E:  DATA 54,45
00A30:  DATA 20,20
00A32:  DATA 20,00
00A34:  DATA 20,7E
00A36:  DATA 20,25
00A38:  DATA 63,47
00A3A:  DATA 72,75
00A3C:  DATA 70,6F
00A3E:  DATA 3F,20
00A40:  DATA 20,20
00A42:  DATA 20,20
00A44:  DATA 20,20
00A46:  DATA 20,20
00A48:  DATA 20,00
00A4A:  DATA 20,7E
00A4C:  DATA 20,25
00A4E:  DATA 63,47
00A50:  DATA 72,75
00A52:  DATA 70,6F
00A54:  DATA 3F,20
00A56:  DATA 50,41
00A58:  DATA 53,49
00A5A:  DATA 4C,4C
00A5C:  DATA 4F,53
00A5E:  DATA 20,00
00A60:  DATA 20,7E
00A62:  DATA 20,25
00A64:  DATA 63,47
00A66:  DATA 72,75
00A68:  DATA 70,6F
00A6A:  DATA 3F,20
00A6C:  DATA 20,20
00A6E:  DATA 20,20
00A70:  DATA 20,20
00A72:  DATA 20,20
00A74:  DATA 20,00
00A76:  DATA 20,7E
00A78:  DATA 20,25
00A7A:  DATA 63,47
00A7C:  DATA 72,75
00A7E:  DATA 70,6F
00A80:  DATA 3F,20
00A82:  DATA 41,55
00A84:  DATA 54,4F
00A86:  DATA 20,28
00A88:  DATA 31,29
00A8A:  DATA 20,00
00A8C:  DATA 20,7E
00A8E:  DATA 20,25
00A90:  DATA 63,47
00A92:  DATA 72,75
00A94:  DATA 70,6F
00A96:  DATA 3F,20
00A98:  DATA 20,20
00A9A:  DATA 20,20
00A9C:  DATA 20,20
00A9E:  DATA 20,20
00AA0:  DATA 20,00
00AA2:  DATA 20,7E
00AA4:  DATA 20,25
00AA6:  DATA 63,47
00AA8:  DATA 72,75
00AAA:  DATA 70,6F
00AAC:  DATA 3F,20
00AAE:  DATA 41,55
00AB0:  DATA 54,4F
00AB2:  DATA 20,28
00AB4:  DATA 32,29
00AB6:  DATA 20,00
00AB8:  DATA 20,7E
00ABA:  DATA 20,25
00ABC:  DATA 63,47
00ABE:  DATA 72,75
00AC0:  DATA 70,6F
00AC2:  DATA 3F,20
00AC4:  DATA 20,20
00AC6:  DATA 20,20
00AC8:  DATA 20,20
00ACA:  DATA 20,20
00ACC:  DATA 20,00
00ACE:  DATA 20,7E
00AD0:  DATA 20,00
00AD2:  DATA 20,20
00AD4:  DATA 20,00
00AD6:  DATA 41,70
00AD8:  DATA 61,67
00ADA:  DATA 61,72
00ADC:  DATA 20,20
00ADE:  DATA 20,20
00AE0:  DATA 20,20
00AE2:  DATA 20,20
00AE4:  DATA 20,20
00AE6:  DATA 20,00
00AE8:  DATA 20,7E
00AEA:  DATA 20,00
00AEC:  DATA 20,20
00AEE:  DATA 20,00
00AF0:  DATA 45,6E
00AF2:  DATA 63,65
00AF4:  DATA 6E,64
00AF6:  DATA 65,72
00AF8:  DATA 20,20
00AFA:  DATA 20,20
00AFC:  DATA 20,20
00AFE:  DATA 20,20
00B00:  DATA 20,00
00B02:  DATA 0C,00
00B04:  DATA 3D,20
00B06:  DATA 43,6F
00B08:  DATA 6E,74
00B0A:  DATA 72,6F
00B0C:  DATA 6C,20
00B0E:  DATA 64,65
00B10:  DATA 20,6C
00B12:  DATA 75,63
00B14:  DATA 65,73
00B16:  DATA 20,3D
00B18:  DATA 00,00
00B1A:  DATA 20,20
00B1C:  DATA 20,43
00B1E:  DATA 6F,6E
00B20:  DATA 66,69
00B22:  DATA 67,75
00B24:  DATA 72,61
00B26:  DATA 72,20
00B28:  DATA 6C,61
00B2A:  DATA 20,20
00B2C:  DATA 20,20
00B2E:  DATA 00,00
00B30:  DATA 20,69
00B32:  DATA 6E,74
00B34:  DATA 65,6E
00B36:  DATA 73,69
00B38:  DATA 64,61
00B3A:  DATA 64,20
00B3C:  DATA 4C,75
00B3E:  DATA 7A,20
00B40:  DATA 23,25
00B42:  DATA 30,32
00B44:  DATA 75,20
00B46:  DATA 00,00
00B48:  DATA 20,69
00B4A:  DATA 6E,74
00B4C:  DATA 65,6E
00B4E:  DATA 73,69
00B50:  DATA 64,61
00B52:  DATA 64,20
00B54:  DATA 4C,75
00B56:  DATA 7A,20
00B58:  DATA 20,20
00B5A:  DATA 20,20
00B5C:  DATA 00,00
00B5E:  DATA 20,69
00B60:  DATA 6E,74
00B62:  DATA 65,6E
00B64:  DATA 73,69
00B66:  DATA 64,61
00B68:  DATA 64,20
00B6A:  DATA 4C,75
00B6C:  DATA 7A,20
00B6E:  DATA 23,25
00B70:  DATA 30,32
00B72:  DATA 75,20
00B74:  DATA 00,00
00B76:  DATA 20,20
00B78:  DATA 20,20
00B7A:  DATA 20,20
00B7C:  DATA 20,20
00B7E:  DATA 20,25
00B80:  DATA 75,25
00B82:  DATA 25,20
00B84:  DATA 20,20
00B86:  DATA 20,20
00B88:  DATA 20,20
00B8A:  DATA 20,00
00B8C:  DATA 20,20
00B8E:  DATA 20,20
00B90:  DATA 20,20
00B92:  DATA 20,20
00B94:  DATA 20,25
00B96:  DATA 75,25
00B98:  DATA 25,20
00B9A:  DATA 20,20
00B9C:  DATA 20,20
00B9E:  DATA 20,20
00BA0:  DATA 20,00
00BA2:  DATA 20,20
00BA4:  DATA 20,20
00BA6:  DATA 20,20
00BA8:  DATA 20,20
00BAA:  DATA 20,20
00BAC:  DATA 20,20
00BAE:  DATA 20,20
00BB0:  DATA 20,20
00BB2:  DATA 20,20
00BB4:  DATA 20,20
00BB6:  DATA 00,00
00BB8:  DATA 20,20
00BBA:  DATA 20,20
00BBC:  DATA 20,20
00BBE:  DATA 20,20
00BC0:  DATA 20,25
00BC2:  DATA 75,25
00BC4:  DATA 25,20
00BC6:  DATA 20,20
00BC8:  DATA 20,20
00BCA:  DATA 20,20
00BCC:  DATA 20,00
00BCE:  DATA 20,20
00BD0:  DATA 20,20
00BD2:  DATA 20,20
00BD4:  DATA 20,20
00BD6:  DATA 20,25
00BD8:  DATA 75,25
00BDA:  DATA 25,20
00BDC:  DATA 20,20
00BDE:  DATA 20,20
00BE0:  DATA 20,20
00BE2:  DATA 20,00
00BE4:  DATA 0C,00
00BE6:  DATA 3D,20
00BE8:  DATA 43,6F
00BEA:  DATA 6E,74
00BEC:  DATA 72,6F
00BEE:  DATA 6C,20
00BF0:  DATA 64,65
00BF2:  DATA 20,6C
00BF4:  DATA 75,63
00BF6:  DATA 65,73
00BF8:  DATA 20,3D
00BFA:  DATA 00,00
00BFC:  DATA 20,45
00BFE:  DATA 73,74
00C00:  DATA 61,64
00C02:  DATA 6F,20
00C04:  DATA 64,65
00C06:  DATA 20,4C
00C08:  DATA 75,7A
00C0A:  DATA 20,23
00C0C:  DATA 25,30
00C0E:  DATA 32,75
00C10:  DATA 3A,20
00C12:  DATA 00,00
00C14:  DATA 20,20
00C16:  DATA 20,20
00C18:  DATA 20,45
00C1A:  DATA 4E,43
00C1C:  DATA 45,4E
00C1E:  DATA 44,49
00C20:  DATA 44,41
00C22:  DATA 20,20
00C24:  DATA 20,20
00C26:  DATA 20,20
00C28:  DATA 00,00
00C2A:  DATA 20,20
00C2C:  DATA 20,20
00C2E:  DATA 20,20
00C30:  DATA 20,20
00C32:  DATA 20,20
00C34:  DATA 20,20
00C36:  DATA 20,20
00C38:  DATA 20,20
00C3A:  DATA 20,20
00C3C:  DATA 20,20
00C3E:  DATA 00,00
00C40:  DATA 20,20
00C42:  DATA 49,6E
00C44:  DATA 74,65
00C46:  DATA 6E,73
00C48:  DATA 69,64
00C4A:  DATA 61,64
00C4C:  DATA 3A,20
00C4E:  DATA 25,75
00C50:  DATA 25,25
00C52:  DATA 20,20
00C54:  DATA 00,00
00C56:  DATA 20,20
00C58:  DATA 20,20
00C5A:  DATA 20,20
00C5C:  DATA 41,50
00C5E:  DATA 41,47
00C60:  DATA 41,44
00C62:  DATA 41,20
00C64:  DATA 20,20
00C66:  DATA 20,20
00C68:  DATA 20,20
00C6A:  DATA 00,00
00C6C:  DATA 20,20
00C6E:  DATA 20,20
00C70:  DATA 20,20
00C72:  DATA 20,20
00C74:  DATA 20,20
00C76:  DATA 20,20
00C78:  DATA 20,20
00C7A:  DATA 20,20
00C7C:  DATA 20,20
00C7E:  DATA 20,20
00C80:  DATA 00,00
00C82:  DATA 20,20
00C84:  DATA 49,6E
00C86:  DATA 74,65
00C88:  DATA 6E,73
00C8A:  DATA 69,64
00C8C:  DATA 61,64
00C8E:  DATA 3A,20
00C90:  DATA 25,75
00C92:  DATA 25,25
00C94:  DATA 20,20
00C96:  DATA 00,00
00C98:  DATA 0C,00
00C9A:  DATA 20,20
00C9C:  DATA 20,25
00C9E:  DATA 63,44
00CA0:  DATA 65,73
00CA2:  DATA 65,61
00CA4:  DATA 20,61
00CA6:  DATA 63,74
00CA8:  DATA 69,76
00CAA:  DATA 61,72
00CAC:  DATA 20,20
00CAE:  DATA 00,00
00CB0:  DATA 20,20
00CB2:  DATA 20,61
00CB4:  DATA 6C,61
00CB6:  DATA 72,6D
00CB8:  DATA 61,20
00CBA:  DATA 54,4F
00CBC:  DATA 54,41
00CBE:  DATA 4C,20
00CC0:  DATA 3F,20
00CC2:  DATA 20,20
00CC4:  DATA 20,00
00CC6:  DATA 20,20
00CC8:  DATA 61,6C
00CCA:  DATA 61,72
00CCC:  DATA 6D,61
00CCE:  DATA 20,4E
00CD0:  DATA 4F,43
00CD2:  DATA 54,55
00CD4:  DATA 52,4E
00CD6:  DATA 41,3F
00CD8:  DATA 20,20
00CDA:  DATA 00,00
00CDC:  DATA 20,20
00CDE:  DATA 61,6C
00CE0:  DATA 61,72
00CE2:  DATA 6D,61
00CE4:  DATA 20,45
00CE6:  DATA 58,54
00CE8:  DATA 45,52
00CEA:  DATA 49,4F
00CEC:  DATA 52,3F
00CEE:  DATA 20,20
00CF0:  DATA 00,00
00CF2:  DATA 20,20
00CF4:  DATA 41,72
00CF6:  DATA 6D,61
00CF8:  DATA 64,6F
00CFA:  DATA 20,64
00CFC:  DATA 65,20
00CFE:  DATA 61,6C
00D00:  DATA 61,72
00D02:  DATA 6D,61
00D04:  DATA 20,20
00D06:  DATA 00,00
00D08:  DATA 20,20
00D0A:  DATA 20,20
00D0C:  DATA 20,20
00D0E:  DATA 65,6E
00D10:  DATA 3A,20
00D12:  DATA 25,33
00D14:  DATA 75,20
00D16:  DATA 20,20
00D18:  DATA 20,20
00D1A:  DATA 20,20
00D1C:  DATA 00,00
00D1E:  DATA 0C,00
00D20:  DATA 3D,3D
00D22:  DATA 3D,20
00D24:  DATA 43,6F
00D26:  DATA 6E,66
00D28:  DATA 2E,20
00D2A:  DATA 41,6C
00D2C:  DATA 61,72
00D2E:  DATA 6D,61
00D30:  DATA 20,3D
00D32:  DATA 3D,3D
00D34:  DATA 00,00
00D36:  DATA 54,70
00D38:  DATA 6F,20
00D3A:  DATA 53,61
00D3C:  DATA 6C,69
00D3E:  DATA 64,61
00D40:  DATA 3A,20
00D42:  DATA 25,33
00D44:  DATA 75,73
00D46:  DATA 00,00
00D48:  DATA 54,70
00D4A:  DATA 6F,20
00D4C:  DATA 53,61
00D4E:  DATA 6C,69
00D50:  DATA 64,61
00D52:  DATA 3A,20
00D54:  DATA 20,20
00D56:  DATA 20,20
00D58:  DATA 20,00
00D5A:  DATA 54,70
00D5C:  DATA 6F,20
00D5E:  DATA 53,61
00D60:  DATA 6C,69
00D62:  DATA 64,61
00D64:  DATA 3A,20
00D66:  DATA 25,33
00D68:  DATA 75,73
00D6A:  DATA 20,20
00D6C:  DATA 00,00
00D6E:  DATA 54,70
00D70:  DATA 6F,20
00D72:  DATA 53,69
00D74:  DATA 6C,65
00D76:  DATA 6E,63
00D78:  DATA 69,6F
00D7A:  DATA 3A,20
00D7C:  DATA 25,33
00D7E:  DATA 75,73
00D80:  DATA 00,00
00D82:  DATA 54,70
00D84:  DATA 6F,20
00D86:  DATA 53,69
00D88:  DATA 6C,65
00D8A:  DATA 6E,63
00D8C:  DATA 69,6F
00D8E:  DATA 3A,20
00D90:  DATA 20,20
00D92:  DATA 20,20
00D94:  DATA 20,20
00D96:  DATA 00,00
00D98:  DATA 54,70
00D9A:  DATA 6F,20
00D9C:  DATA 53,69
00D9E:  DATA 6C,65
00DA0:  DATA 6E,63
00DA2:  DATA 69,6F
00DA4:  DATA 3A,20
00DA6:  DATA 25,33
00DA8:  DATA 75,73
00DAA:  DATA 00,00
00DAC:  DATA 50,72
00DAE:  DATA 75,65
00DB0:  DATA 62,61
00DB2:  DATA 20,73
00DB4:  DATA 69,72
00DB6:  DATA 65,6E
00DB8:  DATA 61,3A
00DBA:  DATA 20,25
00DBC:  DATA 73,00
00DBE:  DATA 50,72
00DC0:  DATA 75,65
00DC2:  DATA 62,61
00DC4:  DATA 20,73
00DC6:  DATA 69,72
00DC8:  DATA 65,6E
00DCA:  DATA 61,3A
00DCC:  DATA 20,20
00DCE:  DATA 20,20
00DD0:  DATA 20,20
00DD2:  DATA 20,20
00DD4:  DATA 00,00
00DD6:  DATA 50,72
00DD8:  DATA 75,65
00DDA:  DATA 62,61
00DDC:  DATA 20,73
00DDE:  DATA 69,72
00DE0:  DATA 65,6E
00DE2:  DATA 61,3A
00DE4:  DATA 20,25
00DE6:  DATA 73,00
00DE8:  DATA 0C,00
00DEA:  DATA 20,49
00DEC:  DATA 6E,67
00DEE:  DATA 72,65
00DF0:  DATA 73,65
00DF2:  DATA 20,6C
00DF4:  DATA 61,20
00DF6:  DATA 63,6C
00DF8:  DATA 61,76
00DFA:  DATA 65,3A
00DFC:  DATA 20,20
00DFE:  DATA 00,00
00E00:  DATA 20,25
00E02:  DATA 63,5F
00E04:  DATA 5F,5F
00E06:  DATA 5F,5F
00E08:  DATA 00,00
00E0A:  DATA 20,2A
00E0C:  DATA 25,63
00E0E:  DATA 5F,5F
00E10:  DATA 5F,5F
00E12:  DATA 00,00
00E14:  DATA 20,2A
00E16:  DATA 2A,25
00E18:  DATA 63,5F
00E1A:  DATA 5F,5F
00E1C:  DATA 00,00
00E1E:  DATA 20,2A
00E20:  DATA 2A,2A
00E22:  DATA 25,63
00E24:  DATA 5F,5F
00E26:  DATA 00,00
00E28:  DATA 20,2A
00E2A:  DATA 2A,2A
00E2C:  DATA 2A,25
00E2E:  DATA 63,5F
00E30:  DATA 00,00
00E32:  DATA 20,2A
00E34:  DATA 2A,2A
00E36:  DATA 2A,2A
00E38:  DATA 25,63
00E3A:  DATA 00,00
00E3C:  DATA 0C,00
00E3E:  DATA 20,20
00E40:  DATA 20,43
00E42:  DATA 6C,61
00E44:  DATA 76,65
00E46:  DATA 20,63
00E48:  DATA 6F,72
00E4A:  DATA 72,65
00E4C:  DATA 63,74
00E4E:  DATA 61,20
00E50:  DATA 20,20
00E52:  DATA 00,00
00E54:  DATA 20,20
00E56:  DATA 20,20
00E58:  DATA 42,69
00E5A:  DATA 65,6E
00E5C:  DATA 76,65
00E5E:  DATA 6E,69
00E60:  DATA 64,6F
00E62:  DATA 20,3A
00E64:  DATA 29,20
00E66:  DATA 20,20
00E68:  DATA 00,00
00E6A:  DATA 0C,00
00E6C:  DATA 20,20
00E6E:  DATA 43,6C
00E70:  DATA 61,76
00E72:  DATA 65,20
00E74:  DATA 69,6E
00E76:  DATA 63,6F
00E78:  DATA 72,72
00E7A:  DATA 65,63
00E7C:  DATA 74,61
00E7E:  DATA 20,20
00E80:  DATA 00,00
00E82:  DATA 20,41
00E84:  DATA 63,63
00E86:  DATA 65,73
00E88:  DATA 6F,20
00E8A:  DATA 64,65
00E8C:  DATA 6E,65
00E8E:  DATA 67,61
00E90:  DATA 64,6F
00E92:  DATA 20,3A
00E94:  DATA 28,20
00E96:  DATA 00,00
00E98:  DATA 0C,00
00E9A:  DATA 3D,3D
00E9C:  DATA 20,43
00E9E:  DATA 61,6D
00EA0:  DATA 62,69
00EA2:  DATA 61,72
00EA4:  DATA 20,43
00EA6:  DATA 6C,61
00EA8:  DATA 76,65
00EAA:  DATA 20,3D
00EAC:  DATA 3D,3D
00EAE:  DATA 00,00
00EB0:  DATA 20,20
00EB2:  DATA 4E,75
00EB4:  DATA 65,76
00EB6:  DATA 61,3A
00EB8:  DATA 20,00
00EBA:  DATA 20,52
00EBC:  DATA 65,70
00EBE:  DATA 69,74
00EC0:  DATA 61,3A
00EC2:  DATA 20,00
00EC4:  DATA 25,63
00EC6:  DATA 5F,5F
00EC8:  DATA 5F,5F
00ECA:  DATA 5F,00
00ECC:  DATA 2A,25
00ECE:  DATA 63,5F
00ED0:  DATA 5F,5F
00ED2:  DATA 5F,00
00ED4:  DATA 2A,2A
00ED6:  DATA 25,63
00ED8:  DATA 5F,5F
00EDA:  DATA 5F,00
00EDC:  DATA 2A,2A
00EDE:  DATA 2A,25
00EE0:  DATA 63,5F
00EE2:  DATA 5F,00
00EE4:  DATA 2A,2A
00EE6:  DATA 2A,2A
00EE8:  DATA 25,63
00EEA:  DATA 5F,00
00EEC:  DATA 2A,2A
00EEE:  DATA 2A,2A
00EF0:  DATA 2A,25
00EF2:  DATA 63,00
00EF4:  DATA 2A,2A
00EF6:  DATA 2A,2A
00EF8:  DATA 2A,2A
00EFA:  DATA 00,00
00EFC:  DATA 25,63
00EFE:  DATA 5F,5F
00F00:  DATA 5F,5F
00F02:  DATA 5F,00
00F04:  DATA 2A,25
00F06:  DATA 63,5F
00F08:  DATA 5F,5F
00F0A:  DATA 5F,00
00F0C:  DATA 2A,2A
00F0E:  DATA 25,63
00F10:  DATA 5F,5F
00F12:  DATA 5F,00
00F14:  DATA 2A,2A
00F16:  DATA 2A,25
00F18:  DATA 63,5F
00F1A:  DATA 5F,00
00F1C:  DATA 2A,2A
00F1E:  DATA 2A,2A
00F20:  DATA 25,63
00F22:  DATA 5F,00
00F24:  DATA 2A,2A
00F26:  DATA 2A,2A
00F28:  DATA 2A,25
00F2A:  DATA 63,00
00F2C:  DATA 0C,00
00F2E:  DATA 20,20
00F30:  DATA 43,6C
00F32:  DATA 61,76
00F34:  DATA 65,20
00F36:  DATA 6D,6F
00F38:  DATA 64,69
00F3A:  DATA 66,69
00F3C:  DATA 63,61
00F3E:  DATA 64,61
00F40:  DATA 20,20
00F42:  DATA 00,00
00F44:  DATA 20,20
00F46:  DATA 63,6F
00F48:  DATA 72,72
00F4A:  DATA 65,63
00F4C:  DATA 74,61
00F4E:  DATA 6D,65
00F50:  DATA 6E,74
00F52:  DATA 65,20
00F54:  DATA 3A,29
00F56:  DATA 20,20
00F58:  DATA 00,00
00F5A:  DATA 0C,00
00F5C:  DATA 20,20
00F5E:  DATA 45,72
00F60:  DATA 72,6F
00F62:  DATA 72,3A
00F64:  DATA 20,4C
00F66:  DATA 61,73
00F68:  DATA 20,63
00F6A:  DATA 6C,61
00F6C:  DATA 76,65
00F6E:  DATA 73,20
00F70:  DATA 00,00
00F72:  DATA 20,20
00F74:  DATA 20,6E
00F76:  DATA 6F,20
00F78:  DATA 63,6F
00F7A:  DATA 69,6E
00F7C:  DATA 63,69
00F7E:  DATA 64,65
00F80:  DATA 6E,20
00F82:  DATA 3A,28
00F84:  DATA 20,20
00F86:  DATA 00,00
00F88:  DATA 0C,00
00F8A:  DATA 3D,3D
00F8C:  DATA 20,43
00F8E:  DATA 6F,6E
00F90:  DATA 66,2E
00F92:  DATA 20,43
00F94:  DATA 61,73
00F96:  DATA 61,6E
00F98:  DATA 64,72
00F9A:  DATA 61,20
00F9C:  DATA 3D,3D
00F9E:  DATA 00,00
00FA0:  DATA 20,20
00FA2:  DATA 4C,75
00FA4:  DATA 7A,20
00FA6:  DATA 50,61
00FA8:  DATA 73,69
00FAA:  DATA 6C,6C
00FAC:  DATA 6F,73
00FAE:  DATA 3A,20
00FB0:  DATA 00,00
00FB2:  DATA 20,20
00FB4:  DATA 47,72
00FB6:  DATA 75,70
00FB8:  DATA 6F,20
00FBA:  DATA 41,75
00FBC:  DATA 74,6F
00FBE:  DATA 20,31
00FC0:  DATA 3A,20
00FC2:  DATA 00,00
00FC4:  DATA 20,20
00FC6:  DATA 47,72
00FC8:  DATA 75,70
00FCA:  DATA 6F,20
00FCC:  DATA 41,75
00FCE:  DATA 74,6F
00FD0:  DATA 20,32
00FD2:  DATA 3A,20
00FD4:  DATA 00,00
00FD6:  DATA 20,20
00FD8:  DATA 20,00
00FDA:  DATA 20,20
00FDC:  DATA 20,00
00FDE:  DATA 20,20
00FE0:  DATA 20,00
00FE2:  DATA 20,20
00FE4:  DATA 47,72
00FE6:  DATA 75,70
00FE8:  DATA 6F,20
00FEA:  DATA 41,75
00FEC:  DATA 74,6F
00FEE:  DATA 20,31
00FF0:  DATA 3A,20
00FF2:  DATA 00,00
00FF4:  DATA 20,20
00FF6:  DATA 47,72
00FF8:  DATA 75,70
00FFA:  DATA 6F,20
00FFC:  DATA 41,75
00FFE:  DATA 74,6F
01000:  DATA 20,32
01002:  DATA 3A,20
01004:  DATA 00,00
01006:  DATA 20,43
01008:  DATA 74,72
0100A:  DATA 6C,20
0100C:  DATA 49,6E
0100E:  DATA 74,65
01010:  DATA 72,6E
01012:  DATA 65,74
01014:  DATA 3A,20
01016:  DATA 00,00
01018:  DATA 20,20
0101A:  DATA 20,00
0101C:  DATA 20,20
0101E:  DATA 20,00
01020:  DATA 20,20
01022:  DATA 20,00
01024:  DATA 20,20
01026:  DATA 47,72
01028:  DATA 75,70
0102A:  DATA 6F,20
0102C:  DATA 41,75
0102E:  DATA 74,6F
01030:  DATA 20,32
01032:  DATA 3A,20
01034:  DATA 00,00
01036:  DATA 20,43
01038:  DATA 74,72
0103A:  DATA 6C,20
0103C:  DATA 49,6E
0103E:  DATA 74,65
01040:  DATA 72,6E
01042:  DATA 65,74
01044:  DATA 3A,20
01046:  DATA 00,00
01048:  DATA 20,43
0104A:  DATA 74,72
0104C:  DATA 6C,20
0104E:  DATA 54,65
01050:  DATA 6C,65
01052:  DATA 66,6F
01054:  DATA 6E,6F
01056:  DATA 3A,20
01058:  DATA 00,00
0105A:  DATA 20,20
0105C:  DATA 20,00
0105E:  DATA 20,20
01060:  DATA 20,00
01062:  DATA 20,20
01064:  DATA 20,00
01066:  DATA 0C,00
01068:  DATA 3D,20
0106A:  DATA 52,45
0106C:  DATA 53,45
0106E:  DATA 54,45
01070:  DATA 41,52
01072:  DATA 20,53
01074:  DATA 49,53
01076:  DATA 54,45
01078:  DATA 4D,41
0107A:  DATA 20,3D
0107C:  DATA 00,00
0107E:  DATA 25,63
01080:  DATA 53,65
01082:  DATA 20,65
01084:  DATA 6C,69
01086:  DATA 6D,69
01088:  DATA 6E,61
0108A:  DATA 72,61
0108C:  DATA 6E,20
0108E:  DATA 74,6F
01090:  DATA 64,6F
01092:  DATA 73,00
01094:  DATA 6C,6F
01096:  DATA 73,20
01098:  DATA 64,61
0109A:  DATA 74,6F
0109C:  DATA 73,20
0109E:  DATA 67,75
010A0:  DATA 61,72
010A2:  DATA 64,61
010A4:  DATA 64,6F
010A6:  DATA 73,21
010A8:  DATA 00,00
010AA:  DATA 20,20
010AC:  DATA 20,20
010AE:  DATA 25,63
010B0:  DATA 43,6F
010B2:  DATA 6E,74
010B4:  DATA 69,6E
010B6:  DATA 75,61
010B8:  DATA 72,3F
010BA:  DATA 20,20
010BC:  DATA 20,20
010BE:  DATA 00,00
010C0:  DATA 0C,00
010C2:  DATA 20,45
010C4:  DATA 6C,69
010C6:  DATA 6D,69
010C8:  DATA 6E,61
010CA:  DATA 6E,64
010CC:  DATA 6F,20
010CE:  DATA 64,61
010D0:  DATA 74,6F
010D2:  DATA 73,2E
010D4:  DATA 2E,2E
010D6:  DATA 00,00
010D8:  DATA 0C,00
010DA:  DATA 3D,3D
010DC:  DATA 3D,20
010DE:  DATA 46,65
010E0:  DATA 63,68
010E2:  DATA 61,20
010E4:  DATA 79,20
010E6:  DATA 68,6F
010E8:  DATA 72,61
010EA:  DATA 20,3D
010EC:  DATA 3D,3D
010EE:  DATA 00,00
010F0:  DATA 20,20
010F2:  DATA 20,44
010F4:  DATA 69,61
010F6:  DATA 3A,20
010F8:  DATA 25,73
010FA:  DATA 20,00
010FC:  DATA 20,20
010FE:  DATA 20,44
01100:  DATA 69,61
01102:  DATA 3A,20
01104:  DATA 20,20
01106:  DATA 20,20
01108:  DATA 20,20
0110A:  DATA 20,20
0110C:  DATA 20,20
0110E:  DATA 20,20
01110:  DATA 00,00
01112:  DATA 20,20
01114:  DATA 20,44
01116:  DATA 69,61
01118:  DATA 3A,20
0111A:  DATA 25,73
0111C:  DATA 20,00
0111E:  DATA 20,4E
01120:  DATA 72,6F
01122:  DATA 3A,20
01124:  DATA 25,30
01126:  DATA 32,75
01128:  DATA 20,20
0112A:  DATA 20,00
0112C:  DATA 20,4E
0112E:  DATA 72,6F
01130:  DATA 3A,20
01132:  DATA 20,20
01134:  DATA 20,20
01136:  DATA 00,00
01138:  DATA 20,4E
0113A:  DATA 72,6F
0113C:  DATA 3A,20
0113E:  DATA 25,30
01140:  DATA 32,75
01142:  DATA 20,00
01144:  DATA 4D,65
01146:  DATA 73,3A
01148:  DATA 20,25
0114A:  DATA 73,00
0114C:  DATA 4D,65
0114E:  DATA 73,3A
01150:  DATA 20,20
01152:  DATA 20,20
01154:  DATA 00,00
01156:  DATA 4D,65
01158:  DATA 73,3A
0115A:  DATA 20,25
0115C:  DATA 73,00
0115E:  DATA 48,6F
01160:  DATA 72,61
01162:  DATA 3A,20
01164:  DATA 25,30
01166:  DATA 32,75
01168:  DATA 20,00
0116A:  DATA 48,6F
0116C:  DATA 72,61
0116E:  DATA 3A,20
01170:  DATA 20,20
01172:  DATA 20,00
01174:  DATA 48,6F
01176:  DATA 72,61
01178:  DATA 3A,20
0117A:  DATA 25,30
0117C:  DATA 32,75
0117E:  DATA 20,00
01180:  DATA 4D,69
01182:  DATA 6E,75
01184:  DATA 74,6F
01186:  DATA 73,3A
01188:  DATA 20,25
0118A:  DATA 30,32
0118C:  DATA 75,00
0118E:  DATA 4D,69
01190:  DATA 6E,75
01192:  DATA 74,6F
01194:  DATA 73,3A
01196:  DATA 20,20
01198:  DATA 20,00
0119A:  DATA 4D,69
0119C:  DATA 6E,75
0119E:  DATA 74,6F
011A0:  DATA 73,3A
011A2:  DATA 20,25
011A4:  DATA 30,32
011A6:  DATA 75,00
011A8:  DATA 0C,00
011AA:  DATA 20,20
011AC:  DATA 20,20
011AE:  DATA 20,20
011B0:  DATA 43,41
011B2:  DATA 53,41
011B4:  DATA 4E,44
011B6:  DATA 52,41
011B8:  DATA 20,20
011BA:  DATA 20,20
011BC:  DATA 20,20
011BE:  DATA 00,00
011C0:  DATA 20,20
011C2:  DATA 20,20
011C4:  DATA 49,6E
011C6:  DATA 69,63
011C8:  DATA 69,61
011CA:  DATA 6E,64
011CC:  DATA 6F,2E
011CE:  DATA 2E,2E
011D0:  DATA 2E,20
011D2:  DATA 20,20
011D4:  DATA 00,00
011D6:  DATA 0C,00
*
011F0:  MOVLB  2
011F2:  MOVF   x1A,W
011F4:  CLRF   01
011F6:  SUBWF  x19,W
011F8:  BC    1200
011FA:  MOVFF  219,00
011FE:  BRA    1218
01200:  CLRF   00
01202:  MOVLW  08
01204:  MOVWF  x1B
01206:  RLCF   x19,F
01208:  RLCF   00,F
0120A:  MOVF   x1A,W
0120C:  SUBWF  00,W
0120E:  BTFSC  FD8.0
01210:  MOVWF  00
01212:  RLCF   01,F
01214:  DECFSZ x1B,F
01216:  BRA    1206
01218:  MOVLB  0
0121A:  RETURN 0
*
017AA:  MOVLW  8E
017AC:  MOVWF  00
017AE:  MOVFF  22A,01
017B2:  MOVFF  229,02
017B6:  CLRF   03
017B8:  MOVF   01,F
017BA:  BNZ   17CE
017BC:  MOVFF  02,01
017C0:  CLRF   02
017C2:  MOVLW  08
017C4:  SUBWF  00,F
017C6:  MOVF   01,F
017C8:  BNZ   17CE
017CA:  CLRF   00
017CC:  BRA    17DE
017CE:  BCF    FD8.0
017D0:  BTFSC  01.7
017D2:  BRA    17DC
017D4:  RLCF   02,F
017D6:  RLCF   01,F
017D8:  DECF   00,F
017DA:  BRA    17CE
017DC:  BCF    01.7
017DE:  RETURN 0
017E0:  MOVLB  2
017E2:  MOVF   x29,W
017E4:  BTFSC  FD8.2
017E6:  BRA    1932
017E8:  MOVWF  x35
017EA:  MOVF   x2D,W
017EC:  BTFSC  FD8.2
017EE:  BRA    1932
017F0:  SUBWF  x35,F
017F2:  BNC   17FE
017F4:  MOVLW  7F
017F6:  ADDWF  x35,F
017F8:  BTFSC  FD8.0
017FA:  BRA    1932
017FC:  BRA    180A
017FE:  MOVLW  81
01800:  SUBWF  x35,F
01802:  BTFSS  FD8.0
01804:  BRA    1932
01806:  BTFSC  FD8.2
01808:  BRA    1932
0180A:  MOVFF  235,00
0180E:  CLRF   01
01810:  CLRF   02
01812:  CLRF   03
01814:  CLRF   x34
01816:  MOVFF  22A,233
0181A:  BSF    x33.7
0181C:  MOVFF  22B,232
01820:  MOVFF  22C,231
01824:  MOVLW  19
01826:  MOVWF  x35
01828:  MOVF   x30,W
0182A:  SUBWF  x31,F
0182C:  BC    1848
0182E:  MOVLW  01
01830:  SUBWF  x32,F
01832:  BC    1848
01834:  SUBWF  x33,F
01836:  BC    1848
01838:  SUBWF  x34,F
0183A:  BC    1848
0183C:  INCF   x34,F
0183E:  INCF   x33,F
01840:  INCF   x32,F
01842:  MOVF   x30,W
01844:  ADDWF  x31,F
01846:  BRA    1898
01848:  MOVF   x2F,W
0184A:  SUBWF  x32,F
0184C:  BC    1872
0184E:  MOVLW  01
01850:  SUBWF  x33,F
01852:  BC    1872
01854:  SUBWF  x34,F
01856:  BC    1872
01858:  INCF   x34,F
0185A:  INCF   x33,F
0185C:  MOVF   x2F,W
0185E:  ADDWF  x32,F
01860:  MOVF   x30,W
01862:  ADDWF  x31,F
01864:  BNC   1898
01866:  INCF   x32,F
01868:  BNZ   1898
0186A:  INCF   x33,F
0186C:  BNZ   1898
0186E:  INCF   x34,F
01870:  BRA    1898
01872:  MOVF   x2E,W
01874:  IORLW  80
01876:  SUBWF  x33,F
01878:  BC    1896
0187A:  MOVLW  01
0187C:  SUBWF  x34,F
0187E:  BC    1896
01880:  INCF   x34,F
01882:  MOVF   x2E,W
01884:  IORLW  80
01886:  ADDWF  x33,F
01888:  MOVF   x2F,W
0188A:  ADDWF  x32,F
0188C:  BNC   1860
0188E:  INCF   x33,F
01890:  BNZ   1860
01892:  INCF   x34,F
01894:  BRA    1860
01896:  BSF    03.0
01898:  DECFSZ x35,F
0189A:  BRA    189E
0189C:  BRA    18B4
0189E:  BCF    FD8.0
018A0:  RLCF   x31,F
018A2:  RLCF   x32,F
018A4:  RLCF   x33,F
018A6:  RLCF   x34,F
018A8:  BCF    FD8.0
018AA:  RLCF   03,F
018AC:  RLCF   02,F
018AE:  RLCF   01,F
018B0:  RLCF   x36,F
018B2:  BRA    1828
018B4:  BTFSS  x36.0
018B6:  BRA    18C4
018B8:  BCF    FD8.0
018BA:  RRCF   01,F
018BC:  RRCF   02,F
018BE:  RRCF   03,F
018C0:  RRCF   x36,F
018C2:  BRA    18C8
018C4:  DECF   00,F
018C6:  BZ    1932
018C8:  BTFSC  x36.7
018CA:  BRA    1908
018CC:  BCF    FD8.0
018CE:  RLCF   x31,F
018D0:  RLCF   x32,F
018D2:  RLCF   x33,F
018D4:  RLCF   x34,F
018D6:  MOVF   x30,W
018D8:  SUBWF  x31,F
018DA:  BC    18EA
018DC:  MOVLW  01
018DE:  SUBWF  x32,F
018E0:  BC    18EA
018E2:  SUBWF  x33,F
018E4:  BC    18EA
018E6:  SUBWF  x34,F
018E8:  BNC   191E
018EA:  MOVF   x2F,W
018EC:  SUBWF  x32,F
018EE:  BC    18FA
018F0:  MOVLW  01
018F2:  SUBWF  x33,F
018F4:  BC    18FA
018F6:  SUBWF  x34,F
018F8:  BNC   191E
018FA:  MOVF   x2E,W
018FC:  IORLW  80
018FE:  SUBWF  x33,F
01900:  BC    1908
01902:  MOVLW  01
01904:  SUBWF  x34,F
01906:  BNC   191E
01908:  INCF   03,F
0190A:  BNZ   191E
0190C:  INCF   02,F
0190E:  BNZ   191E
01910:  INCF   01,F
01912:  BNZ   191E
01914:  INCF   00,F
01916:  BZ    1932
01918:  RRCF   01,F
0191A:  RRCF   02,F
0191C:  RRCF   03,F
0191E:  MOVFF  22A,235
01922:  MOVF   x2E,W
01924:  XORWF  x35,F
01926:  BTFSS  x35.7
01928:  BRA    192E
0192A:  BSF    01.7
0192C:  BRA    193A
0192E:  BCF    01.7
01930:  BRA    193A
01932:  CLRF   00
01934:  CLRF   01
01936:  CLRF   02
01938:  CLRF   03
0193A:  MOVLB  0
0193C:  RETURN 0
0193E:  MOVLW  8E
01940:  MOVWF  00
01942:  MOVLB  2
01944:  MOVF   x29,W
01946:  SUBWF  00,F
01948:  MOVFF  22A,02
0194C:  MOVFF  22B,01
01950:  BSF    02.7
01952:  MOVF   00,F
01954:  BZ    1968
01956:  BCF    FD8.0
01958:  MOVF   02,F
0195A:  BNZ   1960
0195C:  MOVF   01,F
0195E:  BZ    1968
01960:  RRCF   02,F
01962:  RRCF   01,F
01964:  DECFSZ 00,F
01966:  BRA    1956
01968:  BTFSS  x2A.7
0196A:  BRA    1976
0196C:  COMF   01,F
0196E:  COMF   02,F
01970:  INCF   01,F
01972:  BTFSC  FD8.2
01974:  INCF   02,F
01976:  MOVLB  0
01978:  RETURN 0
*
01FBC:  DATA 20,54
01FBE:  DATA 65,6D
01FC0:  DATA 70,3A
01FC2:  DATA 20,25
01FC4:  DATA 32,64
01FC6:  DATA 25,63
01FC8:  DATA 43,20
01FCA:  DATA 2F,20
01FCC:  DATA 25,32
01FCE:  DATA 64,25
01FD0:  DATA 63,43
01FD2:  DATA 20,20
01FD4:  DATA 00,00
01FD6:  DATA 20,48
01FD8:  DATA 52,3A
01FDA:  DATA 20,25
01FDC:  DATA 30,32
01FDE:  DATA 75,25
01FE0:  DATA 25,20
01FE2:  DATA 20,20
01FE4:  DATA 53,6F
01FE6:  DATA 6C,3A
01FE8:  DATA 25,33
01FEA:  DATA 75,20
01FEC:  DATA 00,00
01FEE:  DATA 20,48
01FF0:  DATA 52,3A
01FF2:  DATA 20,25
01FF4:  DATA 30,32
01FF6:  DATA 75,25
01FF8:  DATA 25,20
01FFA:  DATA 20,4C
01FFC:  DATA 75,6E
01FFE:  DATA 61,3A
02000:  DATA 25,32
02002:  DATA 75,20
02004:  DATA 20,00
02006:  DATA 41,6C
02008:  DATA 61,72
0200A:  DATA 6D,61
0200C:  DATA 3A,20
0200E:  DATA 4E,6F
02010:  DATA 74,69
02012:  DATA 66,69
02014:  DATA 63,61
02016:  DATA 63,69
02018:  DATA 6F,6E
0201A:  DATA 00,00
0201C:  DATA 41,6C
0201E:  DATA 61,72
02020:  DATA 6D,61
02022:  DATA 3A,20
02024:  DATA 44,65
02026:  DATA 73,61
02028:  DATA 63,74
0202A:  DATA 69,76
0202C:  DATA 61,64
0202E:  DATA 61,20
02030:  DATA 00,00
02032:  DATA 41,6C
02034:  DATA 61,72
02036:  DATA 6D,61
02038:  DATA 3A,20
0203A:  DATA 54,4F
0203C:  DATA 54,41
0203E:  DATA 4C,20
02040:  DATA 41,63
02042:  DATA 74,69
02044:  DATA 76,61
02046:  DATA 00,00
02048:  DATA 41,6C
0204A:  DATA 61,72
0204C:  DATA 6D,61
0204E:  DATA 3A,20
02050:  DATA 4E,4F
02052:  DATA 43,54
02054:  DATA 55,52
02056:  DATA 4E,41
02058:  DATA 20,41
0205A:  DATA 63,74
0205C:  DATA 00,00
0205E:  DATA 41,6C
02060:  DATA 61,72
02062:  DATA 6D,61
02064:  DATA 3A,20
02066:  DATA 4D,41
02068:  DATA 53,43
0206A:  DATA 4F,54
0206C:  DATA 41,20
0206E:  DATA 41,63
02070:  DATA 74,2E
02072:  DATA 00,00
02074:  DATA 3D,50
02076:  DATA 41,4E
02078:  DATA 49,43
0207A:  DATA 4F,3D
0207C:  DATA 20,53
0207E:  DATA 69,6C
02080:  DATA 65,6E
02082:  DATA 63,69
02084:  DATA 6F,73
02086:  DATA 6F,20
02088:  DATA 00,00
0208A:  DATA 20,2D
0208C:  DATA 3D,50
0208E:  DATA 41,4E
02090:  DATA 49,43
02092:  DATA 4F,3D
02094:  DATA 2D,20
02096:  DATA 41,63
02098:  DATA 74,69
0209A:  DATA 76,61
0209C:  DATA 64,6F
0209E:  DATA 00,00
020A0:  DATA 3D,3D
020A2:  DATA 3D,3D
020A4:  DATA 3D,3D
020A6:  DATA 3D,20
020A8:  DATA 4D,45
020AA:  DATA 4E,55
020AC:  DATA 20,3D
020AE:  DATA 3D,3D
020B0:  DATA 3D,3D
020B2:  DATA 3D,3D
020B4:  DATA 00,00
020B6:  DATA 20,7E
020B8:  DATA 20,28
020BA:  DATA 31,29
020BC:  DATA 20,41
020BE:  DATA 6C,61
020C0:  DATA 72,6D
020C2:  DATA 61,20
020C4:  DATA 20,20
020C6:  DATA 20,20
020C8:  DATA 20,20
020CA:  DATA 00,00
020CC:  DATA 20,20
020CE:  DATA 20,28
020D0:  DATA 32,29
020D2:  DATA 20,4C
020D4:  DATA 75,63
020D6:  DATA 65,73
020D8:  DATA 20,20
020DA:  DATA 20,20
020DC:  DATA 20,20
020DE:  DATA 20,20
020E0:  DATA 00,00
020E2:  DATA 20,20
020E4:  DATA 20,28
020E6:  DATA 33,29
020E8:  DATA 20,43
020EA:  DATA 61,73
020EC:  DATA 61,6E
020EE:  DATA 64,72
020F0:  DATA 61,20
020F2:  DATA 20,20
020F4:  DATA 20,20
020F6:  DATA 00,00
020F8:  DATA 3D,3D
020FA:  DATA 3D,3D
020FC:  DATA 3D,3D
020FE:  DATA 3D,20
02100:  DATA 4D,45
02102:  DATA 4E,55
02104:  DATA 20,3D
02106:  DATA 3D,3D
02108:  DATA 3D,3D
0210A:  DATA 3D,3D
0210C:  DATA 00,00
0210E:  DATA 20,20
02110:  DATA 20,28
02112:  DATA 31,29
02114:  DATA 20,41
02116:  DATA 6C,61
02118:  DATA 72,6D
0211A:  DATA 61,20
0211C:  DATA 20,20
0211E:  DATA 20,20
02120:  DATA 20,20
02122:  DATA 00,00
02124:  DATA 20,7E
02126:  DATA 20,28
02128:  DATA 32,29
0212A:  DATA 20,4C
0212C:  DATA 75,63
0212E:  DATA 65,73
02130:  DATA 20,20
02132:  DATA 20,20
02134:  DATA 20,20
02136:  DATA 20,20
02138:  DATA 00,00
0213A:  DATA 20,20
0213C:  DATA 20,28
0213E:  DATA 33,29
02140:  DATA 20,43
02142:  DATA 61,73
02144:  DATA 61,6E
02146:  DATA 64,72
02148:  DATA 61,20
0214A:  DATA 20,20
0214C:  DATA 20,20
0214E:  DATA 00,00
02150:  DATA 3D,3D
02152:  DATA 3D,3D
02154:  DATA 3D,3D
02156:  DATA 3D,20
02158:  DATA 4D,45
0215A:  DATA 4E,55
0215C:  DATA 20,3D
0215E:  DATA 3D,3D
02160:  DATA 3D,3D
02162:  DATA 3D,3D
02164:  DATA 00,00
02166:  DATA 20,20
02168:  DATA 20,28
0216A:  DATA 32,29
0216C:  DATA 20,4C
0216E:  DATA 75,63
02170:  DATA 65,73
02172:  DATA 20,20
02174:  DATA 20,20
02176:  DATA 20,20
02178:  DATA 20,20
0217A:  DATA 00,00
0217C:  DATA 20,7E
0217E:  DATA 20,28
02180:  DATA 33,29
02182:  DATA 20,43
02184:  DATA 61,73
02186:  DATA 61,6E
02188:  DATA 64,72
0218A:  DATA 61,20
0218C:  DATA 20,20
0218E:  DATA 20,20
02190:  DATA 00,00
02192:  DATA 20,20
02194:  DATA 20,28
02196:  DATA 34,29
02198:  DATA 20,41
0219A:  DATA 75,74
0219C:  DATA 6F,6D
0219E:  DATA 61,74
021A0:  DATA 69,63
021A2:  DATA 6F,73
021A4:  DATA 20,20
021A6:  DATA 00,00
021A8:  DATA 3D,3D
021AA:  DATA 3D,3D
021AC:  DATA 3D,3D
021AE:  DATA 3D,20
021B0:  DATA 4D,45
021B2:  DATA 4E,55
021B4:  DATA 20,3D
021B6:  DATA 3D,3D
021B8:  DATA 3D,3D
021BA:  DATA 3D,3D
021BC:  DATA 00,00
021BE:  DATA 20,20
021C0:  DATA 20,28
021C2:  DATA 33,29
021C4:  DATA 20,43
021C6:  DATA 61,73
021C8:  DATA 61,6E
021CA:  DATA 64,72
021CC:  DATA 61,20
021CE:  DATA 20,20
021D0:  DATA 20,20
021D2:  DATA 00,00
021D4:  DATA 20,7E
021D6:  DATA 20,28
021D8:  DATA 34,29
021DA:  DATA 20,41
021DC:  DATA 75,74
021DE:  DATA 6F,6D
021E0:  DATA 61,74
021E2:  DATA 69,63
021E4:  DATA 6F,73
021E6:  DATA 20,20
021E8:  DATA 00,00
021EA:  DATA 20,20
021EC:  DATA 20,28
021EE:  DATA 35,29
021F0:  DATA 20,43
021F2:  DATA 6F,6E
021F4:  DATA 66,69
021F6:  DATA 67,75
021F8:  DATA 72,61
021FA:  DATA 63,69
021FC:  DATA 6F,6E
021FE:  DATA 00,00
02200:  DATA 3D,3D
02202:  DATA 3D,3D
02204:  DATA 3D,3D
02206:  DATA 3D,20
02208:  DATA 4D,45
0220A:  DATA 4E,55
0220C:  DATA 20,3D
0220E:  DATA 3D,3D
02210:  DATA 3D,3D
02212:  DATA 3D,3D
02214:  DATA 00,00
02216:  DATA 20,20
02218:  DATA 20,28
0221A:  DATA 33,29
0221C:  DATA 20,43
0221E:  DATA 61,73
02220:  DATA 61,6E
02222:  DATA 64,72
02224:  DATA 61,20
02226:  DATA 20,20
02228:  DATA 20,20
0222A:  DATA 00,00
0222C:  DATA 20,20
0222E:  DATA 20,28
02230:  DATA 34,29
02232:  DATA 20,41
02234:  DATA 75,74
02236:  DATA 6F,6D
02238:  DATA 61,74
0223A:  DATA 69,63
0223C:  DATA 6F,73
0223E:  DATA 20,20
02240:  DATA 00,00
02242:  DATA 20,7E
02244:  DATA 20,28
02246:  DATA 35,29
02248:  DATA 20,43
0224A:  DATA 6F,6E
0224C:  DATA 66,69
0224E:  DATA 67,75
02250:  DATA 72,61
02252:  DATA 63,69
02254:  DATA 6F,6E
02256:  DATA 00,00
02258:  DATA 3D,3D
0225A:  DATA 3D,3D
0225C:  DATA 3D,3D
0225E:  DATA 20,41
02260:  DATA 6C,61
02262:  DATA 72,6D
02264:  DATA 61,20
02266:  DATA 3D,3D
02268:  DATA 3D,3D
0226A:  DATA 3D,3D
0226C:  DATA 00,00
0226E:  DATA 7E,20
02270:  DATA 28,31
02272:  DATA 29,20
02274:  DATA 41,63
02276:  DATA 74,69
02278:  DATA 76,61
0227A:  DATA 72,20
0227C:  DATA 54,6F
0227E:  DATA 74,61
02280:  DATA 6C,20
02282:  DATA 00,00
02284:  DATA 20,20
02286:  DATA 28,32
02288:  DATA 29,20
0228A:  DATA 41,63
0228C:  DATA 74,69
0228E:  DATA 76,61
02290:  DATA 72,20
02292:  DATA 4E,6F
02294:  DATA 63,68
02296:  DATA 65,20
02298:  DATA 00,00
0229A:  DATA 20,20
0229C:  DATA 28,33
0229E:  DATA 29,20
022A0:  DATA 41,63
022A2:  DATA 74,69
022A4:  DATA 76,61
022A6:  DATA 72,20
022A8:  DATA 4D,61
022AA:  DATA 73,63
022AC:  DATA 6F,74
022AE:  DATA 00,00
022B0:  DATA 3D,3D
022B2:  DATA 3D,3D
022B4:  DATA 3D,3D
022B6:  DATA 20,41
022B8:  DATA 6C,61
022BA:  DATA 72,6D
022BC:  DATA 61,20
022BE:  DATA 3D,3D
022C0:  DATA 3D,3D
022C2:  DATA 3D,3D
022C4:  DATA 00,00
022C6:  DATA 20,20
022C8:  DATA 28,31
022CA:  DATA 29,20
022CC:  DATA 41,63
022CE:  DATA 74,69
022D0:  DATA 76,61
022D2:  DATA 72,20
022D4:  DATA 54,6F
022D6:  DATA 74,61
022D8:  DATA 6C,20
022DA:  DATA 00,00
022DC:  DATA 7E,20
022DE:  DATA 28,32
022E0:  DATA 29,20
022E2:  DATA 41,63
022E4:  DATA 74,69
022E6:  DATA 76,61
022E8:  DATA 72,20
022EA:  DATA 4E,6F
022EC:  DATA 63,68
022EE:  DATA 65,20
022F0:  DATA 00,00
022F2:  DATA 20,20
022F4:  DATA 28,33
022F6:  DATA 29,20
022F8:  DATA 41,63
022FA:  DATA 74,69
022FC:  DATA 76,61
022FE:  DATA 72,20
02300:  DATA 4D,61
02302:  DATA 73,63
02304:  DATA 6F,74
02306:  DATA 00,00
02308:  DATA 3D,3D
0230A:  DATA 3D,3D
0230C:  DATA 3D,3D
0230E:  DATA 20,41
02310:  DATA 6C,61
02312:  DATA 72,6D
02314:  DATA 61,20
02316:  DATA 3D,3D
02318:  DATA 3D,3D
0231A:  DATA 3D,3D
0231C:  DATA 00,00
0231E:  DATA 20,20
02320:  DATA 28,32
02322:  DATA 29,20
02324:  DATA 41,63
02326:  DATA 74,69
02328:  DATA 76,61
0232A:  DATA 72,20
0232C:  DATA 4E,6F
0232E:  DATA 63,68
02330:  DATA 65,20
02332:  DATA 00,00
02334:  DATA 7E,20
02336:  DATA 28,33
02338:  DATA 29,20
0233A:  DATA 41,63
0233C:  DATA 74,69
0233E:  DATA 76,61
02340:  DATA 72,20
02342:  DATA 4D,61
02344:  DATA 73,63
02346:  DATA 6F,74
02348:  DATA 00,00
0234A:  DATA 20,20
0234C:  DATA 28,34
0234E:  DATA 29,20
02350:  DATA 43,6F
02352:  DATA 6E,66
02354:  DATA 69,67
02356:  DATA 75,72
02358:  DATA 61,63
0235A:  DATA 69,6F
0235C:  DATA 6E,20
0235E:  DATA 00,00
02360:  DATA 3D,3D
02362:  DATA 3D,3D
02364:  DATA 3D,3D
02366:  DATA 20,41
02368:  DATA 6C,61
0236A:  DATA 72,6D
0236C:  DATA 61,20
0236E:  DATA 3D,3D
02370:  DATA 3D,3D
02372:  DATA 3D,3D
02374:  DATA 00,00
02376:  DATA 20,20
02378:  DATA 28,32
0237A:  DATA 29,20
0237C:  DATA 41,63
0237E:  DATA 74,69
02380:  DATA 76,61
02382:  DATA 72,20
02384:  DATA 4E,6F
02386:  DATA 63,68
02388:  DATA 65,20
0238A:  DATA 00,00
0238C:  DATA 20,20
0238E:  DATA 28,33
02390:  DATA 29,20
02392:  DATA 41,63
02394:  DATA 74,69
02396:  DATA 76,61
02398:  DATA 72,20
0239A:  DATA 4D,61
0239C:  DATA 73,63
0239E:  DATA 6F,74
023A0:  DATA 00,00
023A2:  DATA 7E,20
023A4:  DATA 28,34
023A6:  DATA 29,20
023A8:  DATA 43,6F
023AA:  DATA 6E,66
023AC:  DATA 69,67
023AE:  DATA 75,72
023B0:  DATA 61,63
023B2:  DATA 69,6F
023B4:  DATA 6E,20
023B6:  DATA 00,00
023B8:  DATA 3D,20
023BA:  DATA 43,6F
023BC:  DATA 6E,74
023BE:  DATA 72,6F
023C0:  DATA 6C,20
023C2:  DATA 64,65
023C4:  DATA 20,6C
023C6:  DATA 75,63
023C8:  DATA 65,73
023CA:  DATA 20,3D
023CC:  DATA 00,00
023CE:  DATA 20,7E
023D0:  DATA 20,28
023D2:  DATA 31,29
023D4:  DATA 20,50
023D6:  DATA 72,65
023D8:  DATA 6E,64
023DA:  DATA 2F,41
023DC:  DATA 70,61
023DE:  DATA 67,61
023E0:  DATA 72,20
023E2:  DATA 00,00
023E4:  DATA 20,20
023E6:  DATA 20,28
023E8:  DATA 32,29
023EA:  DATA 20,47
023EC:  DATA 72,75
023EE:  DATA 70,6F
023F0:  DATA 73,20
023F2:  DATA 20,20
023F4:  DATA 20,20
023F6:  DATA 20,20
023F8:  DATA 00,00
023FA:  DATA 20,20
023FC:  DATA 20,28
023FE:  DATA 33,29
02400:  DATA 20,52
02402:  DATA 65,67
02404:  DATA 75,6C
02406:  DATA 61,63
02408:  DATA 69,6F
0240A:  DATA 6E,20
0240C:  DATA 20,20
0240E:  DATA 00,00
02410:  DATA 3D,20
02412:  DATA 43,6F
02414:  DATA 6E,74
02416:  DATA 72,6F
02418:  DATA 6C,20
0241A:  DATA 64,65
0241C:  DATA 20,6C
0241E:  DATA 75,63
02420:  DATA 65,73
02422:  DATA 20,3D
02424:  DATA 00,00
02426:  DATA 20,20
02428:  DATA 20,28
0242A:  DATA 31,29
0242C:  DATA 20,50
0242E:  DATA 72,65
02430:  DATA 6E,64
02432:  DATA 2F,41
02434:  DATA 70,61
02436:  DATA 67,61
02438:  DATA 72,20
0243A:  DATA 00,00
0243C:  DATA 20,7E
0243E:  DATA 20,28
02440:  DATA 32,29
02442:  DATA 20,47
02444:  DATA 72,75
02446:  DATA 70,6F
02448:  DATA 73,20
0244A:  DATA 20,20
0244C:  DATA 20,20
0244E:  DATA 20,20
02450:  DATA 00,00
02452:  DATA 20,20
02454:  DATA 20,28
02456:  DATA 33,29
02458:  DATA 20,52
0245A:  DATA 65,67
0245C:  DATA 75,6C
0245E:  DATA 61,63
02460:  DATA 69,6F
02462:  DATA 6E,20
02464:  DATA 20,20
02466:  DATA 00,00
02468:  DATA 3D,20
0246A:  DATA 43,6F
0246C:  DATA 6E,74
0246E:  DATA 72,6F
02470:  DATA 6C,20
02472:  DATA 64,65
02474:  DATA 20,6C
02476:  DATA 75,63
02478:  DATA 65,73
0247A:  DATA 20,3D
0247C:  DATA 00,00
0247E:  DATA 20,20
02480:  DATA 20,28
02482:  DATA 31,29
02484:  DATA 20,50
02486:  DATA 72,65
02488:  DATA 6E,64
0248A:  DATA 2F,41
0248C:  DATA 70,61
0248E:  DATA 67,61
02490:  DATA 72,20
02492:  DATA 00,00
02494:  DATA 20,20
02496:  DATA 20,28
02498:  DATA 32,29
0249A:  DATA 20,47
0249C:  DATA 72,75
0249E:  DATA 70,6F
024A0:  DATA 73,20
024A2:  DATA 20,20
024A4:  DATA 20,20
024A6:  DATA 20,20
024A8:  DATA 00,00
024AA:  DATA 20,7E
024AC:  DATA 20,28
024AE:  DATA 33,29
024B0:  DATA 20,52
024B2:  DATA 65,67
024B4:  DATA 75,6C
024B6:  DATA 61,63
024B8:  DATA 69,6F
024BA:  DATA 6E,20
024BC:  DATA 20,20
024BE:  DATA 00,00
024C0:  DATA 3D,3D
024C2:  DATA 3D,3D
024C4:  DATA 20,41
024C6:  DATA 75,74
024C8:  DATA 6F,6D
024CA:  DATA 61,74
024CC:  DATA 69,63
024CE:  DATA 6F,20
024D0:  DATA 3D,3D
024D2:  DATA 3D,3D
024D4:  DATA 00,00
024D6:  DATA 20,7E
024D8:  DATA 20,28
024DA:  DATA 31,29
024DC:  DATA 20,45
024DE:  DATA 6C,65
024E0:  DATA 67,69
024E2:  DATA 72,20
024E4:  DATA 64,69
024E6:  DATA 61,73
024E8:  DATA 20,20
024EA:  DATA 00,00
024EC:  DATA 20,20
024EE:  DATA 20,28
024F0:  DATA 32,29
024F2:  DATA 20,48
024F4:  DATA 6F,72
024F6:  DATA 61,72
024F8:  DATA 69,6F
024FA:  DATA 20,20
024FC:  DATA 20,20
024FE:  DATA 20,20
02500:  DATA 00,00
02502:  DATA 20,20
02504:  DATA 20,28
02506:  DATA 33,29
02508:  DATA 20,45
0250A:  DATA 6C,65
0250C:  DATA 67,69
0250E:  DATA 72,20
02510:  DATA 6C,75
02512:  DATA 63,65
02514:  DATA 73,20
02516:  DATA 00,00
02518:  DATA 3D,3D
0251A:  DATA 3D,3D
0251C:  DATA 20,41
0251E:  DATA 75,74
02520:  DATA 6F,6D
02522:  DATA 61,74
02524:  DATA 69,63
02526:  DATA 6F,20
02528:  DATA 3D,3D
0252A:  DATA 3D,3D
0252C:  DATA 00,00
0252E:  DATA 20,20
02530:  DATA 20,28
02532:  DATA 31,29
02534:  DATA 20,45
02536:  DATA 6C,65
02538:  DATA 67,69
0253A:  DATA 72,20
0253C:  DATA 64,69
0253E:  DATA 61,73
02540:  DATA 20,20
02542:  DATA 00,00
02544:  DATA 20,7E
02546:  DATA 20,28
02548:  DATA 32,29
0254A:  DATA 20,48
0254C:  DATA 6F,72
0254E:  DATA 61,72
02550:  DATA 69,6F
02552:  DATA 20,20
02554:  DATA 20,20
02556:  DATA 20,20
02558:  DATA 00,00
0255A:  DATA 20,20
0255C:  DATA 20,28
0255E:  DATA 33,29
02560:  DATA 20,45
02562:  DATA 6C,65
02564:  DATA 67,69
02566:  DATA 72,20
02568:  DATA 6C,75
0256A:  DATA 63,65
0256C:  DATA 73,20
0256E:  DATA 00,00
02570:  DATA 3D,3D
02572:  DATA 3D,3D
02574:  DATA 20,41
02576:  DATA 75,74
02578:  DATA 6F,6D
0257A:  DATA 61,74
0257C:  DATA 69,63
0257E:  DATA 6F,20
02580:  DATA 3D,3D
02582:  DATA 3D,3D
02584:  DATA 00,00
02586:  DATA 20,20
02588:  DATA 20,28
0258A:  DATA 31,29
0258C:  DATA 20,45
0258E:  DATA 6C,65
02590:  DATA 67,69
02592:  DATA 72,20
02594:  DATA 64,69
02596:  DATA 61,73
02598:  DATA 20,20
0259A:  DATA 00,00
0259C:  DATA 20,20
0259E:  DATA 20,28
025A0:  DATA 32,29
025A2:  DATA 20,48
025A4:  DATA 6F,72
025A6:  DATA 61,72
025A8:  DATA 69,6F
025AA:  DATA 20,20
025AC:  DATA 20,20
025AE:  DATA 20,20
025B0:  DATA 00,00
025B2:  DATA 20,7E
025B4:  DATA 20,28
025B6:  DATA 33,29
025B8:  DATA 20,45
025BA:  DATA 6C,65
025BC:  DATA 67,69
025BE:  DATA 72,20
025C0:  DATA 6C,75
025C2:  DATA 63,65
025C4:  DATA 73,20
025C6:  DATA 00,00
025C8:  DATA 3D,3D
025CA:  DATA 3D,20
025CC:  DATA 43,6F
025CE:  DATA 6E,66
025D0:  DATA 69,67
025D2:  DATA 75,72
025D4:  DATA 61,63
025D6:  DATA 69,6F
025D8:  DATA 6E,20
025DA:  DATA 3D,3D
025DC:  DATA 00,00
025DE:  DATA 20,7E
025E0:  DATA 20,28
025E2:  DATA 31,29
025E4:  DATA 20,43
025E6:  DATA 61,6D
025E8:  DATA 62,69
025EA:  DATA 61,72
025EC:  DATA 20,43
025EE:  DATA 6C,61
025F0:  DATA 76,65
025F2:  DATA 00,00
025F4:  DATA 20,20
025F6:  DATA 20,28
025F8:  DATA 32,29
025FA:  DATA 20,46
025FC:  DATA 65,63
025FE:  DATA 68,61
02600:  DATA 20,79
02602:  DATA 20,68
02604:  DATA 6F,72
02606:  DATA 61,20
02608:  DATA 00,00
0260A:  DATA 20,20
0260C:  DATA 20,28
0260E:  DATA 33,29
02610:  DATA 20,46
02612:  DATA 6F,74
02614:  DATA 6F,63
02616:  DATA 65,6C
02618:  DATA 75,6C
0261A:  DATA 61,20
0261C:  DATA 20,20
0261E:  DATA 00,00
02620:  DATA 3D,3D
02622:  DATA 3D,20
02624:  DATA 43,6F
02626:  DATA 6E,66
02628:  DATA 69,67
0262A:  DATA 75,72
0262C:  DATA 61,63
0262E:  DATA 69,6F
02630:  DATA 6E,20
02632:  DATA 3D,3D
02634:  DATA 00,00
02636:  DATA 20,20
02638:  DATA 20,28
0263A:  DATA 31,29
0263C:  DATA 20,43
0263E:  DATA 61,6D
02640:  DATA 62,69
02642:  DATA 61,72
02644:  DATA 20,43
02646:  DATA 6C,61
02648:  DATA 76,65
0264A:  DATA 00,00
0264C:  DATA 20,7E
0264E:  DATA 20,28
02650:  DATA 32,29
02652:  DATA 20,46
02654:  DATA 65,63
02656:  DATA 68,61
02658:  DATA 20,79
0265A:  DATA 20,68
0265C:  DATA 6F,72
0265E:  DATA 61,20
02660:  DATA 00,00
02662:  DATA 20,20
02664:  DATA 20,28
02666:  DATA 33,29
02668:  DATA 20,46
0266A:  DATA 6F,74
0266C:  DATA 6F,63
0266E:  DATA 65,6C
02670:  DATA 75,6C
02672:  DATA 61,20
02674:  DATA 20,20
02676:  DATA 00,00
02678:  DATA 3D,3D
0267A:  DATA 3D,20
0267C:  DATA 43,6F
0267E:  DATA 6E,66
02680:  DATA 69,67
02682:  DATA 75,72
02684:  DATA 61,63
02686:  DATA 69,6F
02688:  DATA 6E,20
0268A:  DATA 3D,3D
0268C:  DATA 00,00
0268E:  DATA 20,20
02690:  DATA 20,28
02692:  DATA 32,29
02694:  DATA 20,46
02696:  DATA 65,63
02698:  DATA 68,61
0269A:  DATA 20,79
0269C:  DATA 20,68
0269E:  DATA 6F,72
026A0:  DATA 61,20
026A2:  DATA 00,00
026A4:  DATA 20,7E
026A6:  DATA 20,28
026A8:  DATA 33,29
026AA:  DATA 20,46
026AC:  DATA 6F,74
026AE:  DATA 6F,63
026B0:  DATA 65,6C
026B2:  DATA 75,6C
026B4:  DATA 61,20
026B6:  DATA 20,20
026B8:  DATA 00,00
026BA:  DATA 20,20
026BC:  DATA 20,28
026BE:  DATA 34,29
026C0:  DATA 20,52
026C2:  DATA 65,73
026C4:  DATA 65,74
026C6:  DATA 65,61
026C8:  DATA 72,20
026CA:  DATA 3A,4F
026CC:  DATA 20,20
026CE:  DATA 00,00
026D0:  DATA 3D,3D
026D2:  DATA 3D,20
026D4:  DATA 43,6F
026D6:  DATA 6E,66
026D8:  DATA 69,67
026DA:  DATA 75,72
026DC:  DATA 61,63
026DE:  DATA 69,6F
026E0:  DATA 6E,20
026E2:  DATA 3D,3D
026E4:  DATA 00,00
026E6:  DATA 20,20
026E8:  DATA 20,28
026EA:  DATA 33,29
026EC:  DATA 20,46
026EE:  DATA 6F,74
026F0:  DATA 6F,63
026F2:  DATA 65,6C
026F4:  DATA 75,6C
026F6:  DATA 61,20
026F8:  DATA 20,20
026FA:  DATA 00,00
026FC:  DATA 20,7E
026FE:  DATA 20,28
02700:  DATA 34,29
02702:  DATA 20,52
02704:  DATA 65,73
02706:  DATA 65,74
02708:  DATA 65,61
0270A:  DATA 72,20
0270C:  DATA 3A,4F
0270E:  DATA 20,20
02710:  DATA 00,00
02712:  DATA 20,20
02714:  DATA 20,28
02716:  DATA 35,29
02718:  DATA 20,41
0271A:  DATA 63,65
0271C:  DATA 72,63
0271E:  DATA 61,20
02720:  DATA 64,65
02722:  DATA 2E,2E
02724:  DATA 20,20
02726:  DATA 00,00
02728:  DATA 3D,3D
0272A:  DATA 3D,20
0272C:  DATA 43,6F
0272E:  DATA 6E,66
02730:  DATA 69,67
02732:  DATA 75,72
02734:  DATA 61,63
02736:  DATA 69,6F
02738:  DATA 6E,20
0273A:  DATA 3D,3D
0273C:  DATA 00,00
0273E:  DATA 20,20
02740:  DATA 20,28
02742:  DATA 33,29
02744:  DATA 20,46
02746:  DATA 6F,74
02748:  DATA 6F,63
0274A:  DATA 65,6C
0274C:  DATA 75,6C
0274E:  DATA 61,20
02750:  DATA 20,20
02752:  DATA 00,00
02754:  DATA 20,20
02756:  DATA 20,28
02758:  DATA 34,29
0275A:  DATA 20,52
0275C:  DATA 65,73
0275E:  DATA 65,74
02760:  DATA 65,61
02762:  DATA 72,20
02764:  DATA 3A,4F
02766:  DATA 20,20
02768:  DATA 00,00
0276A:  DATA 20,7E
0276C:  DATA 20,28
0276E:  DATA 35,29
02770:  DATA 20,41
02772:  DATA 63,65
02774:  DATA 72,63
02776:  DATA 61,20
02778:  DATA 64,65
0277A:  DATA 2E,2E
0277C:  DATA 20,20
0277E:  DATA 00,00
02780:  DATA 0C,00
02782:  DATA 20,45
02784:  DATA 73,74
02786:  DATA 61,20
02788:  DATA 65,73
0278A:  DATA 20,6C
0278C:  DATA 61,20
0278E:  DATA 66,75
02790:  DATA 6E,63
02792:  DATA 69,6F
02794:  DATA 6E,00
02796:  DATA 20,20
02798:  DATA 20,20
0279A:  DATA 48,6F
0279C:  DATA 6C,64
0279E:  DATA 69,6E
027A0:  DATA 67,28
027A2:  DATA 29,3B
027A4:  DATA 20,20
027A6:  DATA 20,00
027A8:  DATA 0C,00
027AA:  DATA 20,45
027AC:  DATA 73,74
027AE:  DATA 61,20
027B0:  DATA 65,73
027B2:  DATA 20,6C
027B4:  DATA 61,20
027B6:  DATA 66,75
027B8:  DATA 6E,63
027BA:  DATA 69,6F
027BC:  DATA 6E,00
027BE:  DATA 20,20
027C0:  DATA 20,20
027C2:  DATA 4E,6F
027C4:  DATA 74,69
027C6:  DATA 66,69
027C8:  DATA 63,61
027CA:  DATA 64,6F
027CC:  DATA 72,28
027CE:  DATA 29,3B
027D0:  DATA 20,20
027D2:  DATA 20,00
027D4:  DATA 0C,00
027D6:  DATA 3D,3D
027D8:  DATA 20,20
027DA:  DATA 20,20
027DC:  DATA 20,20
027DE:  DATA 20,20
027E0:  DATA 20,20
027E2:  DATA 20,20
027E4:  DATA 20,20
027E6:  DATA 20,20
027E8:  DATA 20,43
027EA:  DATA 00,00
027EC:  DATA 3D,3D
027EE:  DATA 20,20
027F0:  DATA 20,20
027F2:  DATA 20,20
027F4:  DATA 20,20
027F6:  DATA 20,20
027F8:  DATA 20,20
027FA:  DATA 20,20
027FC:  DATA 20,20
027FE:  DATA 43,20
02800:  DATA 00,00
02802:  DATA 3D,3D
02804:  DATA 20,20
02806:  DATA 20,20
02808:  DATA 20,20
0280A:  DATA 20,20
0280C:  DATA 20,20
0280E:  DATA 20,20
02810:  DATA 20,20
02812:  DATA 20,43
02814:  DATA 20,20
02816:  DATA 00,00
02818:  DATA 3D,3D
0281A:  DATA 20,20
0281C:  DATA 20,20
0281E:  DATA 20,20
02820:  DATA 20,20
02822:  DATA 20,20
02824:  DATA 20,20
02826:  DATA 20,20
02828:  DATA 43,20
0282A:  DATA 20,41
0282C:  DATA 00,00
0282E:  DATA 3D,3D
02830:  DATA 20,20
02832:  DATA 20,20
02834:  DATA 20,20
02836:  DATA 20,20
02838:  DATA 20,20
0283A:  DATA 20,20
0283C:  DATA 20,43
0283E:  DATA 20,20
02840:  DATA 41,20
02842:  DATA 00,00
02844:  DATA 3D,3D
02846:  DATA 20,20
02848:  DATA 20,20
0284A:  DATA 20,20
0284C:  DATA 20,20
0284E:  DATA 20,20
02850:  DATA 20,20
02852:  DATA 43,20
02854:  DATA 20,41
02856:  DATA 20,20
02858:  DATA 00,00
0285A:  DATA 3D,3D
0285C:  DATA 20,20
0285E:  DATA 20,20
02860:  DATA 20,20
02862:  DATA 20,20
02864:  DATA 20,20
02866:  DATA 20,43
02868:  DATA 20,20
0286A:  DATA 41,20
0286C:  DATA 20,53
0286E:  DATA 00,00
02870:  DATA 3D,3D
02872:  DATA 20,20
02874:  DATA 20,20
02876:  DATA 20,20
02878:  DATA 20,20
0287A:  DATA 20,20
0287C:  DATA 43,20
0287E:  DATA 20,41
02880:  DATA 20,20
02882:  DATA 53,20
02884:  DATA 00,00
02886:  DATA 3D,3D
02888:  DATA 20,20
0288A:  DATA 20,20
0288C:  DATA 20,20
0288E:  DATA 20,20
02890:  DATA 20,43
02892:  DATA 20,20
02894:  DATA 41,20
02896:  DATA 20,53
02898:  DATA 20,20
0289A:  DATA 00,00
0289C:  DATA 3D,3D
0289E:  DATA 20,20
028A0:  DATA 20,20
028A2:  DATA 20,20
028A4:  DATA 20,20
028A6:  DATA 43,20
028A8:  DATA 20,41
028AA:  DATA 20,20
028AC:  DATA 53,20
028AE:  DATA 20,41
028B0:  DATA 00,00
028B2:  DATA 3D,3D
028B4:  DATA 20,20
028B6:  DATA 20,20
028B8:  DATA 20,20
028BA:  DATA 20,43
028BC:  DATA 20,20
028BE:  DATA 41,20
028C0:  DATA 20,53
028C2:  DATA 20,20
028C4:  DATA 41,20
028C6:  DATA 00,00
028C8:  DATA 3D,3D
028CA:  DATA 20,20
028CC:  DATA 20,20
028CE:  DATA 20,20
028D0:  DATA 43,20
028D2:  DATA 20,41
028D4:  DATA 20,20
028D6:  DATA 53,20
028D8:  DATA 20,41
028DA:  DATA 20,20
028DC:  DATA 00,00
028DE:  DATA 3D,3D
028E0:  DATA 20,20
028E2:  DATA 20,20
028E4:  DATA 20,43
028E6:  DATA 20,20
028E8:  DATA 41,20
028EA:  DATA 20,53
028EC:  DATA 20,20
028EE:  DATA 41,20
028F0:  DATA 20,4E
028F2:  DATA 00,00
028F4:  DATA 3D,3D
028F6:  DATA 20,20
028F8:  DATA 20,20
028FA:  DATA 43,20
028FC:  DATA 20,41
028FE:  DATA 20,20
02900:  DATA 53,20
02902:  DATA 20,41
02904:  DATA 20,20
02906:  DATA 4E,20
02908:  DATA 00,00
0290A:  DATA 3D,3D
0290C:  DATA 20,20
0290E:  DATA 20,43
02910:  DATA 20,20
02912:  DATA 41,20
02914:  DATA 20,53
02916:  DATA 20,20
02918:  DATA 41,20
0291A:  DATA 20,4E
0291C:  DATA 20,20
0291E:  DATA 00,00
02920:  DATA 3D,3D
02922:  DATA 20,20
02924:  DATA 43,20
02926:  DATA 20,41
02928:  DATA 20,20
0292A:  DATA 53,20
0292C:  DATA 20,41
0292E:  DATA 20,20
02930:  DATA 4E,20
02932:  DATA 20,44
02934:  DATA 00,00
02936:  DATA 3D,3D
02938:  DATA 20,43
0293A:  DATA 20,20
0293C:  DATA 41,20
0293E:  DATA 20,53
02940:  DATA 20,20
02942:  DATA 41,20
02944:  DATA 20,4E
02946:  DATA 20,20
02948:  DATA 44,20
0294A:  DATA 00,00
0294C:  DATA 3D,3D
0294E:  DATA 20,43
02950:  DATA 20,41
02952:  DATA 20,20
02954:  DATA 53,20
02956:  DATA 20,41
02958:  DATA 20,20
0295A:  DATA 4E,20
0295C:  DATA 20,44
0295E:  DATA 20,20
02960:  DATA 00,00
02962:  DATA 3D,3D
02964:  DATA 20,43
02966:  DATA 41,20
02968:  DATA 20,53
0296A:  DATA 20,20
0296C:  DATA 41,20
0296E:  DATA 20,4E
02970:  DATA 20,20
02972:  DATA 44,20
02974:  DATA 20,52
02976:  DATA 00,00
02978:  DATA 3D,3D
0297A:  DATA 20,43
0297C:  DATA 41,20
0297E:  DATA 53,20
02980:  DATA 20,41
02982:  DATA 20,20
02984:  DATA 4E,20
02986:  DATA 20,44
02988:  DATA 20,20
0298A:  DATA 52,20
0298C:  DATA 00,00
0298E:  DATA 3D,3D
02990:  DATA 20,43
02992:  DATA 41,53
02994:  DATA 20,20
02996:  DATA 41,20
02998:  DATA 20,4E
0299A:  DATA 20,20
0299C:  DATA 44,20
0299E:  DATA 20,52
029A0:  DATA 20,20
029A2:  DATA 00,00
029A4:  DATA 3D,3D
029A6:  DATA 20,43
029A8:  DATA 41,53
029AA:  DATA 20,41
029AC:  DATA 20,20
029AE:  DATA 4E,20
029B0:  DATA 20,44
029B2:  DATA 20,20
029B4:  DATA 52,20
029B6:  DATA 20,41
029B8:  DATA 00,00
029BA:  DATA 3D,3D
029BC:  DATA 20,43
029BE:  DATA 41,53
029C0:  DATA 41,20
029C2:  DATA 20,4E
029C4:  DATA 20,20
029C6:  DATA 44,20
029C8:  DATA 20,52
029CA:  DATA 20,20
029CC:  DATA 41,20
029CE:  DATA 00,00
029D0:  DATA 3D,3D
029D2:  DATA 20,43
029D4:  DATA 41,53
029D6:  DATA 41,20
029D8:  DATA 4E,20
029DA:  DATA 20,44
029DC:  DATA 20,20
029DE:  DATA 52,20
029E0:  DATA 20,41
029E2:  DATA 20,20
029E4:  DATA 00,00
029E6:  DATA 3D,3D
029E8:  DATA 20,43
029EA:  DATA 41,53
029EC:  DATA 41,4E
029EE:  DATA 20,20
029F0:  DATA 44,20
029F2:  DATA 20,52
029F4:  DATA 20,20
029F6:  DATA 41,20
029F8:  DATA 20,20
029FA:  DATA 00,00
029FC:  DATA 3D,3D
029FE:  DATA 20,43
02A00:  DATA 41,53
02A02:  DATA 41,4E
02A04:  DATA 20,44
02A06:  DATA 20,20
02A08:  DATA 52,20
02A0A:  DATA 20,41
02A0C:  DATA 20,20
02A0E:  DATA 20,20
02A10:  DATA 00,00
02A12:  DATA 3D,3D
02A14:  DATA 20,43
02A16:  DATA 41,53
02A18:  DATA 41,4E
02A1A:  DATA 44,20
02A1C:  DATA 20,52
02A1E:  DATA 20,20
02A20:  DATA 41,20
02A22:  DATA 20,20
02A24:  DATA 20,20
02A26:  DATA 00,00
02A28:  DATA 3D,3D
02A2A:  DATA 20,43
02A2C:  DATA 41,53
02A2E:  DATA 41,4E
02A30:  DATA 44,20
02A32:  DATA 52,20
02A34:  DATA 20,41
02A36:  DATA 20,20
02A38:  DATA 20,20
02A3A:  DATA 20,20
02A3C:  DATA 00,00
02A3E:  DATA 3D,3D
02A40:  DATA 20,43
02A42:  DATA 41,53
02A44:  DATA 41,4E
02A46:  DATA 44,52
02A48:  DATA 20,20
02A4A:  DATA 41,20
02A4C:  DATA 20,20
02A4E:  DATA 20,20
02A50:  DATA 20,20
02A52:  DATA 00,00
02A54:  DATA 3D,3D
02A56:  DATA 20,43
02A58:  DATA 41,53
02A5A:  DATA 41,4E
02A5C:  DATA 44,52
02A5E:  DATA 20,41
02A60:  DATA 20,20
02A62:  DATA 20,20
02A64:  DATA 20,20
02A66:  DATA 20,20
02A68:  DATA 00,00
02A6A:  DATA 3D,3D
02A6C:  DATA 20,43
02A6E:  DATA 41,53
02A70:  DATA 41,4E
02A72:  DATA 44,52
02A74:  DATA 41,20
02A76:  DATA 20,20
02A78:  DATA 20,20
02A7A:  DATA 20,20
02A7C:  DATA 20,20
02A7E:  DATA 00,00
02A80:  DATA 3D,3D
02A82:  DATA 3D,20
02A84:  DATA 43,41
02A86:  DATA 53,41
02A88:  DATA 4E,44
02A8A:  DATA 52,41
02A8C:  DATA 20,20
02A8E:  DATA 20,20
02A90:  DATA 20,20
02A92:  DATA 20,3D
02A94:  DATA 00,00
02A96:  DATA 3D,3D
02A98:  DATA 3D,3D
02A9A:  DATA 20,43
02A9C:  DATA 41,53
02A9E:  DATA 41,4E
02AA0:  DATA 44,52
02AA2:  DATA 41,20
02AA4:  DATA 20,20
02AA6:  DATA 20,20
02AA8:  DATA 3D,3D
02AAA:  DATA 00,00
02AAC:  DATA 3D,3D
02AAE:  DATA 3D,3D
02AB0:  DATA 3D,20
02AB2:  DATA 43,41
02AB4:  DATA 53,41
02AB6:  DATA 4E,44
02AB8:  DATA 52,41
02ABA:  DATA 20,20
02ABC:  DATA 20,3D
02ABE:  DATA 3D,3D
02AC0:  DATA 00,00
02AC2:  DATA 3D,3D
02AC4:  DATA 3D,3D
02AC6:  DATA 3D,20
02AC8:  DATA 43,41
02ACA:  DATA 53,41
02ACC:  DATA 4E,44
02ACE:  DATA 52,41
02AD0:  DATA 20,3D
02AD2:  DATA 3D,3D
02AD4:  DATA 3D,3D
02AD6:  DATA 00,00
02AD8:  DATA 20,20
02ADA:  DATA 20,20
02ADC:  DATA 20,43
02ADE:  DATA 41,53
02AE0:  DATA 41,4E
02AE2:  DATA 44,52
02AE4:  DATA 41,20
02AE6:  DATA 25,63
02AE8:  DATA 20,20
02AEA:  DATA 20,20
02AEC:  DATA 20,00
02AEE:  DATA 56,65
02AF0:  DATA 72,73
02AF2:  DATA 3A,20
02AF4:  DATA 30,2E
02AF6:  DATA 39,62
02AF8:  DATA 20,20
02AFA:  DATA 4A,75
02AFC:  DATA 6E,2D
02AFE:  DATA 32,30
02B00:  DATA 31,34
02B02:  DATA 00,00
02B04:  DATA 7E,47
02B06:  DATA 6F,6E
02B08:  DATA 7A,61
02B0A:  DATA 6C,6F
02B0C:  DATA 20,43
02B0E:  DATA 61,72
02B10:  DATA 76,61
02B12:  DATA 6C,6C
02B14:  DATA 6F,20
02B16:  DATA 4D,2E
02B18:  DATA 00,00
02B1A:  DATA 7E,67
02B1C:  DATA 6F,6E
02B1E:  DATA 7A,61
02B20:  DATA 63,61
02B22:  DATA 72,76
02B24:  DATA 40,67
02B26:  DATA 6D,61
02B28:  DATA 69,6C
02B2A:  DATA 2E,63
02B2C:  DATA 6F,6D
02B2E:  DATA 00,00
*
02ED8:  ADDWF  FE8,W
02EDA:  CLRF   FF7
02EDC:  RLCF   FF7,F
02EDE:  ADDLW  F3
02EE0:  MOVWF  FF6
02EE2:  MOVLW  2E
02EE4:  ADDWFC FF7,F
02EE6:  TBLRD*-
02EE8:  MOVF   FF5,W
02EEA:  MOVWF  FFA
02EEC:  TBLRD*
02EEE:  MOVF   FF5,W
02EF0:  MOVWF  FF9
02EF2:  DATA A2,2E
02EF4:  DATA A8,2E
02EF6:  DATA B0,2E
02EF8:  DATA B8,2E
*
02F62:  TBLRD*+
02F64:  MOVF   FF5,F
02F66:  BZ    2F80
02F68:  MOVFF  FF6,20A
02F6C:  MOVFF  FF7,20B
02F70:  MOVFF  FF5,20D
02F74:  RCALL  2EFA
02F76:  MOVFF  20A,FF6
02F7A:  MOVFF  20B,FF7
02F7E:  BRA    2F62
02F80:  RETURN 0
*
03496:  TBLRD*+
03498:  MOVFF  FF6,20B
0349C:  MOVFF  FF7,20C
034A0:  MOVFF  FF5,20D
034A4:  RCALL  2EFA
034A6:  MOVFF  20B,FF6
034AA:  MOVFF  20C,FF7
034AE:  MOVLB  2
034B0:  DECFSZ x0A,F
034B2:  BRA    34B6
034B4:  BRA    34BA
034B6:  MOVLB  0
034B8:  BRA    3496
034BA:  MOVLB  0
034BC:  RETURN 0
034BE:  MOVF   FEF,F
034C0:  BZ    34E0
034C2:  MOVFF  FEA,20B
034C6:  MOVFF  FE9,20A
034CA:  MOVFF  FEF,20D
034CE:  RCALL  2EFA
034D0:  MOVFF  20B,FEA
034D4:  MOVFF  20A,FE9
034D8:  INCF   FE9,F
034DA:  BTFSC  FD8.2
034DC:  INCF   FEA,F
034DE:  BRA    34BE
034E0:  RETURN 0
034E2:  MOVLW  20
034E4:  MOVLB  2
034E6:  BTFSS  x04.4
034E8:  MOVLW  30
034EA:  MOVWF  x05
034EC:  MOVFF  203,00
034F0:  BTFSS  x03.7
034F2:  BRA    3504
034F4:  COMF   00,F
034F6:  INCF   00,F
034F8:  MOVFF  00,203
034FC:  MOVLW  2D
034FE:  MOVWF  x05
03500:  BSF    x04.7
03502:  BSF    x04.0
03504:  MOVF   01,W
03506:  CLRF   19
03508:  BTFSC  FF2.7
0350A:  BSF    19.7
0350C:  BCF    FF2.7
0350E:  MOVFF  203,219
03512:  MOVLW  64
03514:  MOVWF  x1A
03516:  MOVLB  0
03518:  CALL   11F0
0351C:  BTFSC  19.7
0351E:  BSF    FF2.7
03520:  MOVFF  00,203
03524:  MOVLW  30
03526:  ADDWF  01,W
03528:  MOVLB  2
0352A:  MOVWF  x06
0352C:  CLRF   19
0352E:  BTFSC  FF2.7
03530:  BSF    19.7
03532:  BCF    FF2.7
03534:  MOVFF  203,219
03538:  MOVLW  0A
0353A:  MOVWF  x1A
0353C:  MOVLB  0
0353E:  CALL   11F0
03542:  BTFSC  19.7
03544:  BSF    FF2.7
03546:  MOVLW  30
03548:  ADDWF  00,W
0354A:  MOVLB  2
0354C:  MOVWF  x08
0354E:  MOVLW  30
03550:  ADDWF  01,W
03552:  MOVWF  x07
03554:  MOVFF  205,00
03558:  MOVLW  30
0355A:  SUBWF  x06,W
0355C:  BZ    3566
0355E:  BSF    x04.1
03560:  BTFSC  x04.7
03562:  BSF    x04.2
03564:  BRA    358A
03566:  MOVFF  205,206
0356A:  MOVLW  20
0356C:  MOVWF  x05
0356E:  MOVLW  30
03570:  SUBWF  x07,W
03572:  BZ    357C
03574:  BSF    x04.0
03576:  BTFSC  x04.7
03578:  BSF    x04.1
0357A:  BRA    358A
0357C:  BTFSS  FD8.2
0357E:  BSF    x04.0
03580:  BNZ   358A
03582:  MOVFF  206,207
03586:  MOVLW  20
03588:  MOVWF  x06
0358A:  BTFSC  x04.2
0358C:  BRA    3598
0358E:  BTFSC  x04.1
03590:  BRA    35A0
03592:  BTFSC  x04.0
03594:  BRA    35A8
03596:  BRA    35B0
03598:  MOVFF  205,20D
0359C:  MOVLB  0
0359E:  RCALL  2EFA
035A0:  MOVFF  206,20D
035A4:  MOVLB  0
035A6:  RCALL  2EFA
035A8:  MOVFF  207,20D
035AC:  MOVLB  0
035AE:  RCALL  2EFA
035B0:  MOVFF  208,20D
035B4:  MOVLB  0
035B6:  RCALL  2EFA
035B8:  RETURN 0
035BA:  MOVLW  20
035BC:  MOVLB  2
035BE:  BTFSS  x04.4
035C0:  MOVLW  30
035C2:  MOVWF  x05
035C4:  MOVFF  203,00
035C8:  BTFSS  x03.7
035CA:  BRA    35DC
035CC:  COMF   00,F
035CE:  INCF   00,F
035D0:  MOVFF  00,203
035D4:  MOVLW  2D
035D6:  MOVWF  x05
035D8:  BSF    x04.7
035DA:  BSF    x04.0
035DC:  MOVF   01,W
035DE:  CLRF   19
035E0:  BTFSC  FF2.7
035E2:  BSF    19.7
035E4:  BCF    FF2.7
035E6:  MOVFF  203,219
035EA:  MOVLW  64
035EC:  MOVWF  x1A
035EE:  MOVLB  0
035F0:  CALL   11F0
035F4:  BTFSC  19.7
035F6:  BSF    FF2.7
035F8:  MOVFF  00,203
035FC:  MOVLW  30
035FE:  ADDWF  01,W
03600:  MOVLB  2
03602:  MOVWF  x06
03604:  CLRF   19
03606:  BTFSC  FF2.7
03608:  BSF    19.7
0360A:  BCF    FF2.7
0360C:  MOVFF  203,219
03610:  MOVLW  0A
03612:  MOVWF  x1A
03614:  MOVLB  0
03616:  CALL   11F0
0361A:  BTFSC  19.7
0361C:  BSF    FF2.7
0361E:  MOVLW  30
03620:  ADDWF  00,W
03622:  MOVLB  2
03624:  MOVWF  x08
03626:  MOVLW  30
03628:  ADDWF  01,W
0362A:  MOVWF  x07
0362C:  MOVFF  205,00
03630:  MOVLW  30
03632:  SUBWF  x06,W
03634:  BZ    363E
03636:  BSF    x04.1
03638:  BTFSC  x04.7
0363A:  BSF    x04.2
0363C:  BRA    3662
0363E:  BTFSC  x04.2
03640:  BRA    3662
03642:  MOVFF  205,206
03646:  BTFSC  x04.1
03648:  BRA    3652
0364A:  MOVLW  30
0364C:  SUBWF  x07,W
0364E:  BZ    3658
03650:  BSF    x04.0
03652:  BTFSC  x04.7
03654:  BSF    x04.1
03656:  BRA    3662
03658:  BTFSS  FD8.2
0365A:  BSF    x04.0
0365C:  BTFSC  FD8.2
0365E:  MOVFF  206,207
03662:  BTFSC  x04.2
03664:  BRA    3670
03666:  BTFSC  x04.1
03668:  BRA    3678
0366A:  BTFSC  x04.0
0366C:  BRA    3680
0366E:  BRA    3688
03670:  MOVFF  205,20D
03674:  MOVLB  0
03676:  RCALL  2EFA
03678:  MOVFF  206,20D
0367C:  MOVLB  0
0367E:  RCALL  2EFA
03680:  MOVFF  207,20D
03684:  MOVLB  0
03686:  RCALL  2EFA
03688:  MOVFF  208,20D
0368C:  MOVLB  0
0368E:  RCALL  2EFA
03690:  RETURN 0
03692:  MOVF   01,W
03694:  CLRF   19
03696:  BTFSC  FF2.7
03698:  BSF    19.7
0369A:  BCF    FF2.7
0369C:  MOVFF  203,219
036A0:  MOVLW  64
036A2:  MOVLB  2
036A4:  MOVWF  x1A
036A6:  MOVLB  0
036A8:  CALL   11F0
036AC:  BTFSC  19.7
036AE:  BSF    FF2.7
036B0:  MOVFF  00,203
036B4:  MOVF   01,W
036B6:  MOVLW  30
036B8:  BNZ   36CA
036BA:  MOVLB  2
036BC:  BTFSS  x04.1
036BE:  BRA    36DE
036C0:  BTFSC  x04.3
036C2:  BRA    36DE
036C4:  BTFSC  x04.4
036C6:  MOVLW  20
036C8:  BRA    36D2
036CA:  MOVLB  2
036CC:  BCF    x04.3
036CE:  BCF    x04.4
036D0:  BSF    x04.0
036D2:  ADDWF  01,F
036D4:  MOVFF  01,20D
036D8:  MOVLB  0
036DA:  RCALL  2EFA
036DC:  MOVLB  2
036DE:  CLRF   19
036E0:  BTFSC  FF2.7
036E2:  BSF    19.7
036E4:  BCF    FF2.7
036E6:  MOVFF  203,219
036EA:  MOVLW  0A
036EC:  MOVWF  x1A
036EE:  MOVLB  0
036F0:  CALL   11F0
036F4:  BTFSC  19.7
036F6:  BSF    FF2.7
036F8:  MOVFF  00,203
036FC:  MOVF   01,W
036FE:  MOVLW  30
03700:  BNZ   3712
03702:  MOVLB  2
03704:  BTFSC  x04.3
03706:  BRA    371E
03708:  BTFSS  x04.0
0370A:  BRA    371E
0370C:  BTFSC  x04.4
0370E:  MOVLW  20
03710:  MOVLB  0
03712:  ADDWF  01,F
03714:  MOVFF  01,20D
03718:  CALL   2EFA
0371C:  MOVLB  2
0371E:  MOVLW  30
03720:  ADDWF  x03,F
03722:  MOVFF  203,20D
03726:  MOVLB  0
03728:  CALL   2EFA
0372C:  RETURN 0
*
03C0A:  ADDWF  FE8,W
03C0C:  CLRF   FF7
03C0E:  RLCF   FF7,F
03C10:  ADDLW  25
03C12:  MOVWF  FF6
03C14:  MOVLW  3C
03C16:  ADDWFC FF7,F
03C18:  TBLRD*-
03C1A:  MOVF   FF5,W
03C1C:  MOVWF  FFA
03C1E:  TBLRD*
03C20:  MOVF   FF5,W
03C22:  MOVWF  FF9
03C24:  DATA FC,3A
03C26:  DATA 1A,3B
03C28:  DATA 38,3B
03C2A:  DATA 56,3B
03C2C:  DATA 74,3B
03C2E:  DATA 92,3B
03C30:  DATA B0,3B
03C32:  BTFSC  FD8.1
03C34:  BRA    3C3E
03C36:  MOVLW  02
03C38:  MOVWF  FEA
03C3A:  MOVLW  01
03C3C:  MOVWF  FE9
03C3E:  CLRF   00
03C40:  CLRF   01
03C42:  CLRF   02
03C44:  CLRF   03
03C46:  MOVLB  2
03C48:  CLRF   x01
03C4A:  CLRF   x02
03C4C:  CLRF   x03
03C4E:  CLRF   x04
03C50:  MOVF   x00,W
03C52:  MOVLB  1
03C54:  IORWF  xFF,W
03C56:  IORWF  xFE,W
03C58:  IORWF  xFD,W
03C5A:  BZ    3CDE
03C5C:  MOVLW  20
03C5E:  MOVLB  2
03C60:  MOVWF  x05
03C62:  BCF    FD8.0
03C64:  MOVLB  1
03C66:  RLCF   xF9,F
03C68:  RLCF   xFA,F
03C6A:  RLCF   xFB,F
03C6C:  RLCF   xFC,F
03C6E:  MOVLB  2
03C70:  RLCF   x01,F
03C72:  RLCF   x02,F
03C74:  RLCF   x03,F
03C76:  RLCF   x04,F
03C78:  MOVF   x00,W
03C7A:  SUBWF  x04,W
03C7C:  BNZ   3C9A
03C7E:  MOVLB  1
03C80:  MOVF   xFF,W
03C82:  MOVLB  2
03C84:  SUBWF  x03,W
03C86:  BNZ   3C9A
03C88:  MOVLB  1
03C8A:  MOVF   xFE,W
03C8C:  MOVLB  2
03C8E:  SUBWF  x02,W
03C90:  BNZ   3C9A
03C92:  MOVLB  1
03C94:  MOVF   xFD,W
03C96:  MOVLB  2
03C98:  SUBWF  x01,W
03C9A:  BNC   3CD0
03C9C:  MOVLB  1
03C9E:  MOVF   xFD,W
03CA0:  MOVLB  2
03CA2:  SUBWF  x01,F
03CA4:  MOVLB  1
03CA6:  MOVF   xFE,W
03CA8:  BTFSS  FD8.0
03CAA:  INCFSZ xFE,W
03CAC:  BRA    3CB0
03CAE:  BRA    3CB6
03CB0:  MOVLB  2
03CB2:  SUBWF  x02,F
03CB4:  MOVLB  1
03CB6:  MOVF   xFF,W
03CB8:  BTFSS  FD8.0
03CBA:  INCFSZ xFF,W
03CBC:  BRA    3CC0
03CBE:  BRA    3CC4
03CC0:  MOVLB  2
03CC2:  SUBWF  x03,F
03CC4:  MOVLB  2
03CC6:  MOVF   x00,W
03CC8:  BTFSS  FD8.0
03CCA:  INCFSZ x00,W
03CCC:  SUBWF  x04,F
03CCE:  BSF    FD8.0
03CD0:  RLCF   00,F
03CD2:  RLCF   01,F
03CD4:  RLCF   02,F
03CD6:  RLCF   03,F
03CD8:  DECFSZ x05,F
03CDA:  BRA    3C62
03CDC:  MOVLB  1
03CDE:  MOVFF  201,FEF
03CE2:  MOVFF  202,FEC
03CE6:  MOVFF  203,FEC
03CEA:  MOVFF  204,FEC
03CEE:  MOVLB  0
03CF0:  RETURN 0
03CF2:  MOVF   FE9,W
03CF4:  MOVLB  1
03CF6:  MOVWF  xF1
03CF8:  MOVLW  3B
03CFA:  MOVWF  xF8
03CFC:  MOVLW  9A
03CFE:  MOVWF  xF7
03D00:  MOVLW  CA
03D02:  MOVWF  xF6
03D04:  CLRF   xF5
03D06:  MOVLW  0A
03D08:  MOVWF  xF3
03D0A:  MOVF   xF0,W
03D0C:  BTFSS  FD8.2
03D0E:  DECF   xF1,F
03D10:  BSF    FD8.1
03D12:  MOVLW  01
03D14:  MOVWF  FEA
03D16:  MOVLW  EC
03D18:  MOVWF  FE9
03D1A:  MOVFF  1EF,1FC
03D1E:  MOVFF  1EE,1FB
03D22:  MOVFF  1ED,1FA
03D26:  MOVFF  1EC,1F9
03D2A:  MOVFF  1F8,200
03D2E:  MOVFF  1F7,1FF
03D32:  MOVFF  1F6,1FE
03D36:  MOVFF  1F5,1FD
03D3A:  MOVLB  0
03D3C:  RCALL  3C32
03D3E:  MOVF   01,W
03D40:  MOVF   00,F
03D42:  BNZ   3D6A
03D44:  MOVLB  1
03D46:  INCF   xF0,W
03D48:  SUBWF  xF3,W
03D4A:  BTFSS  FD8.2
03D4C:  BRA    3D52
03D4E:  MOVLB  0
03D50:  BRA    3D6A
03D52:  MOVF   xF1,W
03D54:  BZ    3D6E
03D56:  ANDLW  0F
03D58:  SUBWF  xF3,W
03D5A:  BZ    3D5E
03D5C:  BC    3DA0
03D5E:  BTFSC  xF1.7
03D60:  BRA    3DA0
03D62:  BTFSC  xF1.6
03D64:  BRA    3D6E
03D66:  MOVLW  20
03D68:  BRA    3D92
03D6A:  MOVLB  1
03D6C:  CLRF   xF1
03D6E:  MOVF   xF0,W
03D70:  SUBWF  xF3,W
03D72:  BNZ   3D90
03D74:  MOVFF  00,1F1
03D78:  MOVLW  2E
03D7A:  MOVLB  2
03D7C:  MOVWF  x0D
03D7E:  MOVLB  0
03D80:  CALL   2EFA
03D84:  MOVLB  1
03D86:  MOVFF  1F1,00
03D8A:  MOVLW  20
03D8C:  ANDWF  xF1,F
03D8E:  MOVLW  00
03D90:  MOVLW  30
03D92:  ADDWF  00,F
03D94:  MOVFF  00,20D
03D98:  MOVLB  0
03D9A:  CALL   2EFA
03D9E:  MOVLB  1
03DA0:  BCF    FD8.1
03DA2:  MOVFF  1F8,1FC
03DA6:  MOVFF  1F7,1FB
03DAA:  MOVFF  1F6,1FA
03DAE:  MOVFF  1F5,1F9
03DB2:  MOVLB  2
03DB4:  CLRF   x00
03DB6:  MOVLB  1
03DB8:  CLRF   xFF
03DBA:  CLRF   xFE
03DBC:  MOVLW  0A
03DBE:  MOVWF  xFD
03DC0:  MOVLB  0
03DC2:  RCALL  3C32
03DC4:  MOVFF  03,1F8
03DC8:  MOVFF  02,1F7
03DCC:  MOVFF  01,1F6
03DD0:  MOVFF  00,1F5
03DD4:  MOVLB  1
03DD6:  DECFSZ xF3,F
03DD8:  BRA    3D10
03DDA:  MOVLB  0
03DDC:  GOTO   3F50 (RETURN)
*
04B54:  ADDWF  FE8,W
04B56:  CLRF   FF7
04B58:  RLCF   FF7,F
04B5A:  ADDLW  6F
04B5C:  MOVWF  FF6
04B5E:  MOVLW  4B
04B60:  ADDWFC FF7,F
04B62:  TBLRD*-
04B64:  MOVF   FF5,W
04B66:  MOVWF  FFA
04B68:  TBLRD*
04B6A:  MOVF   FF5,W
04B6C:  MOVWF  FF9
04B6E:  DATA 98,3F
04B70:  DATA 9C,3F
04B72:  DATA 90,42
04B74:  DATA 02,43
04B76:  DATA 74,43
04B78:  DATA E4,43
04B7A:  DATA 54,44
04B7C:  DATA 52,4B
04B7E:  DATA 52,4B
04B80:  DATA 52,4B
04B82:  DATA 52,4B
04B84:  DATA 52,4B
04B86:  DATA 52,4B
04B88:  DATA 52,4B
04B8A:  DATA 52,4B
04B8C:  DATA 52,4B
04B8E:  DATA 52,4B
04B90:  DATA 52,4B
04B92:  DATA 52,4B
04B94:  DATA 52,4B
04B96:  DATA 52,4B
04B98:  DATA C4,44
04B9A:  DATA 34,45
04B9C:  DATA A4,45
04B9E:  DATA 14,46
04BA0:  DATA 52,4B
04BA2:  DATA 52,4B
04BA4:  DATA 52,4B
04BA6:  DATA 52,4B
04BA8:  DATA 52,4B
04BAA:  DATA 52,4B
04BAC:  DATA 84,46
04BAE:  DATA F4,46
04BB0:  DATA 64,47
04BB2:  DATA 52,4B
04BB4:  DATA 52,4B
04BB6:  DATA 52,4B
04BB8:  DATA 52,4B
04BBA:  DATA 52,4B
04BBC:  DATA 52,4B
04BBE:  DATA 52,4B
04BC0:  DATA 52,4B
04BC2:  DATA 52,4B
04BC4:  DATA 52,4B
04BC6:  DATA 52,4B
04BC8:  DATA 52,4B
04BCA:  DATA 52,4B
04BCC:  DATA 52,4B
04BCE:  DATA 52,4B
04BD0:  DATA 52,4B
04BD2:  DATA 52,4B
04BD4:  DATA D4,47
04BD6:  DATA 44,48
04BD8:  DATA B4,48
04BDA:  DATA 52,4B
04BDC:  DATA 52,4B
04BDE:  DATA 52,4B
04BE0:  DATA 52,4B
04BE2:  DATA 52,4B
04BE4:  DATA 52,4B
04BE6:  DATA 52,4B
04BE8:  DATA 24,49
04BEA:  DATA 94,49
04BEC:  DATA 04,4A
04BEE:  DATA 74,4A
04BF0:  DATA E4,4A
*
0502E:  ADDWF  FE8,W
05030:  CLRF   FF7
05032:  RLCF   FF7,F
05034:  ADDLW  49
05036:  MOVWF  FF6
05038:  MOVLW  50
0503A:  ADDWFC FF7,F
0503C:  TBLRD*-
0503E:  MOVF   FF5,W
05040:  MOVWF  FFA
05042:  TBLRD*
05044:  MOVF   FF5,W
05046:  MOVWF  FF9
05048:  DATA 20,4C
0504A:  DATA 4A,4C
0504C:  DATA 7A,4C
0504E:  DATA A6,4C
05050:  DATA D8,4C
05052:  DATA 0A,4D
05054:  DATA 3C,4D
05056:  DATA 2A,50
05058:  DATA 2A,50
0505A:  DATA 2A,50
0505C:  DATA 2A,50
0505E:  DATA 2A,50
05060:  DATA 2A,50
05062:  DATA 2A,50
05064:  DATA 2A,50
05066:  DATA 2A,50
05068:  DATA 2A,50
0506A:  DATA 2A,50
0506C:  DATA 2A,50
0506E:  DATA 2A,50
05070:  DATA 2A,50
05072:  DATA 68,4D
05074:  DATA 94,4D
05076:  DATA C6,4D
05078:  DATA F8,4D
0507A:  DATA 2A,50
0507C:  DATA 2A,50
0507E:  DATA 2A,50
05080:  DATA 2A,50
05082:  DATA 2A,50
05084:  DATA 2A,50
05086:  DATA 24,4E
05088:  DATA 50,4E
0508A:  DATA 82,4E
0508C:  DATA 2A,50
0508E:  DATA 2A,50
05090:  DATA 2A,50
05092:  DATA 2A,50
05094:  DATA 2A,50
05096:  DATA 2A,50
05098:  DATA 2A,50
0509A:  DATA 2A,50
0509C:  DATA 2A,50
0509E:  DATA 2A,50
050A0:  DATA 2A,50
050A2:  DATA 2A,50
050A4:  DATA 2A,50
050A6:  DATA 2A,50
050A8:  DATA 2A,50
050AA:  DATA 2A,50
050AC:  DATA 2A,50
050AE:  DATA AE,4E
050B0:  DATA DA,4E
050B2:  DATA 0C,4F
050B4:  DATA 2A,50
050B6:  DATA 2A,50
050B8:  DATA 2A,50
050BA:  DATA 2A,50
050BC:  DATA 2A,50
050BE:  DATA 2A,50
050C0:  DATA 2A,50
050C2:  DATA 38,4F
050C4:  DATA 64,4F
050C6:  DATA 96,4F
050C8:  DATA C8,4F
050CA:  DATA FA,4F
*
0739C:  ADDWF  FE8,W
0739E:  CLRF   FF7
073A0:  RLCF   FF7,F
073A2:  ADDLW  B7
073A4:  MOVWF  FF6
073A6:  MOVLW  73
073A8:  ADDWFC FF7,F
073AA:  TBLRD*-
073AC:  MOVF   FF5,W
073AE:  MOVWF  FFA
073B0:  TBLRD*
073B2:  MOVF   FF5,W
073B4:  MOVWF  FF9
073B6:  DATA 84,5D
073B8:  DATA 60,5E
073BA:  DATA 50,5F
073BC:  DATA 40,60
073BE:  DATA 30,61
073C0:  DATA 20,62
073C2:  DATA 10,63
073C4:  DATA 00,64
073C6:  DATA 4A,6C
073C8:  DATA 4A,6C
073CA:  DATA EE,64
073CC:  DATA C8,65
073CE:  DATA B6,66
073D0:  DATA A4,67
073D2:  DATA 92,68
073D4:  DATA 80,69
073D6:  DATA 6E,6A
073D8:  DATA 5C,6B
*
08D0A:  ADDWF  FE8,W
08D0C:  CLRF   FF7
08D0E:  RLCF   FF7,F
08D10:  ADDLW  25
08D12:  MOVWF  FF6
08D14:  MOVLW  8D
08D16:  ADDWFC FF7,F
08D18:  TBLRD*-
08D1A:  MOVF   FF5,W
08D1C:  MOVWF  FFA
08D1E:  TBLRD*
08D20:  MOVF   FF5,W
08D22:  MOVWF  FF9
08D24:  DATA D2,88
08D26:  DATA F0,88
08D28:  DATA 0E,89
08D2A:  DATA 2C,89
08D2C:  DATA 4A,89
08D2E:  DATA 68,89
08D30:  DATA 84,89
*
09E34:  ADDWF  FE8,W
09E36:  CLRF   FF7
09E38:  RLCF   FF7,F
09E3A:  ADDLW  4F
09E3C:  MOVWF  FF6
09E3E:  MOVLW  9E
09E40:  ADDWFC FF7,F
09E42:  TBLRD*-
09E44:  MOVF   FF5,W
09E46:  MOVWF  FFA
09E48:  TBLRD*
09E4A:  MOVF   FF5,W
09E4C:  MOVWF  FF9
09E4E:  DATA 5A,9A
09E50:  DATA 62,9A
09E52:  DATA 6A,9A
09E54:  DATA 72,9A
09E56:  DATA 7A,9A
09E58:  DATA 82,9A
09E5A:  ADDWF  FE8,W
09E5C:  CLRF   FF7
09E5E:  RLCF   FF7,F
09E60:  ADDLW  75
09E62:  MOVWF  FF6
09E64:  MOVLW  9E
09E66:  ADDWFC FF7,F
09E68:  TBLRD*-
09E6A:  MOVF   FF5,W
09E6C:  MOVWF  FFA
09E6E:  TBLRD*
09E70:  MOVF   FF5,W
09E72:  MOVWF  FF9
09E74:  DATA AA,9A
09E76:  DATA B2,9A
09E78:  DATA BA,9A
09E7A:  DATA C2,9A
09E7C:  DATA CA,9A
09E7E:  DATA D2,9A
09E80:  ADDWF  FE8,W
09E82:  CLRF   FF7
09E84:  RLCF   FF7,F
09E86:  ADDLW  9B
09E88:  MOVWF  FF6
09E8A:  MOVLW  9E
09E8C:  ADDWFC FF7,F
09E8E:  TBLRD*-
09E90:  MOVF   FF5,W
09E92:  MOVWF  FFA
09E94:  TBLRD*
09E96:  MOVF   FF5,W
09E98:  MOVWF  FF9
09E9A:  DATA FA,9A
09E9C:  DATA 02,9B
09E9E:  DATA 0A,9B
09EA0:  DATA 12,9B
09EA2:  DATA 1A,9B
09EA4:  DATA 22,9B
09EA6:  ADDWF  FE8,W
09EA8:  CLRF   FF7
09EAA:  RLCF   FF7,F
09EAC:  ADDLW  C1
09EAE:  MOVWF  FF6
09EB0:  MOVLW  9E
09EB2:  ADDWFC FF7,F
09EB4:  TBLRD*-
09EB6:  MOVF   FF5,W
09EB8:  MOVWF  FFA
09EBA:  TBLRD*
09EBC:  MOVF   FF5,W
09EBE:  MOVWF  FF9
09EC0:  DATA 4A,9B
09EC2:  DATA 52,9B
09EC4:  DATA 5A,9B
09EC6:  DATA 62,9B
09EC8:  DATA 6A,9B
09ECA:  DATA 72,9B
09ECC:  ADDWF  FE8,W
09ECE:  CLRF   FF7
09ED0:  RLCF   FF7,F
09ED2:  ADDLW  E7
09ED4:  MOVWF  FF6
09ED6:  MOVLW  9E
09ED8:  ADDWFC FF7,F
09EDA:  TBLRD*-
09EDC:  MOVF   FF5,W
09EDE:  MOVWF  FFA
09EE0:  TBLRD*
09EE2:  MOVF   FF5,W
09EE4:  MOVWF  FF9
09EE6:  DATA AE,9B
09EE8:  DATA EE,9B
09EEA:  DATA 3A,9C
09EEC:  DATA 82,9C
09EEE:  DATA CE,9C
09EF0:  DATA 0E,9D
*
0A646:  ADDWF  FE8,W
0A648:  CLRF   FF7
0A64A:  RLCF   FF7,F
0A64C:  ADDLW  61
0A64E:  MOVWF  FF6
0A650:  MOVLW  A6
0A652:  ADDWFC FF7,F
0A654:  TBLRD*-
0A656:  MOVF   FF5,W
0A658:  MOVWF  FFA
0A65A:  TBLRD*
0A65C:  MOVF   FF5,W
0A65E:  MOVWF  FF9
0A660:  DATA 5E,9F
0A662:  DATA 6E,9F
0A664:  DATA 7E,9F
0A666:  DATA 8E,9F
0A668:  DATA 9E,9F
0A66A:  DATA AE,9F
0A66C:  DATA 66,9F
0A66E:  DATA 76,9F
0A670:  DATA 86,9F
0A672:  DATA 96,9F
0A674:  DATA A6,9F
0A676:  DATA B6,9F
0A678:  ADDWF  FE8,W
0A67A:  CLRF   FF7
0A67C:  RLCF   FF7,F
0A67E:  ADDLW  93
0A680:  MOVWF  FF6
0A682:  MOVLW  A6
0A684:  ADDWFC FF7,F
0A686:  TBLRD*-
0A688:  MOVF   FF5,W
0A68A:  MOVWF  FFA
0A68C:  TBLRD*
0A68E:  MOVF   FF5,W
0A690:  MOVWF  FF9
0A692:  DATA DE,9F
0A694:  DATA EE,9F
0A696:  DATA FE,9F
0A698:  DATA 0E,A0
0A69A:  DATA 1E,A0
0A69C:  DATA 2E,A0
0A69E:  DATA E6,9F
0A6A0:  DATA F6,9F
0A6A2:  DATA 06,A0
0A6A4:  DATA 16,A0
0A6A6:  DATA 26,A0
0A6A8:  DATA 36,A0
0A6AA:  ADDWF  FE8,W
0A6AC:  CLRF   FF7
0A6AE:  RLCF   FF7,F
0A6B0:  ADDLW  C5
0A6B2:  MOVWF  FF6
0A6B4:  MOVLW  A6
0A6B6:  ADDWFC FF7,F
0A6B8:  TBLRD*-
0A6BA:  MOVF   FF5,W
0A6BC:  MOVWF  FFA
0A6BE:  TBLRD*
0A6C0:  MOVF   FF5,W
0A6C2:  MOVWF  FF9
0A6C4:  DATA 5E,A0
0A6C6:  DATA 6E,A0
0A6C8:  DATA 7E,A0
0A6CA:  DATA 8E,A0
0A6CC:  DATA 9E,A0
0A6CE:  DATA AE,A0
0A6D0:  DATA 66,A0
0A6D2:  DATA 76,A0
0A6D4:  DATA 86,A0
0A6D6:  DATA 96,A0
0A6D8:  DATA A6,A0
0A6DA:  DATA B6,A0
0A6DC:  ADDWF  FE8,W
0A6DE:  CLRF   FF7
0A6E0:  RLCF   FF7,F
0A6E2:  ADDLW  F7
0A6E4:  MOVWF  FF6
0A6E6:  MOVLW  A6
0A6E8:  ADDWFC FF7,F
0A6EA:  TBLRD*-
0A6EC:  MOVF   FF5,W
0A6EE:  MOVWF  FFA
0A6F0:  TBLRD*
0A6F2:  MOVF   FF5,W
0A6F4:  MOVWF  FF9
0A6F6:  DATA DE,A0
0A6F8:  DATA EE,A0
0A6FA:  DATA FE,A0
0A6FC:  DATA 0E,A1
0A6FE:  DATA 1E,A1
0A700:  DATA 2E,A1
0A702:  DATA E6,A0
0A704:  DATA F6,A0
0A706:  DATA 06,A1
0A708:  DATA 16,A1
0A70A:  DATA 26,A1
0A70C:  DATA 36,A1
0A70E:  ADDWF  FE8,W
0A710:  CLRF   FF7
0A712:  RLCF   FF7,F
0A714:  ADDLW  29
0A716:  MOVWF  FF6
0A718:  MOVLW  A7
0A71A:  ADDWFC FF7,F
0A71C:  TBLRD*-
0A71E:  MOVF   FF5,W
0A720:  MOVWF  FFA
0A722:  TBLRD*
0A724:  MOVF   FF5,W
0A726:  MOVWF  FF9
0A728:  DATA B0,A1
0A72A:  DATA E4,A1
0A72C:  DATA 24,A2
0A72E:  DATA 70,A2
0A730:  DATA BC,A2
0A732:  DATA FC,A2
0A734:  DATA 30,A3
0A736:  DATA 80,A3
0A738:  DATA C0,A3
0A73A:  DATA 0C,A4
0A73C:  DATA 58,A4
0A73E:  DATA 98,A4
*
0B03C:  ADDWF  FE8,W
0B03E:  CLRF   FF7
0B040:  RLCF   FF7,F
0B042:  ADDLW  57
0B044:  MOVWF  FF6
0B046:  MOVLW  B0
0B048:  ADDWFC FF7,F
0B04A:  TBLRD*-
0B04C:  MOVF   FF5,W
0B04E:  MOVWF  FFA
0B050:  TBLRD*
0B052:  MOVF   FF5,W
0B054:  MOVWF  FF9
0B056:  DATA B4,AA
0B058:  DATA D2,AA
0B05A:  DATA F0,AA
0B05C:  DATA 0E,AB
0B05E:  DATA 2C,AB
0B060:  DATA 4A,AB
0B062:  DATA 68,AB
0B064:  ADDWF  FE8,W
0B066:  CLRF   FF7
0B068:  RLCF   FF7,F
0B06A:  ADDLW  7F
0B06C:  MOVWF  FF6
0B06E:  MOVLW  B0
0B070:  ADDWFC FF7,F
0B072:  TBLRD*-
0B074:  MOVF   FF5,W
0B076:  MOVWF  FFA
0B078:  TBLRD*
0B07A:  MOVF   FF5,W
0B07C:  MOVWF  FF9
0B07E:  DATA 9A,AB
0B080:  DATA B8,AB
0B082:  DATA D6,AB
0B084:  DATA F4,AB
0B086:  DATA 12,AC
0B088:  DATA 30,AC
0B08A:  DATA 4E,AC
0B08C:  DATA 6C,AC
0B08E:  DATA 8A,AC
0B090:  DATA A8,AC
0B092:  DATA C6,AC
0B094:  DATA E4,AC
....................  
.................... #list 
....................  
....................  
.................... //#byte TMR1H = 0xFCF // Le pongo nombre al registro alto de timer 1 
.................... //#byte TMR1L = 0xFCE // Le pongo nombre al registro bajo de timer 1 
.................... #device ADC=10 
.................... #fuses XT, MCLR, WDT1024 // Opciones de configuracin 
.................... //#fuses XT, NOIESO, NOFCMEN, NOPUT, NOPROTECT, NOPBADEN, NOLVP, NOBROWNOUT, MCLR, WDT1024, NOLPT1OSC // Opciones de configuracin 
....................  
.................... #use delay(clock=4000000)  // Reloj de 4MHz 
*
01386:  MOVLW  02
01388:  MOVWF  FEA
0138A:  MOVLW  20
0138C:  MOVWF  FE9
0138E:  MOVF   FEF,W
01390:  BZ    13AE
01392:  MOVLW  01
01394:  MOVWF  01
01396:  CLRF   00
01398:  DECFSZ 00,F
0139A:  BRA    1398
0139C:  DECFSZ 01,F
0139E:  BRA    1396
013A0:  MOVLW  4A
013A2:  MOVWF  00
013A4:  DECFSZ 00,F
013A6:  BRA    13A4
013A8:  BRA    13AA
013AA:  DECFSZ FEF,F
013AC:  BRA    1392
013AE:  RETURN 0
.................... #use rs232(baud=9600, xmit=PIN_C6, rcv=PIN_C7, enable=PIN_D4, ERRORS) // Comunicacion serial 
*
011D8:  BTFSS  F9E.5
011DA:  BRA    11D8
011DC:  MOVFF  FAB,1A
011E0:  MOVFF  FAE,01
011E4:  BTFSS  1A.1
011E6:  BRA    11EC
011E8:  BCF    FAB.4
011EA:  BSF    FAB.4
011EC:  GOTO   128A (RETURN)
*
02F82:  BCF    F95.4
02F84:  BSF    F8C.4
02F86:  BTFSS  F9E.4
02F88:  BRA    2F86
02F8A:  BCF    F95.4
02F8C:  BSF    F8C.4
02F8E:  MOVLB  1
02F90:  MOVFF  1FB,FAD
02F94:  NOP   
02F96:  BTFSS  FAC.1
02F98:  BRA    2F96
02F9A:  BCF    F95.4
02F9C:  BCF    F8C.4
02F9E:  MOVLB  0
02FA0:  RETURN 0
....................  
.................... //#include "DHT11.h" 
.................... #include "FLEX_LCD_164.c" 
.................... // flex_lcd.c  
....................  
.................... // These pins are for the Microchip PicDem2-Plus board,  
.................... // which is what I used to test the driver.  Change these  
.................... // pins to fit your own board.  
....................  
.................... #define LCD_DB4   PIN_D0 
.................... #define LCD_DB5   PIN_C2 
.................... #define LCD_DB6   PIN_C1 
.................... #define LCD_DB7   PIN_C0 
....................  
.................... #define LCD_RS    PIN_D3   //PIN_C4 
.................... #define LCD_RW    PIN_D2 
.................... #define LCD_E     PIN_D1   //PIN_C6 
....................  
....................  
....................  
....................  
.................... /* 
.................... #define LCD_DB4   PIN_A5 
.................... #define LCD_DB5   PIN_C0 
.................... #define LCD_DB6   PIN_C1 
.................... #define LCD_DB7   PIN_C2 
....................  
.................... #define LCD_E     PIN_A4 
.................... #define LCD_RS    PIN_A2 
.................... #define LCD_RW    PIN_A3 
.................... */ 
.................... /* 
....................  
.................... #define LCD_DB4   PIN_G2 
.................... #define LCD_DB5   PIN_J0 
.................... #define LCD_DB6   PIN_G3 
.................... #define LCD_DB7   PIN_J1 
....................  
.................... #define LCD_E     PIN_C4 
.................... #define LCD_RS    PIN_C3 
.................... #define LCD_RW    PIN_C2 
....................  
.................... */ 
....................  
.................... // If you only want a 6-pin interface to your LCD, then  
.................... // connect the R/W pin on the LCD to ground, and comment  
.................... // out the following line.  
....................  
.................... #define USE_LCD_RW   1       
....................  
.................... //========================================  
....................  
.................... #define lcd_type 2        // 0=5x7, 1=5x10, 2=2 lines  
.................... #define lcd_line_one 0x00 // LCD RAM address for the 2nd line  
.................... #define lcd_line_two 0x40 // LCD RAM address for the 2nd line  
.................... #define lcd_line_three 0x14 // LCD RAM address for the 2nd line  
.................... #define lcd_line_four 0x54 // LCD RAM address for the 2nd line  
....................  
....................  
.................... int8 const LCD_INIT_STRING[4] =  
.................... {  
....................  0x20 | (lcd_type << 2), // Func set: 4-bit, 2 lines, 5x8 dots  
....................  0xc,                    // Display on  
....................  1,                      // Clear display  
....................  6                       // Increment cursor  
....................  };  
....................                                
....................  
.................... //-------------------------------------  
.................... void lcd_send_nibble(int8 nibble)  
.................... {  
.................... // Note:  !! converts an integer expression  
.................... // to a boolean (1 or 0).  
....................  output_bit(LCD_DB4, !!(nibble & 1));  
*
02D14:  MOVLB  2
02D16:  BTFSC  x15.0
02D18:  BRA    2D1E
02D1A:  BCF    F8C.0
02D1C:  BRA    2D20
02D1E:  BSF    F8C.0
02D20:  BCF    F95.0
....................  output_bit(LCD_DB5, !!(nibble & 2));   
02D22:  BTFSC  x15.1
02D24:  BRA    2D2A
02D26:  BCF    F8B.2
02D28:  BRA    2D2C
02D2A:  BSF    F8B.2
02D2C:  BCF    F94.2
....................  output_bit(LCD_DB6, !!(nibble & 4));     
02D2E:  BTFSC  x15.2
02D30:  BRA    2D36
02D32:  BCF    F8B.1
02D34:  BRA    2D38
02D36:  BSF    F8B.1
02D38:  BCF    F94.1
....................  output_bit(LCD_DB7, !!(nibble & 8));     
02D3A:  BTFSC  x15.3
02D3C:  BRA    2D42
02D3E:  BCF    F8B.0
02D40:  BRA    2D44
02D42:  BSF    F8B.0
02D44:  BCF    F94.0
....................  
....................  delay_cycles(1);  
02D46:  NOP   
....................  output_high(LCD_E);  
02D48:  BCF    F95.1
02D4A:  BSF    F8C.1
....................  delay_us(2);  
02D4C:  BRA    2D4E
....................  output_low(LCD_E);  
02D4E:  BCF    F95.1
02D50:  BCF    F8C.1
02D52:  MOVLB  0
02D54:  RETURN 0
.................... }  
....................  
.................... //-----------------------------------  
.................... // This sub-routine is only called by lcd_read_byte().  
.................... // It's not a stand-alone routine.  For example, the  
.................... // R/W signal is set high by lcd_read_byte() before  
.................... // this routine is called.       
....................  
.................... #ifdef USE_LCD_RW  
.................... int8 lcd_read_nibble(void)  
.................... {  
.................... int8 retval;  
.................... // Create bit variables so that we can easily set  
.................... // individual bits in the retval variable.  
.................... #bit retval_0 = retval.0  
.................... #bit retval_1 = retval.1  
.................... #bit retval_2 = retval.2  
.................... #bit retval_3 = retval.3  
....................  
.................... retval = 0;  
02D56:  MOVLB  2
02D58:  CLRF   x16
....................      
.................... output_high(LCD_E);  
02D5A:  BCF    F95.1
02D5C:  BSF    F8C.1
.................... delay_cycles(1);  
02D5E:  NOP   
....................  
.................... retval_0 = input(LCD_DB4);  
02D60:  BSF    F95.0
02D62:  BCF    x16.0
02D64:  BTFSC  F83.0
02D66:  BSF    x16.0
.................... retval_1 = input(LCD_DB5);  
02D68:  BSF    F94.2
02D6A:  BCF    x16.1
02D6C:  BTFSC  F82.2
02D6E:  BSF    x16.1
.................... retval_2 = input(LCD_DB6);  
02D70:  BSF    F94.1
02D72:  BCF    x16.2
02D74:  BTFSC  F82.1
02D76:  BSF    x16.2
.................... retval_3 = input(LCD_DB7);  
02D78:  BSF    F94.0
02D7A:  BCF    x16.3
02D7C:  BTFSC  F82.0
02D7E:  BSF    x16.3
....................    
.................... output_low(LCD_E);  
02D80:  BCF    F95.1
02D82:  BCF    F8C.1
....................      
.................... return(retval);     
02D84:  MOVFF  216,01
02D88:  MOVLB  0
02D8A:  RETURN 0
.................... }     
.................... #endif  
....................  
.................... //---------------------------------------  
.................... // Read a byte from the LCD and return it.  
....................  
.................... #ifdef USE_LCD_RW  
.................... int8 lcd_read_byte(void)  
.................... {  
.................... int8 low;  
.................... int8 high;  
....................  
.................... output_high(LCD_RW);  
02D8C:  BCF    F95.2
02D8E:  BSF    F8C.2
.................... delay_cycles(1);  
02D90:  NOP   
....................  
.................... high = lcd_read_nibble();  
02D92:  RCALL  2D56
02D94:  MOVFF  01,215
....................  
.................... low = lcd_read_nibble();  
02D98:  RCALL  2D56
02D9A:  MOVFF  01,214
....................  
.................... return( (high<<4) | low);  
02D9E:  MOVLB  2
02DA0:  SWAPF  x15,W
02DA2:  MOVWF  00
02DA4:  MOVLW  F0
02DA6:  ANDWF  00,F
02DA8:  MOVF   00,W
02DAA:  IORWF  x14,W
02DAC:  MOVWF  01
02DAE:  MOVLB  0
02DB0:  GOTO   2DBA (RETURN)
.................... }  
.................... #endif  
....................  
.................... //----------------------------------------  
.................... // Send a byte to the LCD.  
.................... void lcd_send_byte(int8 address, int8 n)  
.................... {  
.................... output_low(LCD_RS);  
02DB4:  BCF    F95.3
02DB6:  BCF    F8C.3
....................  
.................... #ifdef USE_LCD_RW  
.................... while(bit_test(lcd_read_byte(),7)) ;  
02DB8:  BRA    2D8C
02DBA:  MOVFF  01,214
02DBE:  MOVLB  2
02DC0:  BTFSS  01.7
02DC2:  BRA    2DC8
02DC4:  MOVLB  0
02DC6:  BRA    2DB8
.................... #else  
.................... delay_us(60);   
.................... #endif  
....................  
.................... if(address)  
02DC8:  MOVF   x12,F
02DCA:  BZ    2DD2
....................    output_high(LCD_RS);  
02DCC:  BCF    F95.3
02DCE:  BSF    F8C.3
02DD0:  BRA    2DD6
.................... else  
....................    output_low(LCD_RS);  
02DD2:  BCF    F95.3
02DD4:  BCF    F8C.3
....................        
....................  delay_cycles(1);  
02DD6:  NOP   
....................  
.................... #ifdef USE_LCD_RW  
.................... output_low(LCD_RW);  
02DD8:  BCF    F95.2
02DDA:  BCF    F8C.2
.................... delay_cycles(1);  
02DDC:  NOP   
.................... #endif  
....................  
.................... output_low(LCD_E);  
02DDE:  BCF    F95.1
02DE0:  BCF    F8C.1
....................  
.................... lcd_send_nibble(n >> 4);  
02DE2:  SWAPF  x13,W
02DE4:  MOVWF  x14
02DE6:  MOVLW  0F
02DE8:  ANDWF  x14,F
02DEA:  MOVFF  214,215
02DEE:  MOVLB  0
02DF0:  RCALL  2D14
.................... lcd_send_nibble(n & 0xf);  
02DF2:  MOVLB  2
02DF4:  MOVF   x13,W
02DF6:  ANDLW  0F
02DF8:  MOVWF  x14
02DFA:  MOVWF  x15
02DFC:  MOVLB  0
02DFE:  RCALL  2D14
02E00:  RETURN 0
.................... }  
....................  
.................... //----------------------------  
.................... void lcd_init(void)  
.................... {  
.................... int8 i;  
....................  
.................... output_low(LCD_RS);  
02E02:  BCF    F95.3
02E04:  BCF    F8C.3
....................  
.................... #ifdef USE_LCD_RW  
.................... output_low(LCD_RW);  
02E06:  BCF    F95.2
02E08:  BCF    F8C.2
.................... #endif  
....................  
.................... output_low(LCD_E);  
02E0A:  BCF    F95.1
02E0C:  BCF    F8C.1
02E0E:  CLRF   19
02E10:  BTFSC  FF2.7
02E12:  BSF    19.7
02E14:  BCF    FF2.7
....................  
.................... delay_ms(15);  
02E16:  MOVLW  0F
02E18:  MOVLB  2
02E1A:  MOVWF  x20
02E1C:  MOVLB  0
02E1E:  CALL   1386
02E22:  BTFSC  19.7
02E24:  BSF    FF2.7
....................  
.................... for(i=0 ;i < 3; i++)  
02E26:  MOVLB  1
02E28:  CLRF   xEC
02E2A:  MOVF   xEC,W
02E2C:  SUBLW  02
02E2E:  BNC   2E58
....................    {  
....................     lcd_send_nibble(0x03);  
02E30:  MOVLW  03
02E32:  MOVLB  2
02E34:  MOVWF  x15
02E36:  MOVLB  0
02E38:  RCALL  2D14
02E3A:  CLRF   19
02E3C:  BTFSC  FF2.7
02E3E:  BSF    19.7
02E40:  BCF    FF2.7
....................     delay_ms(5);  
02E42:  MOVLW  05
02E44:  MOVLB  2
02E46:  MOVWF  x20
02E48:  MOVLB  0
02E4A:  CALL   1386
02E4E:  BTFSC  19.7
02E50:  BSF    FF2.7
02E52:  MOVLB  1
02E54:  INCF   xEC,F
02E56:  BRA    2E2A
....................    }  
....................  
.................... lcd_send_nibble(0x02);  
02E58:  MOVLW  02
02E5A:  MOVLB  2
02E5C:  MOVWF  x15
02E5E:  MOVLB  0
02E60:  RCALL  2D14
....................  
.................... for(i=0; i < sizeof(LCD_INIT_STRING); i++)  
02E62:  MOVLB  1
02E64:  CLRF   xEC
02E66:  MOVF   xEC,W
02E68:  SUBLW  03
02E6A:  BNC   2E8A
....................    {  
....................     lcd_send_byte(0, LCD_INIT_STRING[i]);  
02E6C:  CLRF   03
02E6E:  MOVF   xEC,W
02E70:  MOVLB  0
02E72:  CALL   00BA
02E76:  MOVLB  1
02E78:  MOVWF  xED
02E7A:  MOVLB  2
02E7C:  CLRF   x12
02E7E:  MOVWF  x13
02E80:  MOVLB  0
02E82:  RCALL  2DB4
....................      
....................     // If the R/W signal is not used, then  
....................     // the busy bit can't be polled.  One of  
....................     // the init commands takes longer than  
....................     // the hard-coded delay of 60 us, so in  
....................     // that case, lets just do a 5 ms delay  
....................     // after all four of them.  
....................     #ifndef USE_LCD_RW  
02E84:  MOVLB  1
02E86:  INCF   xEC,F
02E88:  BRA    2E66
....................     delay_ms(5);  
....................     #endif  
....................    }  
02E8A:  MOVLB  0
02E8C:  GOTO   30B2 (RETURN)
....................  
.................... }  
....................  
.................... //----------------------------  
....................  
.................... void lcd_gotoxy(int8 x, int8 y)  
.................... {  
.................... int8 address;  
....................  
.................... switch(y){ 
02E90:  MOVLW  01
02E92:  MOVLB  2
02E94:  SUBWF  x0F,W
02E96:  ADDLW  FC
02E98:  BC    2EC2
02E9A:  ADDLW  04
02E9C:  MOVLB  0
02E9E:  GOTO   2ED8
....................    case 1: 
....................       address = lcd_line_one;  
02EA2:  MOVLB  2
02EA4:  CLRF   x10
....................    break; 
02EA6:  BRA    2EC2
....................        
....................    case 2: 
....................       address = lcd_line_two;  
02EA8:  MOVLW  40
02EAA:  MOVLB  2
02EAC:  MOVWF  x10
....................    break; 
02EAE:  BRA    2EC2
....................  
....................    case 3: 
....................       address = lcd_line_three;  
02EB0:  MOVLW  14
02EB2:  MOVLB  2
02EB4:  MOVWF  x10
....................    break; 
02EB6:  BRA    2EC2
....................  
....................    case 4: 
....................       address = lcd_line_four;  
02EB8:  MOVLW  54
02EBA:  MOVLB  2
02EBC:  MOVWF  x10
....................    break; 
02EBE:  BRA    2EC2
02EC0:  MOVLB  2
....................  
....................  
.................... } 
....................  
.................... address += x-1;  
02EC2:  MOVLW  01
02EC4:  SUBWF  x0E,W
02EC6:  ADDWF  x10,F
.................... lcd_send_byte(0, 0x80 | address);  
02EC8:  MOVF   x10,W
02ECA:  IORLW  80
02ECC:  MOVWF  x11
02ECE:  CLRF   x12
02ED0:  MOVWF  x13
02ED2:  MOVLB  0
02ED4:  RCALL  2DB4
02ED6:  RETURN 0
.................... }  
....................  
.................... //-----------------------------  
.................... void lcd_putc(char c)  
.................... {  
....................  switch(c)  
*
02EFA:  MOVLB  2
02EFC:  MOVF   x0D,W
02EFE:  XORLW  0C
02F00:  MOVLB  0
02F02:  BZ    2F0E
02F04:  XORLW  06
02F06:  BZ    2F34
02F08:  XORLW  02
02F0A:  BZ    2F44
02F0C:  BRA    2F52
....................    {  
....................     case '\f':  
....................       lcd_send_byte(0,1);  
02F0E:  MOVLB  2
02F10:  CLRF   x12
02F12:  MOVLW  01
02F14:  MOVWF  x13
02F16:  MOVLB  0
02F18:  RCALL  2DB4
02F1A:  CLRF   19
02F1C:  BTFSC  FF2.7
02F1E:  BSF    19.7
02F20:  BCF    FF2.7
....................       delay_ms(2);  
02F22:  MOVLW  02
02F24:  MOVLB  2
02F26:  MOVWF  x20
02F28:  MOVLB  0
02F2A:  CALL   1386
02F2E:  BTFSC  19.7
02F30:  BSF    FF2.7
....................       break;  
02F32:  BRA    2F60
....................      
....................     case '\n':  
....................        lcd_gotoxy(1,2);  
02F34:  MOVLW  01
02F36:  MOVLB  2
02F38:  MOVWF  x0E
02F3A:  MOVLW  02
02F3C:  MOVWF  x0F
02F3E:  MOVLB  0
02F40:  RCALL  2E90
....................        break;  
02F42:  BRA    2F60
....................      
....................     case '\b':  
....................        lcd_send_byte(0,0x10);  
02F44:  MOVLB  2
02F46:  CLRF   x12
02F48:  MOVLW  10
02F4A:  MOVWF  x13
02F4C:  MOVLB  0
02F4E:  RCALL  2DB4
....................        break;  
02F50:  BRA    2F60
....................      
....................     default:  
....................        lcd_send_byte(1,c);  
02F52:  MOVLW  01
02F54:  MOVLB  2
02F56:  MOVWF  x12
02F58:  MOVFF  20D,213
02F5C:  MOVLB  0
02F5E:  RCALL  2DB4
....................        break;  
....................    }  
02F60:  RETURN 0
.................... }  
....................  
.................... //------------------------------  
.................... #ifdef USE_LCD_RW  
.................... char lcd_getc(int8 x, int8 y)  
.................... {  
.................... char value;  
....................  
.................... lcd_gotoxy(x,y);  
....................  
.................... // Wait until busy flag is low.  
.................... while(bit_test(lcd_read_byte(),7));   
....................  
.................... output_high(LCD_RS);  
.................... value = lcd_read_byte();  
.................... output_low(lcd_RS);  
....................  
.................... return(value);  
.................... }  
.................... #endif 
....................  
.................... #include "DS1307.c" 
....................  
.................... #define RTC_SDA  PIN_C4 
.................... #define RTC_SCL  PIN_C3 
....................  
.................... #use i2c(master, fast, sda=RTC_SDA, scl=RTC_SCL) 
*
012BE:  MOVLW  08
012C0:  MOVWF  01
012C2:  NOP   
012C4:  BCF    F8B.3
012C6:  BCF    F94.3
012C8:  NOP   
012CA:  MOVLB  2
012CC:  RLCF   x1B,F
012CE:  BCF    F8B.4
012D0:  BTFSC  FD8.0
012D2:  BSF    F94.4
012D4:  BTFSS  FD8.0
012D6:  BCF    F94.4
012D8:  BSF    F94.3
012DA:  BTFSS  F82.3
012DC:  BRA    12DA
012DE:  DECFSZ 01,F
012E0:  BRA    12E4
012E2:  BRA    12E8
012E4:  MOVLB  0
012E6:  BRA    12C2
012E8:  NOP   
012EA:  BCF    F8B.3
012EC:  BCF    F94.3
012EE:  NOP   
012F0:  BSF    F94.4
012F2:  NOP   
012F4:  NOP   
012F6:  BSF    F94.3
012F8:  BTFSS  F82.3
012FA:  BRA    12F8
012FC:  CLRF   01
012FE:  NOP   
01300:  BTFSC  F82.4
01302:  BSF    01.0
01304:  BCF    F8B.3
01306:  BCF    F94.3
01308:  BCF    F8B.4
0130A:  BCF    F94.4
0130C:  MOVLB  0
0130E:  RETURN 0
01310:  MOVLW  08
01312:  MOVLB  2
01314:  MOVWF  x1C
01316:  MOVFF  00,21D
0131A:  BSF    F94.4
0131C:  NOP   
0131E:  BSF    F94.3
01320:  BTFSS  F82.3
01322:  BRA    1320
01324:  BTFSC  F82.4
01326:  BSF    FD8.0
01328:  BTFSS  F82.4
0132A:  BCF    FD8.0
0132C:  RLCF   01,F
0132E:  NOP   
01330:  BCF    F94.3
01332:  BCF    F8B.3
01334:  DECFSZ x1C,F
01336:  BRA    131A
01338:  BSF    F94.4
0133A:  NOP   
0133C:  BCF    F8B.4
0133E:  MOVF   x1D,W
01340:  BTFSS  FD8.2
01342:  BCF    F94.4
01344:  NOP   
01346:  BSF    F94.3
01348:  BTFSS  F82.3
0134A:  BRA    1348
0134C:  NOP   
0134E:  BCF    F8B.3
01350:  BCF    F94.3
01352:  NOP   
01354:  BCF    F8B.4
01356:  BCF    F94.4
01358:  MOVLB  0
0135A:  RETURN 0
....................  
.................... //BYTE bin2bcd(BYTE binary_value); 
.................... //BYTE bcd2bin(BYTE bcd_value); 
....................  
.................... int8 bin2bcd(int8 binary_value) 
.................... { 
....................   int8 temp; 
....................   char retval; 
....................  
....................   temp = binary_value; 
*
02B5C:  MOVFF  208,209
....................   retval = 0; 
02B60:  MOVLB  2
02B62:  CLRF   x0A
....................  
....................   while(1) 
....................   { 
....................     // Get the tens digit by doing multiple subtraction 
....................     // of 10 from the binary value. 
....................     if(temp >= 10) 
02B64:  MOVF   x09,W
02B66:  SUBLW  09
02B68:  BC    2B74
....................     { 
....................       temp -= 10; 
02B6A:  MOVLW  0A
02B6C:  SUBWF  x09,F
....................       retval += 0x10; 
02B6E:  MOVLW  10
02B70:  ADDWF  x0A,F
....................     } 
02B72:  BRA    2B7A
....................     else // Get the ones digit by adding the remainder. 
....................     { 
....................       retval += temp; 
02B74:  MOVF   x09,W
02B76:  ADDWF  x0A,F
....................       break; 
02B78:  BRA    2B7C
....................     } 
02B7A:  BRA    2B64
....................   } 
....................  
....................   return(retval); 
02B7C:  MOVFF  20A,01
02B80:  MOVLB  0
02B82:  RETURN 0
.................... } 
....................  
.................... // Input range - 00 to 99. 
.................... char bcd2bin(char bcd_value) 
.................... { 
....................   char temp; 
....................  
....................   temp = bcd_value; 
*
0135C:  MOVFF  21C,21D
....................   // Shifting upper digit right by 1 is same as multiplying by 8. 
....................   temp >>= 1; 
01360:  BCF    FD8.0
01362:  MOVLB  2
01364:  RRCF   x1D,F
....................   // Isolate the bits for the upper digit. 
....................   temp &= 0x78; 
01366:  MOVLW  78
01368:  ANDWF  x1D,F
....................  
....................   // Now return: (Tens * 8) + (Tens * 2) + Ones 
....................  
....................   return(temp + (temp >> 2) + (bcd_value & 0x0f)); 
0136A:  RRCF   x1D,W
0136C:  MOVWF  00
0136E:  RRCF   00,F
01370:  MOVLW  3F
01372:  ANDWF  00,F
01374:  MOVF   00,W
01376:  ADDWF  x1D,W
01378:  MOVWF  x1E
0137A:  MOVF   x1C,W
0137C:  ANDLW  0F
0137E:  ADDWF  x1E,W
01380:  MOVWF  01
01382:  MOVLB  0
01384:  RETURN 0
.................... } 
....................  
.................... void ds1307_init(void) 
*
02B84:  MOVLB  1
02B86:  CLRF   xEC
.................... { 
....................    BYTE seconds = 0; 
....................  
....................    i2c_start(); 
02B88:  BSF    F94.4
02B8A:  NOP   
02B8C:  BSF    F94.3
02B8E:  NOP   
02B90:  BCF    F8B.4
02B92:  BCF    F94.4
02B94:  NOP   
02B96:  BCF    F8B.3
02B98:  BCF    F94.3
02B9A:  CLRF   19
02B9C:  BTFSC  FF2.7
02B9E:  BSF    19.7
02BA0:  BCF    FF2.7
....................    i2c_write(0xD0);      // WR to RTC 
02BA2:  MOVLW  D0
02BA4:  MOVLB  2
02BA6:  MOVWF  x1B
02BA8:  MOVLB  0
02BAA:  CALL   12BE
02BAE:  BTFSC  19.7
02BB0:  BSF    FF2.7
02BB2:  CLRF   19
02BB4:  BTFSC  FF2.7
02BB6:  BSF    19.7
02BB8:  BCF    FF2.7
....................    i2c_write(0x00);      // REG 0 
02BBA:  MOVLB  2
02BBC:  CLRF   x1B
02BBE:  MOVLB  0
02BC0:  CALL   12BE
02BC4:  BTFSC  19.7
02BC6:  BSF    FF2.7
....................    i2c_start(); 
02BC8:  BSF    F94.4
02BCA:  NOP   
02BCC:  BSF    F94.3
02BCE:  NOP   
02BD0:  BTFSS  F82.3
02BD2:  BRA    2BD0
02BD4:  BCF    F8B.4
02BD6:  BCF    F94.4
02BD8:  NOP   
02BDA:  BCF    F8B.3
02BDC:  BCF    F94.3
02BDE:  CLRF   19
02BE0:  BTFSC  FF2.7
02BE2:  BSF    19.7
02BE4:  BCF    FF2.7
....................    i2c_write(0xD1);      // RD from RTC 
02BE6:  MOVLW  D1
02BE8:  MOVLB  2
02BEA:  MOVWF  x1B
02BEC:  MOVLB  0
02BEE:  CALL   12BE
02BF2:  BTFSC  19.7
02BF4:  BSF    FF2.7
....................    seconds = bcd2bin(i2c_read(0)); // Read current "seconds" in DS1307 
02BF6:  CLRF   00
02BF8:  CLRF   19
02BFA:  BTFSC  FF2.7
02BFC:  BSF    19.7
02BFE:  BCF    FF2.7
02C00:  CALL   1310
02C04:  BTFSC  19.7
02C06:  BSF    FF2.7
02C08:  MOVFF  01,1ED
02C0C:  CLRF   19
02C0E:  BTFSC  FF2.7
02C10:  BSF    19.7
02C12:  BCF    FF2.7
02C14:  MOVFF  01,21C
02C18:  CALL   135C
02C1C:  BTFSC  19.7
02C1E:  BSF    FF2.7
02C20:  MOVFF  01,1EC
....................    i2c_stop(); 
02C24:  BCF    F94.4
02C26:  NOP   
02C28:  BSF    F94.3
02C2A:  BTFSS  F82.3
02C2C:  BRA    2C2A
02C2E:  NOP   
02C30:  BRA    2C32
02C32:  NOP   
02C34:  BSF    F94.4
02C36:  NOP   
....................    seconds &= 0x7F; 
02C38:  MOVLB  1
02C3A:  BCF    xEC.7
....................  
....................    delay_us(3); 
02C3C:  BRA    2C3E
02C3E:  NOP   
....................  
....................    i2c_start(); 
02C40:  BSF    F94.4
02C42:  NOP   
02C44:  BSF    F94.3
02C46:  NOP   
02C48:  BCF    F8B.4
02C4A:  BCF    F94.4
02C4C:  NOP   
02C4E:  BCF    F8B.3
02C50:  BCF    F94.3
02C52:  CLRF   19
02C54:  BTFSC  FF2.7
02C56:  BSF    19.7
02C58:  BCF    FF2.7
....................    i2c_write(0xD0);      // WR to RTC 
02C5A:  MOVLW  D0
02C5C:  MOVLB  2
02C5E:  MOVWF  x1B
02C60:  MOVLB  0
02C62:  CALL   12BE
02C66:  BTFSC  19.7
02C68:  BSF    FF2.7
02C6A:  CLRF   19
02C6C:  BTFSC  FF2.7
02C6E:  BSF    19.7
02C70:  BCF    FF2.7
....................    i2c_write(0x00);      // REG 0 
02C72:  MOVLB  2
02C74:  CLRF   x1B
02C76:  MOVLB  0
02C78:  CALL   12BE
02C7C:  BTFSC  19.7
02C7E:  BSF    FF2.7
....................    i2c_write(bin2bcd(seconds));     // Start oscillator with current "seconds value 
02C80:  MOVFF  1EC,208
02C84:  RCALL  2B5C
02C86:  MOVFF  01,1ED
02C8A:  CLRF   19
02C8C:  BTFSC  FF2.7
02C8E:  BSF    19.7
02C90:  BCF    FF2.7
02C92:  MOVFF  01,21B
02C96:  CALL   12BE
02C9A:  BTFSC  19.7
02C9C:  BSF    FF2.7
....................    i2c_start(); 
02C9E:  BSF    F94.4
02CA0:  NOP   
02CA2:  BSF    F94.3
02CA4:  NOP   
02CA6:  BTFSS  F82.3
02CA8:  BRA    2CA6
02CAA:  BCF    F8B.4
02CAC:  BCF    F94.4
02CAE:  NOP   
02CB0:  BCF    F8B.3
02CB2:  BCF    F94.3
02CB4:  CLRF   19
02CB6:  BTFSC  FF2.7
02CB8:  BSF    19.7
02CBA:  BCF    FF2.7
....................    i2c_write(0xD0);      // WR to RTC 
02CBC:  MOVLW  D0
02CBE:  MOVLB  2
02CC0:  MOVWF  x1B
02CC2:  MOVLB  0
02CC4:  CALL   12BE
02CC8:  BTFSC  19.7
02CCA:  BSF    FF2.7
02CCC:  CLRF   19
02CCE:  BTFSC  FF2.7
02CD0:  BSF    19.7
02CD2:  BCF    FF2.7
....................    i2c_write(0x07);      // Control Register 
02CD4:  MOVLW  07
02CD6:  MOVLB  2
02CD8:  MOVWF  x1B
02CDA:  MOVLB  0
02CDC:  CALL   12BE
02CE0:  BTFSC  19.7
02CE2:  BSF    FF2.7
02CE4:  CLRF   19
02CE6:  BTFSC  FF2.7
02CE8:  BSF    19.7
02CEA:  BCF    FF2.7
....................    i2c_write(0x80);     // Disable squarewave output pin 
02CEC:  MOVLW  80
02CEE:  MOVLB  2
02CF0:  MOVWF  x1B
02CF2:  MOVLB  0
02CF4:  CALL   12BE
02CF8:  BTFSC  19.7
02CFA:  BSF    FF2.7
....................    i2c_stop(); 
02CFC:  BCF    F94.4
02CFE:  NOP   
02D00:  BSF    F94.3
02D02:  BTFSS  F82.3
02D04:  BRA    2D02
02D06:  NOP   
02D08:  BRA    2D0A
02D0A:  NOP   
02D0C:  BSF    F94.4
02D0E:  NOP   
02D10:  GOTO   30B0 (RETURN)
....................  
.................... } 
....................  
.................... void ds1307_set_date_time(BYTE day, int8 mth, BYTE year, BYTE dow, BYTE hr, BYTE min, BYTE sec) 
.................... { 
....................   sec &= 0x7F; 
*
0A740:  MOVLB  2
0A742:  BCF    x07.7
....................   hr &= 0x3F; 
0A744:  MOVLW  3F
0A746:  ANDWF  x05,F
....................  
....................   i2c_start(); 
0A748:  BSF    F94.4
0A74A:  NOP   
0A74C:  BSF    F94.3
0A74E:  NOP   
0A750:  BCF    F8B.4
0A752:  BCF    F94.4
0A754:  NOP   
0A756:  BCF    F8B.3
0A758:  BCF    F94.3
0A75A:  CLRF   19
0A75C:  BTFSC  FF2.7
0A75E:  BSF    19.7
0A760:  BCF    FF2.7
....................   i2c_write(0xD0);            // I2C write address 
0A762:  MOVLW  D0
0A764:  MOVWF  x1B
0A766:  MOVLB  0
0A768:  CALL   12BE
0A76C:  BTFSC  19.7
0A76E:  BSF    FF2.7
0A770:  CLRF   19
0A772:  BTFSC  FF2.7
0A774:  BSF    19.7
0A776:  BCF    FF2.7
....................   i2c_write(0x00);            // Start at REG 0 - Seconds 
0A778:  MOVLB  2
0A77A:  CLRF   x1B
0A77C:  MOVLB  0
0A77E:  CALL   12BE
0A782:  BTFSC  19.7
0A784:  BSF    FF2.7
....................   i2c_write(bin2bcd(sec));      // REG 0 
0A786:  MOVFF  207,208
0A78A:  CALL   2B5C
0A78E:  MOVFF  01,208
0A792:  CLRF   19
0A794:  BTFSC  FF2.7
0A796:  BSF    19.7
0A798:  BCF    FF2.7
0A79A:  MOVFF  01,21B
0A79E:  CALL   12BE
0A7A2:  BTFSC  19.7
0A7A4:  BSF    FF2.7
....................   i2c_write(bin2bcd(min));      // REG 1 
0A7A6:  MOVFF  206,208
0A7AA:  CALL   2B5C
0A7AE:  MOVFF  01,208
0A7B2:  CLRF   19
0A7B4:  BTFSC  FF2.7
0A7B6:  BSF    19.7
0A7B8:  BCF    FF2.7
0A7BA:  MOVFF  01,21B
0A7BE:  CALL   12BE
0A7C2:  BTFSC  19.7
0A7C4:  BSF    FF2.7
....................   i2c_write(bin2bcd(hr));      // REG 2 
0A7C6:  MOVFF  205,208
0A7CA:  CALL   2B5C
0A7CE:  MOVFF  01,208
0A7D2:  CLRF   19
0A7D4:  BTFSC  FF2.7
0A7D6:  BSF    19.7
0A7D8:  BCF    FF2.7
0A7DA:  MOVFF  01,21B
0A7DE:  CALL   12BE
0A7E2:  BTFSC  19.7
0A7E4:  BSF    FF2.7
....................   i2c_write(bin2bcd(dow));      // REG 3 
0A7E6:  MOVFF  204,208
0A7EA:  CALL   2B5C
0A7EE:  MOVFF  01,208
0A7F2:  CLRF   19
0A7F4:  BTFSC  FF2.7
0A7F6:  BSF    19.7
0A7F8:  BCF    FF2.7
0A7FA:  MOVFF  01,21B
0A7FE:  CALL   12BE
0A802:  BTFSC  19.7
0A804:  BSF    FF2.7
....................   i2c_write(bin2bcd(day));      // REG 4 
0A806:  MOVFF  201,208
0A80A:  CALL   2B5C
0A80E:  MOVFF  01,208
0A812:  CLRF   19
0A814:  BTFSC  FF2.7
0A816:  BSF    19.7
0A818:  BCF    FF2.7
0A81A:  MOVFF  01,21B
0A81E:  CALL   12BE
0A822:  BTFSC  19.7
0A824:  BSF    FF2.7
....................   i2c_write(bin2bcd(mth));      // REG 5 
0A826:  MOVFF  202,208
0A82A:  CALL   2B5C
0A82E:  MOVFF  01,208
0A832:  CLRF   19
0A834:  BTFSC  FF2.7
0A836:  BSF    19.7
0A838:  BCF    FF2.7
0A83A:  MOVFF  01,21B
0A83E:  CALL   12BE
0A842:  BTFSC  19.7
0A844:  BSF    FF2.7
....................   i2c_write(bin2bcd(year));      // REG 6 
0A846:  MOVFF  203,208
0A84A:  CALL   2B5C
0A84E:  MOVFF  01,208
0A852:  CLRF   19
0A854:  BTFSC  FF2.7
0A856:  BSF    19.7
0A858:  BCF    FF2.7
0A85A:  MOVFF  01,21B
0A85E:  CALL   12BE
0A862:  BTFSC  19.7
0A864:  BSF    FF2.7
0A866:  CLRF   19
0A868:  BTFSC  FF2.7
0A86A:  BSF    19.7
0A86C:  BCF    FF2.7
....................   i2c_write(0x80);            // REG 7 - Disable squarewave output pin 
0A86E:  MOVLW  80
0A870:  MOVLB  2
0A872:  MOVWF  x1B
0A874:  MOVLB  0
0A876:  CALL   12BE
0A87A:  BTFSC  19.7
0A87C:  BSF    FF2.7
....................   i2c_stop(); 
0A87E:  BCF    F94.4
0A880:  NOP   
0A882:  BSF    F94.3
0A884:  BTFSS  F82.3
0A886:  BRA    A884
0A888:  NOP   
0A88A:  BRA    A88C
0A88C:  NOP   
0A88E:  BSF    F94.4
0A890:  NOP   
0A892:  RETURN 0
.................... } 
....................  
.................... void ds1307_set_time(byte hr, byte min, byte sec) 
.................... { 
....................   sec &= 0x7F; 
....................   hr &= 0x3F; 
....................   i2c_start(); 
....................   i2c_write(0xD0);            // I2C write address 
....................   i2c_write(0x00);            // Start at REG 0 - Seconds 
....................   i2c_write(bin2bcd(sec));      // REG 0 
....................   i2c_write(bin2bcd(min));      // REG 1 
....................   i2c_write(bin2bcd(hr));      // REG 2 
....................   //i2c_write(0x80);            // REG 7 - Disable squarewave output pin 
....................   i2c_stop(); 
.................... } 
....................  
.................... void ds1307_set_date(byte day, byte mth, byte year, byte dow) 
.................... { 
....................   
....................   i2c_start(); 
....................   i2c_write(0xD0);            // I2C write address 
....................   i2c_write(0x03);            // Start at REG 0 - Seconds 
....................   i2c_write(bin2bcd(dow)); 
....................   i2c_write(bin2bcd(day)); 
....................   i2c_write(bin2bcd(mth)); 
....................   i2c_write(bin2bcd(year)); 
....................   i2c_write(0x80);            // REG 7 - Disable squarewave output pin 
....................   i2c_stop(); 
.................... } 
....................  
.................... void ds1307_get_date(BYTE &day, BYTE &mth, BYTE &year, BYTE &dow) 
.................... { 
....................   i2c_start(); 
*
013B2:  BSF    F94.4
013B4:  NOP   
013B6:  BSF    F94.3
013B8:  NOP   
013BA:  BCF    F8B.4
013BC:  BCF    F94.4
013BE:  NOP   
013C0:  BCF    F8B.3
013C2:  BCF    F94.3
....................   i2c_write(0xD0); 
013C4:  MOVLW  D0
013C6:  MOVLB  2
013C8:  MOVWF  x1B
013CA:  MOVLB  0
013CC:  RCALL  12BE
....................   i2c_write(0x03);            // Start at REG 3 - Day of week 
013CE:  MOVLW  03
013D0:  MOVLB  2
013D2:  MOVWF  x1B
013D4:  MOVLB  0
013D6:  RCALL  12BE
....................   i2c_start(); 
013D8:  BSF    F94.4
013DA:  NOP   
013DC:  BSF    F94.3
013DE:  NOP   
013E0:  BTFSS  F82.3
013E2:  BRA    13E0
013E4:  BCF    F8B.4
013E6:  BCF    F94.4
013E8:  NOP   
013EA:  BCF    F8B.3
013EC:  BCF    F94.3
....................   i2c_write(0xD1); 
013EE:  MOVLW  D1
013F0:  MOVLB  2
013F2:  MOVWF  x1B
013F4:  MOVLB  0
013F6:  RCALL  12BE
....................   dow  = bcd2bin(i2c_read() & 0x7f);   // REG 3 
013F8:  MOVLW  01
013FA:  MOVWF  00
013FC:  RCALL  1310
013FE:  MOVF   01,W
01400:  ANDLW  7F
01402:  MOVLB  2
01404:  MOVWF  x17
01406:  MOVWF  x1C
01408:  MOVLB  0
0140A:  RCALL  135C
0140C:  MOVFF  01,27
....................   day  = bcd2bin(i2c_read() & 0x3f);   // REG 4 
01410:  MOVLW  01
01412:  MOVWF  00
01414:  RCALL  1310
01416:  MOVF   01,W
01418:  ANDLW  3F
0141A:  MOVLB  2
0141C:  MOVWF  x17
0141E:  MOVWF  x1C
01420:  MOVLB  0
01422:  RCALL  135C
01424:  MOVFF  01,24
....................   mth  = bcd2bin(i2c_read() & 0x1f);   // REG 5 
01428:  MOVLW  01
0142A:  MOVWF  00
0142C:  RCALL  1310
0142E:  MOVF   01,W
01430:  ANDLW  1F
01432:  MOVLB  2
01434:  MOVWF  x17
01436:  MOVWF  x1C
01438:  MOVLB  0
0143A:  RCALL  135C
0143C:  MOVFF  01,25
....................   year = bcd2bin(i2c_read(0));            // REG 6 
01440:  CLRF   00
01442:  RCALL  1310
01444:  MOVFF  01,217
01448:  MOVFF  01,21C
0144C:  RCALL  135C
0144E:  MOVFF  01,26
....................   i2c_stop(); 
01452:  BCF    F94.4
01454:  NOP   
01456:  BSF    F94.3
01458:  BTFSS  F82.3
0145A:  BRA    1458
0145C:  NOP   
0145E:  BRA    1460
01460:  NOP   
01462:  BSF    F94.4
01464:  NOP   
.................... } 
....................  
.................... void ds1307_get_time(BYTE &hr, BYTE &min, BYTE &sec) 
.................... { 
....................   i2c_start(); 
*
01470:  BSF    F94.4
01472:  NOP   
01474:  BSF    F94.3
01476:  NOP   
01478:  BCF    F8B.4
0147A:  BCF    F94.4
0147C:  NOP   
0147E:  BCF    F8B.3
01480:  BCF    F94.3
....................   i2c_write(0xD0); 
01482:  MOVLW  D0
01484:  MOVLB  2
01486:  MOVWF  x1B
01488:  MOVLB  0
0148A:  RCALL  12BE
....................   i2c_write(0x00);            // Start at REG 0 - Seconds 
0148C:  MOVLB  2
0148E:  CLRF   x1B
01490:  MOVLB  0
01492:  RCALL  12BE
....................   i2c_start(); 
01494:  BSF    F94.4
01496:  NOP   
01498:  BSF    F94.3
0149A:  NOP   
0149C:  BTFSS  F82.3
0149E:  BRA    149C
014A0:  BCF    F8B.4
014A2:  BCF    F94.4
014A4:  NOP   
014A6:  BCF    F8B.3
014A8:  BCF    F94.3
....................   i2c_write(0xD1); 
014AA:  MOVLW  D1
014AC:  MOVLB  2
014AE:  MOVWF  x1B
014B0:  MOVLB  0
014B2:  RCALL  12BE
....................   sec = bcd2bin(i2c_read() & 0x7f); 
014B4:  MOVLW  01
014B6:  MOVWF  00
014B8:  RCALL  1310
014BA:  MOVF   01,W
014BC:  ANDLW  7F
014BE:  MOVLB  2
014C0:  MOVWF  x17
014C2:  MOVWF  x1C
014C4:  MOVLB  0
014C6:  RCALL  135C
014C8:  MOVFF  01,21
....................   min = bcd2bin(i2c_read() & 0x7f); 
014CC:  MOVLW  01
014CE:  MOVWF  00
014D0:  RCALL  1310
014D2:  MOVF   01,W
014D4:  ANDLW  7F
014D6:  MOVLB  2
014D8:  MOVWF  x17
014DA:  MOVWF  x1C
014DC:  MOVLB  0
014DE:  RCALL  135C
014E0:  MOVFF  01,22
....................   hr  = bcd2bin(i2c_read(0) & 0x3f); 
014E4:  CLRF   00
014E6:  RCALL  1310
014E8:  MOVF   01,W
014EA:  ANDLW  3F
014EC:  MOVLB  2
014EE:  MOVWF  x17
014F0:  MOVWF  x1C
014F2:  MOVLB  0
014F4:  RCALL  135C
014F6:  MOVFF  01,23
....................   i2c_stop(); 
014FA:  BCF    F94.4
014FC:  NOP   
014FE:  BSF    F94.3
01500:  BTFSS  F82.3
01502:  BRA    1500
01504:  NOP   
01506:  BRA    1508
01508:  NOP   
0150A:  BSF    F94.4
0150C:  NOP   
....................  
.................... }  
....................  
.................... //#include <string.h> 
.................... //#include <internal_eeprom.c>  
....................  
....................  
.................... ///////////////////// Variables y Funciones para DHT11  //////////////////////////////// 
.................... unsigned char values[5];   // Arreglo de valores (Solo nos sirve 0-temp- y 2-humedad-) 
.................... void DHT11_init();         // Iniciador estabilizador 
.................... unsigned char get_byte();  // Funcion que arma cada byte 
.................... unsigned char get_data();  // Funcion que asigna los valores a los diferentes bytes 
.................... unsigned char state = 0;   // Estado del sensor 
.................... //////////////////////////////////////////////////////////////////////////////////////// 
....................  
....................  
.................... ////// Variables del DS1307 ///// 
.................... byte sec; 
.................... byte min; 
.................... byte hrs; 
.................... byte day; 
.................... byte month; 
.................... byte year; 
.................... byte dow; 
.................... ///////////////////////////////// 
....................  
....................  
.................... ///////////////// Definiciones de Pines ///////////////////// 
.................... #define DHT11_pin PIN_B5     // Sensor DHT11 
.................... #define LCDLED PIN_D6        // Luz de pantalla led 
.................... #define ARRIBA PIN_B0        // Teclado Arriba 
.................... #define ABAJO  PIN_B1        // Teclado Abajo 
.................... #define OOKK   PIN_B2        // Teclado Ok 
.................... #define CANCEL PIN_B3        // Teclado Cancelar 
.................... #define FA_R 0               // Fase R 
.................... #define FA_S 1               // Fase S 
.................... #define FA_T 2               // Fase T 
.................... #define TempIn values[2]     // Temperatura 
.................... #define Hum values[0]        // Humedad 
....................  
.................... #define ONLCDLED output_low(PIN_D6) 
.................... #define OFFLCDLED  output_high(PIN_D6) 
.................... #define LIMPIARLCD lcd_putc("\f") 
....................  
.................... //////////////// Definicion de los sensores y Luces protagonistas ///////////////////////////// 
....................                     //////////////// SENSORES //////////////// 
.................... #define SSPasCuar     57 // Sensor del pasillo de los cuartos 
.................... #define SSEstar       58 // Sensor del estar 
.................... #define SSHall        58 // Sensor del hall 
.................... #define SSLiving      58 // Sensor del living 
.................... #define SSCocina      58 // Sensor de la cocina 
.................... #define SSPasEnt      58 // Sensor del pasillo de entrada 
.................... #define SSGaleria     58 // Sensor de la galeria 
.................... #define SSGarage      58 // Sensor del garage 
....................  
....................                      ///////// LUCES DE SERVICIOS ///////////// 
.................... #define LLPasCuar1    57 // Luz1 del pasillo de los cuartos 
.................... #define LLPasCuar2    57 // Luz2 del pasillo de los cuartos 
.................... #define LLEstar       58 // Luz del estar 
.................... #define LLHall        58 // Luz del hall 
.................... #define LLLiving1     58 // Luz del living 1 
.................... #define LLLiving2     58 // Luz del living 2 
.................... #define LLCocina      58 // Luz de la cocina 
.................... #define LLPasEnt      58 // Luz del pasillo de entrada 
.................... #define LLGaleria1    58 // Luz de la galeria 1 
.................... #define LLGaleria2    58 // Luz de la galeria 2 
.................... #define LLGarage      58 // Luz del garage 
....................  
.................... ///////////////// Definiciones de posiciones de memoria EEPROM ///////////////// 
.................... #define EstAlarma   2        // Estado de la alarma 
.................... #define EstCasandra 3        // Estado de casandra 
.................... #define TpoSil      4        // Tiempo de Alarma Silenciosa (en segundos de 1 a 180) 
.................... #define TpoSal      5        // Tiempo para salir (en segundos de 1 a 180) 
.................... #define Password    6 // y 7 // Puntero de password (OJO!!! es solo el puntero, ocupa 2 bytes de memoria, 6 y 7) 
.................... #define G1On        8        // Horario de encendido del grupo automatico 1 
.................... #define G2On        9        // Horario de encendido del grupo automatico 2 
.................... #define G1Off      10        // Horario de apagado del grupo automatico 1 
.................... #define G2Off      11        // Horario de apagado del grupo automatico 2 
.................... #define G1Dias     12        // Luces integrantes del grupo 1 
.................... #define G2Dias     13        // Luces integrantes del grupo 2 
.................... #define Umbra      14        // Nivel umbral de la fotocelda 
....................  
.................... #define Luz1 33   // Posiciones de memoria para la intensidad de cada luz 
.................... #define Luz2 34 
.................... #define Luz3 35 
.................... #define Luz4 36 
.................... #define Luz5 37 
.................... #define Luz6 38 
.................... #define Luz7 39 
.................... #define Luz8 40 
.................... #define Luz9 41 
.................... #define Luz10 42 
.................... #define Luz11 43 
.................... #define Luz12 44 
.................... #define Luz13 45 
.................... #define Luz14 46 
.................... #define Luz15 47 
.................... #define Luz16 48 
.................... #define Luz17 49 
.................... #define Luz18 50 
.................... #define Luz19 51 
.................... #define Luz20 52 
.................... #define Luz21 53 
.................... #define Luz22 54 
.................... #define Luz23 55 
.................... #define Luz24 56 
.................... #define Luz25 57 
.................... #define Luz26 58 
.................... #define Luz27 59 
.................... #define Luz28 60 
.................... #define Luz29 61 
.................... #define Luz30 62 
.................... #define Luz31 63 
.................... #define Luz32 64 
.................... #define Luz33 65 
.................... #define Luz34 66 
.................... #define Luz35 67 
.................... #define Luz36 68 
.................... #define Luz37 69 
.................... #define Luz38 70 
.................... #define Luz39 71 
.................... #define Luz40 72 
.................... #define Luz41 73 
.................... #define Luz42 74 
.................... #define Luz43 75 
.................... #define Luz44 76 
.................... #define Luz45 77 
.................... #define Luz46 78 
.................... #define Luz47 79 
.................... #define Luz48 80 
.................... #define Luz49 81 
.................... #define Luz50 82 
.................... #define Luz51 83 
.................... #define Luz52 84 
.................... #define Luz53 85 
.................... #define Luz54 86 
.................... #define Luz55 87 
.................... #define Luz56 88 
.................... #define Luz57 89 
.................... #define Luz58 90 
.................... #define Luz59 91 
.................... #define Luz60 92 
.................... #define Luz61 93 
....................  
.................... //// Posiciones de los registros de maximo y minimo de Temperatura y Radiacion solar ///// 
.................... #define TempMaxLun 100        // Temperatura maxima del lunes 
.................... #define TempMaxMar 105        // Temperatura maxima del martes 
.................... #define TempMaxMie 110        // Temperatura maxima del miercoles 
.................... #define TempMaxJue 115        // Temperatura maxima del jueves 
.................... #define TempMaxVie 120        // Temperatura maxima del viernes 
.................... #define TempMaxSab 125        // Temperatura maxima del sabado 
.................... #define TempMaxDom 130        // Temperatura maxima del domingo 
....................  
.................... #define TempMinLun 135        // Temperatura minima del lunes 
.................... #define TempMinMar 140        // Temperatura minima del martes 
.................... #define TempMinMie 145        // Temperatura minima del miercoles 
.................... #define TempMinJue 150        // Temperatura minima del jueves 
.................... #define TempMinVie 155        // Temperatura minima del viernes 
.................... #define TempMinSab 160        // Temperatura minima del sabado 
.................... #define TempMinDom 165        // Temperatura minima del domingo 
....................  
.................... #define SolLun 170            // Sol maximo del lunes 
.................... #define SolMar 175            // Sol maximo del martes 
.................... #define SolMie 180            // Sol maximo del miercoles 
.................... #define SolJue 185            // Sol maximo del jueves 
.................... #define SolVie 190            // Sol maximo del viernes 
.................... #define SolSab 195            // Sol maximo del sabado 
.................... #define SolDom 200            // Sol maximo del domingo 
....................  
.................... #define GrLuz1 233   // Posiciones de memoria para el byte de pertenencia de Grupos de cada GrLuz 
.................... #define GrLuz2 234 
.................... #define GrLuz3 235 
.................... #define GrLuz4 236 
.................... #define GrLuz5 237 
.................... #define GrLuz6 238 
.................... #define GrLuz7 239 
.................... #define GrLuz8 240 
.................... #define GrLuz9 241 
.................... #define GrLuz10 242 
.................... #define GrLuz11 243 
.................... #define GrLuz12 244 
.................... #define GrLuz13 245 
.................... #define GrLuz14 246 
.................... #define GrLuz15 247 
.................... #define GrLuz16 248 
.................... #define GrLuz17 249 
.................... #define GrLuz18 250 
.................... #define GrLuz19 251 
.................... #define GrLuz20 252 
.................... #define GrLuz21 253 
.................... #define GrLuz22 254 
.................... #define GrLuz23 255 
.................... #define GrLuz24 256 
.................... #define GrLuz25 257 
.................... #define GrLuz26 258 
.................... #define GrLuz27 259 
.................... #define GrLuz28 260 
.................... #define GrLuz29 261 
.................... #define GrLuz30 262 
.................... #define GrLuz31 263 
.................... #define GrLuz32 264 
.................... #define GrLuz33 265 
.................... #define GrLuz34 266 
.................... #define GrLuz35 267 
.................... #define GrLuz36 268 
.................... #define GrLuz37 269 
.................... #define GrLuz38 270 
.................... #define GrLuz39 271 
.................... #define GrLuz40 272 
.................... #define GrLuz41 273 
.................... #define GrLuz42 274 
.................... #define GrLuz43 275 
.................... #define GrLuz44 276 
.................... #define GrLuz45 277 
.................... #define GrLuz46 278 
.................... #define GrLuz47 279 
.................... #define GrLuz48 280 
.................... #define GrLuz49 281 
.................... #define GrLuz50 282 
.................... #define GrLuz51 283 
.................... #define GrLuz52 284 
.................... #define GrLuz53 285 
.................... #define GrLuz54 286 
.................... #define GrLuz55 287 
.................... #define GrLuz56 288 
.................... #define GrLuz57 289 
.................... #define GrLuz58 290 
.................... #define GrLuz59 291 
.................... #define GrLuz60 292 
....................  
.................... ///////////////// Funciones Generales //////////////// 
.................... void inicio();     // Configuracion inicial 
.................... void BusData();    // Bus de datos con algo para meter en el comando 
.................... void Comunica();   // Funcion de lectura de puerto serial y armado del comando 
.................... void Teclado();    // Leemos el teclado 
.................... void Pantalla();   // Actualizamos la pantalla 
.................... void Tiempo();     // Funcion para actualizar el tiempo 
.................... void Ambiente();   // Funcion para cargar variables ambientales 
.................... void AcercaDe();   // Acerca de... 
.................... void Holding();    // Pantalla de hold 
.................... void Notificador();// Pantalla del notificador  
.................... void ActAlarma();  // Activador de alarma 
.................... void LuzOnOff();   // Enciende o apaga la luz 
.................... void LuzGrupo();   // Enciende o apaga grupo de luces 
.................... void LuzInt();     // Configuracion de la intensidad de cada luz 
.................... void Ccasandra();  // Configuracion del nivel de automatico 
.................... void ConfAlarma(); // Configuracion de la alarma 
.................... void ADias();      // Funcion de seleccion de dias en grupos automaticos 
.................... void AHs();        // Funcion de horarios de grupos automaticos 
.................... void Aluces();     // Funcion de seleccion de luces para los grupos automaticos 
.................... int  Autenticar(); // Chequeo de contrasea, devuelve 1 si es correcta y 0 si no 
.................... void CClave();     // Funcion para cambiar la clave 
.................... void CHs();        // Funcion para cambiar la hora 
.................... void CReset();     // Resetea todas las variables del sistema 
.................... void ConfAlarma(); // Configuracion de alarma 
.................... void Fotocel();    // Configuracion del umbral de la fotocelula 
.................... void VerTemp();    // Donde vemos las temperaturas 
.................... void VerTens();    // Donde vemos las tensiones del sistema 
.................... void DosVeinte();  // Captura ADC para la tension trifasica 
.................... void Defini();     // Definiciones de Teclas y consumos 
.................... void Automaticos();// Funcion que analiza y dispara automaticos 
.................... void Pasillos();   // Funcion que analiza y dispara los pasillos 
.................... void Sensores();   // Funcion de gestion e interpretacion sensores (se llama cuando un sensor pasa por flanco positivo unicamente) 
.................... void AAlarma();    // Funcion de gestion e interpretacion de alarma 
.................... void LuzLED();     // Controla cuando la luz led se prende o se apaga 
....................  
....................  
.................... /////////////// Variables globales /////////////// 
.................... int Menu;          // Posicion dentro del menu 
.................... int TempMax[4];    // Temperatura maxima del dia - numero de dia - hora - minuto (el "dow" se interpreta por la posicion de memoria EEPROM) 
.................... int TempMin[4];    // Temperatura minima del dia - numero de dia - hora - minuto (el "dow" se interpreta por la posicion de memoria EEPROM) 
.................... int SolMax[4];     // Maximo nivel de radiacion de sol del dia - dia - hora - minuto (el "dow" se interpreta por la posicion de memoria EEPROM) 
.................... short Rebote;      // Antirebote de teclado 
.................... int Comando[4];    // Carga de EVENTO y VALOR 
.................... int i=0;           // Contador puntero para armar el comando recibido por el bus 
.................... char Dia[4];       // Cadena del dia 
.................... char Mes[4];       // Cadena del Mes 
.................... int TempOut;       // Temperatura remota (afuera) 
.................... int Sol;           // Intensidad del sol (remota, afuera) 
.................... int EstadoAl;      // Estado de la alarma 
.................... int ConfCas;       // El bit 0 es servicios, el 1 es el automatico1, el 2 el automatico2, el 3 es el modulo web y el 4 el control telefonico los demas de reserva 
.................... int Umbral;        // Nivel seleccionado de fotocelda 
.................... int Tiempo1;       // Tiempo del timer1 
.................... int IntLuz[99];    // Arreglo que guarda los niveles de intensidad de cada luz 
.................... int LGrupo[99];    // Arreglo que avisa que luz forma parte de los dos grupos automaticos 
.................... int LLuces[99];    // Arreglo que avisa que luz forma parte de los diferentes tipos de luces 
.................... int LTecla[99];    // Arreglo que avisa que es: Tecla, sensor interno, o externo 
.................... int Passwd[2];     // Contrasea en RAM 
.................... int TpoSilencioso; // Tiempo de silencio antes de sirena 
.................... int TpoSalida;     // Tiempo de gracia post activacion para salir 
.................... int GOn[3];        // Hora de encendido de los automaticos 
.................... int GOff[3];       // Hora de apagado de los automaticos 
.................... int Gdias[3];      // Grupo de dias de los automaticos 
.................... int Vbata;         // Tension de la bateria 
.................... int FaseR;         // Tension en fase R 
.................... int FaseS;         // Tension en fase S 
.................... int FaseT;         // Tension en fase T 
.................... short SPasCuar;    // Sensor del pasillo de los cuartos 
.................... short SEstar;      // Sensor del estar 
.................... short SHall;       // Sensor del hall 
.................... short SLiving;     // Sensor del living 
.................... short SCocina;     // Sensor de la cocina 
.................... short SPasEnt;     // Sensor del pasillo de entrada 
.................... short SGaleria;    // Sensor de la galeria 
.................... short SGarage;     // Sensor del garage 
.................... int AAseguu;       // Auxiliares para activacion de alarma 
.................... int AAdesact;      // Auxiliares para activacion de alarma 
....................  
.................... //////////////////////// EMPEZAMOS! :D ////////////////////////// 
....................  
.................... void main(){ 
*
0B940:  CLRF   FF8
0B942:  BCF    FD0.7
0B944:  BSF    07.7
0B946:  BCF    F95.4
0B948:  BCF    F8C.4
0B94A:  CLRF   1A
0B94C:  BCF    FB8.3
0B94E:  MOVLW  19
0B950:  MOVWF  FAF
0B952:  MOVLW  A6
0B954:  MOVWF  FAC
0B956:  MOVLW  90
0B958:  MOVWF  FAB
0B95A:  CLRF   20
0B95C:  CLRF   3A
0B95E:  MOVF   FC1,W
0B960:  ANDLW  C0
0B962:  IORLW  0F
0B964:  MOVWF  FC1
0B966:  MOVLW  07
0B968:  MOVWF  FB4
....................  
.................... inicio(); 
0B96A:  GOTO   309C
....................  
.................... /* BORRAR datos de temperaturas de la semana 
.................... int elimin; 
.................... for (elimin=95;elimin<230;elimin++){ 
.................... write_eeprom(elimin,0x00); 
.................... } 
.................... */ 
....................  
.................... if (input(ARRIBA)==0 && input(ABAJO)==0 ) { // && input(OOKK)==0 && input(CANCEL)==0){ 
0B96E:  BSF    F93.0
0B970:  BTFSC  F81.0
0B972:  BRA    B9BE
0B974:  BSF    F93.1
0B976:  BTFSC  F81.1
0B978:  BRA    B9BE
.................... long elimina; 
.................... for (elimina=0;elimina<1024;elimina++){ 
0B97A:  MOVLB  1
0B97C:  CLRF   xEA
0B97E:  CLRF   xE9
0B980:  MOVF   xEA,W
0B982:  SUBLW  03
0B984:  BNC   B9BC
.................... write_eeprom(elimina,0x00); 
0B986:  MOVF   FF2,W
0B988:  MOVWF  00
0B98A:  BCF    FF2.7
0B98C:  MOVFF  1EA,FAA
0B990:  MOVFF  1E9,FA9
0B994:  CLRF   FA8
0B996:  BCF    FA6.6
0B998:  BCF    FA6.7
0B99A:  BSF    FA6.2
0B99C:  MOVLB  F
0B99E:  MOVLW  55
0B9A0:  MOVWF  FA7
0B9A2:  MOVLW  AA
0B9A4:  MOVWF  FA7
0B9A6:  BSF    FA6.1
0B9A8:  BTFSC  FA6.1
0B9AA:  BRA    B9A8
0B9AC:  BCF    FA6.2
0B9AE:  MOVF   00,W
0B9B0:  IORWF  FF2,F
0B9B2:  MOVLB  1
0B9B4:  INCF   xE9,F
0B9B6:  BTFSC  FD8.2
0B9B8:  INCF   xEA,F
0B9BA:  BRA    B980
0B9BC:  MOVLB  0
.................... } 
.................... } 
....................  
.................... while(1){ 
....................  
.................... restart_wdt(); // reiniciamos el perro 
0B9BE:  CLRWDT
....................  
.................... Teclado(); 
0B9C0:  GOTO   4BF2
.................... Pantalla(); 
0B9C4:  CALL   3F86
....................  
....................  
.................... if ((Menu == 121) || (Menu == 122) || (Menu == 123)) ActAlarma(); 
0B9C8:  MOVF   28,W
0B9CA:  SUBLW  79
0B9CC:  BZ    B9DA
0B9CE:  MOVF   28,W
0B9D0:  SUBLW  7A
0B9D2:  BZ    B9DA
0B9D4:  MOVF   28,W
0B9D6:  SUBLW  7B
0B9D8:  BTFSC  FD8.2
0B9DA:  GOTO   50CC
.................... if (Menu == 124) ConfAlarma(); 
0B9DE:  MOVF   28,W
0B9E0:  SUBLW  7C
0B9E2:  BTFSC  FD8.2
0B9E4:  GOTO   5510
.................... if (Menu == 131) LuzOnOff(); 
0B9E8:  MOVF   28,W
0B9EA:  SUBLW  83
0B9EC:  BTFSC  FD8.2
0B9EE:  GOTO   5910
.................... if (Menu == 132) LuzGrupo(); 
0B9F2:  MOVF   28,W
0B9F4:  SUBLW  84
0B9F6:  BTFSC  FD8.2
0B9F8:  GOTO   5D2A
.................... if (Menu == 133) LuzInt(); 
0B9FC:  MOVF   28,W
0B9FE:  SUBLW  85
0BA00:  BTFSC  FD8.2
0BA02:  GOTO   73DA
.................... if (Menu ==  41) Ccasandra(); 
0BA06:  MOVF   28,W
0BA08:  SUBLW  29
0BA0A:  BTFSC  FD8.2
0BA0C:  GOTO   7A6E
.................... if (Menu == 151) ADias(); 
0BA10:  MOVF   28,W
0BA12:  SUBLW  97
0BA14:  BTFSC  FD8.2
0BA16:  GOTO   84FA
.................... if (Menu == 152) AHs(); 
0BA1A:  MOVF   28,W
0BA1C:  SUBLW  98
0BA1E:  BTFSC  FD8.2
0BA20:  GOTO   8D32
.................... if (Menu == 153) Aluces(); 
0BA24:  MOVF   28,W
0BA26:  SUBLW  99
0BA28:  BTFSC  FD8.2
0BA2A:  GOTO   93CA
.................... if (Menu == 161) CClave(); 
0BA2E:  MOVF   28,W
0BA30:  SUBLW  A1
0BA32:  BTFSC  FD8.2
0BA34:  GOTO   9EF2
.................... if (Menu == 162) CHs(); 
0BA38:  MOVF   28,W
0BA3A:  SUBLW  A2
0BA3C:  BTFSC  FD8.2
0BA3E:  GOTO   A894
.................... if (Menu == 163) Fotocel(); 
0BA42:  MOVF   28,W
0BA44:  SUBLW  A3
0BA46:  BTFSC  FD8.2
0BA48:  GOTO   B096
.................... if (Menu == 164) CReset(); 
0BA4C:  MOVF   28,W
0BA4E:  SUBLW  A4
0BA50:  BTFSC  FD8.2
0BA52:  GOTO   B24E
.................... if (Menu == 165) AcercaDe(); 
0BA56:  MOVF   28,W
0BA58:  SUBLW  A5
0BA5A:  BTFSC  FD8.2
0BA5C:  BRA    B564
0BA5E:  BRA    B9BE
....................  
.................... //OFFLCDLED; 
.................... } //while 
.................... } // Main 
....................  
0BA60:  SLEEP 
.................... void LuzLED() { 
....................  
.................... if (menu == 0) OFFLCDLED; 
.................... else ONLCDLED; 
....................  
.................... } 
....................  
.................... void AAlarma() {  // Funcion llamada solamente cuando un sensor se activa (no cuando se desactiva) 
....................  
.................... if (EstadoAl <= 1){ // Si la alarma esta desactivada 
.................... // Cool! Nada por aqui :P 
.................... } else { // La alarma esta activada 
.................... if (Menu > 1){ 
.................... if (Autenticar()) { //autentica ok 
.................... printf("%c%c%c%c", 250, 100, 141, 241); // Desactivamos alarma de luz 
.................... EstadoAl = 1; // desactivada 
.................... write_eeprom(EstAlarma,EstadoAl); 
.................... printf("%c%c%c%c", 250, 100, 141, 241); // Desactivamos alarma de luz 
.................... //// FALTA!! PRENDEMOS LUCESSSSSS 
.................... Menu = 1; 
.................... } else { // no autentica 
.................... Menu = 0; 
.................... } // no autentica 
.................... } // Menu mas que 1 
.................... } // Alarma activada 
....................  
.................... if (EstadoAl == 7) { // disparada pero en silencio 
.................... if (sec != AAseguu) { // paso un segundo 
.................... AAseguu = sec; 
.................... if (TpoSilencioso > 0) TpoSilencioso = TpoSilencioso - 1; 
.................... else { // llegamos a tiempo silencioso 0 
.................... TpoSilencioso = read_eeprom(TpoSil);  // Leo y recupero el tiempo silencioso original 
.................... EstadoAl = 8; // comienza a sonar 
.................... AAdesact = 0; // ponemos en 0 el contador para comenzar a sumar el tiempo sonando 
.................... printf("%c%c%c%c", 250, 155, 100, 155+100); // Disparamos alarma sonora 
.................... printf("%c%c%c%c", 250, 155, 100, 155+100); // Disparamos alarma sonora 
.................... write_eeprom(EstAlarma,EstadoAl); 
.................... printf("%c%c%c%c", 250, 100, 140, 240); // Disparamos alarma de luz 
.................... printf("%c%c%c%c", 250, 100, 140, 240); // Disparamos alarma de luz 
.................... } // tiempo silencioso es 0 
.................... } // paso un segundo 
.................... } // disparada pero en silencio 
....................  
.................... if (EstadoAl == 8) { // disparada con sonido 
.................... if (sec != AAseguu) { // paso un segundo 
.................... AAseguu = sec; 
.................... AAdesact = AAdesact + 1; 
.................... } // paso sec 
.................... if (AAdesact == 120) { // ya pasaron 2 minutos sonando 
....................  
.................... } // pasaron 2 minutos sonando 
.................... } // estado al 8 
....................  
.................... } //fn 
....................  
.................... void Sensores() {  // Funcion llamada solamente cuando un sensor se activa (no cuando se desactiva) 
....................  
.................... if (EstadoAl == 3){ // alarma total activa y deteccion de sensor 
.................... int dentro = 0; 
.................... if (SPasCuar == True) dentro = dentro + 1; 
.................... if (SEstar == True) dentro = dentro + 1; 
.................... if (SHall == True) dentro = dentro + 1; 
.................... if (SLiving == True) dentro = dentro + 1; 
.................... if (SCocina == True) dentro = dentro + 1; 
.................... if (SPasEnt == True) dentro = dentro + 1; 
....................  
.................... if ((SGaleria == True) && (SGarage == True)) { // dos de afuera activos 
.................... EstadoAl = 7; 
.................... write_eeprom(EstAlarma,EstadoAl); 
.................... printf("%c%c%c%c", 250, 100, 140, 240); // Disparamos alarma de luz 
.................... AAseguu = sec; 
.................... } // dos de afuera activos 
....................  
.................... if (dentro > 1) { // dos de adentro activos 
.................... EstadoAl = 7; 
.................... write_eeprom(EstAlarma,EstadoAl); 
.................... printf("%c%c%c%c", 250, 100, 140, 240); // Disparamos alarma de luz 
.................... AAseguu = sec; 
.................... } // dos de afuera activos 
....................  
.................... } // estado al 3 
....................  
....................  
.................... if (EstadoAl == 4){ // alarma de noche 
.................... int dentro = 0; 
.................... //if (SPasCuar == True) dentro = dentro + 1; 
.................... if (SEstar == True) dentro = dentro + 1; 
.................... if (SHall == True) dentro = dentro + 1; 
.................... if (SLiving == True) dentro = dentro + 1; 
.................... if (SCocina == True) dentro = dentro + 1; 
.................... if (SPasEnt == True) dentro = dentro + 1; 
....................  
.................... if ((SGaleria == True) && (SGarage == True)) { // dos de afuera activos 
.................... EstadoAl = 7; 
.................... write_eeprom(EstAlarma,EstadoAl); 
.................... printf("%c%c%c%c", 250, 100, 140, 240); // Disparamos alarma de luz 
.................... AAseguu = sec; 
.................... } // dos de afuera activos 
....................  
.................... if (SPasCuar == false) { // si no se prendio el de los pasillos de cuartos 
.................... if (dentro > 1) { // dos de adentro activos 
.................... EstadoAl = 7; 
.................... write_eeprom(EstAlarma,EstadoAl); 
.................... printf("%c%c%c%c", 250, 100, 140, 240); // Disparamos alarma de luz 
.................... AAseguu = sec; 
.................... } // dos de afuera activos 
.................... } // si no se prendio el del pasillo de cuartos 
.................... } // estado al 4 
....................  
....................  
.................... if (EstadoAl == 5){ // alarma mascotera 
....................  
.................... if ((SGaleria == True) && (SGarage == True)) { // dos de afuera activos 
.................... EstadoAl = 7; 
.................... write_eeprom(EstAlarma,EstadoAl); 
.................... printf("%c%c%c%c", 250, 100, 140, 240); // Disparamos alarma de luz 
.................... AAseguu = sec; 
.................... } // dos de afuera activos 
.................... // Se activa por accion de teclas 
.................... } // estado al 5 
....................  
.................... } //fn 
....................  
.................... void Pasillos(){ // funcion que analiza y dispara el encendido y apagado de los pasillos y servicios 
.................... if (bit_test(ConfCas,0)) { // si configuracion casandra tiene activado los servicios (pasillos) 
.................... if (Sol <= Umbral) { 
....................  
.................... if (SPasCuar) { // esta activado el sensor de los pasillos de los cuartos 
.................... if (IntLuz[LLPasCuar1] < 99) printf("%c%c%c%c", 250, LLPasCuar1, 95, LLPasCuar1+95); // Prendemos  en la red en medio (si es que estaba apagada) 
.................... if (IntLuz[LLPasCuar2] < 99) printf("%c%c%c%c", 250, LLPasCuar2, 95, LLPasCuar2+95); // Prendemos  en la red en medio (si es que estaba apagada) 
.................... } else { // desactivado el sensor de los pasillos de los cuartos 
.................... if (IntLuz[LLPasCuar1] < 99) printf("%c%c%c%c", 250, LLPasCuar1, 80, LLPasCuar1+80); // Apagamos  en la red en medio (si es que estaba apagada) 
.................... if (IntLuz[LLPasCuar2] < 99) printf("%c%c%c%c", 250, LLPasCuar2, 80, LLPasCuar2+80); // Apagamos  en la red en medio (si es que estaba apagada) 
.................... } 
....................  
.................... if (SHall) { // esta activado el sensor del hall 
.................... if (IntLuz[LLHall] < 99) printf("%c%c%c%c", 250, LLHall, 95, LLHall+95); // Prendemos  en la red en medio (si es que estaba apagada) 
.................... } else { // desactivado el sensor del hall 
.................... if (IntLuz[LLHall] < 99) printf("%c%c%c%c", 250, LLHall, 80, LLHall+80); // Prendemos  en la red en medio (si es que estaba apagada) 
.................... } 
....................  
.................... if (SLiving) { // esta activado el sensor del living 
.................... if (IntLuz[LLLiving2] < 99) printf("%c%c%c%c", 250, LLLiving2, 90, LLLiving2+90); // Prendemos  en la red en medio (si es que estaba apagada) 
.................... } else { // desactivado el sensor del living 
.................... if (IntLuz[LLLiving2] < 99) printf("%c%c%c%c", 250, LLLiving2, 80, LLLiving2+80); // Prendemos  en la red en medio (si es que estaba apagada) 
.................... } 
....................  
.................... if (SCocina) { // esta activado el sensor del cocina 
.................... if (IntLuz[LLCocina] < 99) printf("%c%c%c%c", 250, LLCocina, 90, LLCocina+90); // Prendemos  en la red en medio (si es que estaba apagada) 
.................... } else { // desactivado el sensor del cocina 
.................... if (IntLuz[LLCocina] < 99) printf("%c%c%c%c", 250, LLCocina, 80, LLCocina+80); // Prendemos  en la red en medio (si es que estaba apagada) 
.................... } 
....................  
.................... if (SPasEnt) { // esta activado el sensor del pasillo de entrada 
.................... if (IntLuz[LLPasEnt] < 99) printf("%c%c%c%c", 250, LLPasEnt, 95, LLPasEnt+95); // Prendemos  en la red en medio (si es que estaba apagada) 
.................... } else { // desactivado el sensor del pasillo de entrada 
.................... if (IntLuz[LLPasEnt] < 99) printf("%c%c%c%c", 250, LLPasEnt, 80, LLPasEnt+80); // Prendemos  en la red en medio (si es que estaba apagada) 
.................... } 
....................  
.................... if (SGaleria) { // esta activado el sensor de la Galeria 
.................... if (IntLuz[LLGaleria1] < 99) printf("%c%c%c%c", 250, LLGaleria1, 90, LLGaleria1+90); // Prendemos  en la red en medio (si es que estaba apagada) 
.................... if (IntLuz[LLGaleria2] < 99) printf("%c%c%c%c", 250, LLGaleria2, 90, LLGaleria2+90); // Prendemos  en la red en medio (si es que estaba apagada) 
.................... } else { // desactivado el sensor de la galeria 
.................... if (IntLuz[LLGaleria1] < 99) printf("%c%c%c%c", 250, LLGaleria1, 80, LLGaleria1+80); // Apagamos  en la red en medio (si es que estaba apagada) 
.................... if (IntLuz[LLGaleria2] < 99) printf("%c%c%c%c", 250, LLGaleria2, 80, LLGaleria2+80); // Apagamos  en la red en medio (si es que estaba apagada) 
.................... } 
....................  
.................... if (SGarage) { // esta activado el sensor del pasillo de entrada 
.................... if (IntLuz[LLGarage] < 99) printf("%c%c%c%c", 250, LLGarage, 95, LLGarage+95); // Prendemos  en la red en medio (si es que estaba apagada) 
.................... } else { // desactivado el sensor del pasillo de entrada 
.................... if (IntLuz[LLGarage] < 99) printf("%c%c%c%c", 250, LLGarage, 80, LLGarage+80); // Prendemos  en la red en medio (si es que estaba apagada) 
.................... } 
....................  
.................... } // si el sol es menor a umbral 
.................... } // confcas 
.................... } // fn 
....................  
.................... void Automaticos(){ // funcion que analiza y dispara el encendido y apagado de los grupos automaticos 
....................  
.................... int kk; 
.................... int dowfalso; 
....................  
.................... if (bit_test(ConfCas,1)) { // si configuracion casandra tiene activado grupo auto 1 
....................  
.................... if (bit_test(Gdias[1], dow)) {  // El grupo 1 esta activo el dia de hoy 
.................... ////// ENCENDIDO 
.................... if (GOn[1] == 24) {  // si se prende por fotocelda 
.................... if (((Umbral - 1) == Sol) || ((Umbral - 2) == Sol) || ((Umbral - 3) == Sol)) { // si vale 1 menos que umbral, o 2 o 3 menos disparamos encendido 
....................       for (kk=32;kk<94;kk++) { 
....................       if (bit_test(LGrupo[kk],6)){ // si pertenece al grupo 
....................          printf("%c%c%c%c", 250, kk, 90, kk+90); // Prendemos  en la red 
....................          delay_ms(5); 
....................       } // si pertenece al grupo 
....................       } // for... 
.................... } 
....................  
.................... } else { // por fotocel termina y horarios comienza 
.................... if ((GOn[1] == hrs) && (min == 00) && (sec == 00)){ // prendemos por horario 
....................       for (kk=32;kk<94;kk++) { 
....................       if (bit_test(LGrupo[kk],6)){ // si pertenece al grupo 
....................          printf("%c%c%c%c", 250, kk, 90, kk+90); // Prendemos  en la red 
....................          delay_ms(5); 
....................       } // si pertenece al grupo 
....................       } // for... 
.................... } // prendemos por hs 
.................... } // fin por horarios 
.................... } // G1 activo hoy 
....................  
.................... if (( (GOff[1] >= 0) && (GOff[1] < 6) ) || (GOff[1] == 24)) dowfalso = dow + 1; 
.................... else dowfalso = dow; 
....................  
.................... if (bit_test(Gdias[1], dowfalso)) {  // El grupo 1 esta activo el dia de hoy o ayer, dado que es para apagado 
.................... ////// APAGADO 
.................... if (GOff[1] == 24) {  // si se apaga por fotocelda 
.................... if (((Umbral + 1) == Sol) || ((Umbral + 2) == Sol) || ((Umbral + 3) == Sol)) { // si vale 1 mas que umbral, o 2 o 3 mas disparamos apagado 
....................       for (kk=32;kk<94;kk++) { 
....................       if (bit_test(LGrupo[kk],6)){ // si pertenece al grupo 
....................          printf("%c%c%c%c", 250, kk, 80, kk+80); // Prendemos  en la red 
....................          delay_ms(5); 
....................       } // si pertenece al grupo 
....................       } // for... 
.................... } 
....................  
.................... } else { // por fotocel termina y horarios comienza 
.................... if ((GOff[1] == hrs) && (min == 00) && (sec == 00)){ // prendemos por horario 
....................       for (kk=32;kk<94;kk++) { 
....................       if (bit_test(LGrupo[kk],6)){ // si pertenece al grupo 
....................          printf("%c%c%c%c", 250, kk, 80, kk+80); // Prendemos  en la red 
....................          delay_ms(5); 
....................       } // si pertenece al grupo 
....................       } // for... 
.................... } // prendemos por hs 
.................... } // fin por horarios 
.................... } // G1 activo hoy 
.................... } // si confcas tiene activado auto1 /////////////////////////////////////////// 
....................  
.................... if (bit_test(ConfCas,2)) { // si configuracion casandra tiene activado grupo auto 2 
....................  
.................... if (bit_test(Gdias[2], dow)) {  // El grupo 2 esta activo el dia de hoy 
.................... ////// ENCENDIDO 
.................... if (GOn[2] == 24) {  // si se prende por fotocelda 
.................... if (((Umbral - 1) == Sol) || ((Umbral - 2) == Sol) || ((Umbral - 3) == Sol)) { // si vale 1 menos que umbral, o 2 o 3 menos disparamos encendido 
....................       for (kk=32;kk<94;kk++) { 
....................       if (bit_test(LGrupo[kk],7)){ // si pertenece al grupo 
....................          printf("%c%c%c%c", 250, kk, 90, kk+90); // Prendemos  en la red 
....................          delay_ms(5); 
....................       } // si pertenece al grupo 
....................       } // for... 
.................... } 
....................  
.................... } else { // por fotocel termina y horarios comienza 
.................... if ((GOn[2] == hrs) && (min == 00) && (sec == 00)){ // prendemos por horario 
....................       for (kk=32;kk<94;kk++) { 
....................       if (bit_test(LGrupo[kk],7)){ // si pertenece al grupo 
....................          printf("%c%c%c%c", 250, kk, 90, kk+90); // Prendemos  en la red 
....................          delay_ms(5); 
....................       } // si pertenece al grupo 
....................       } // for... 
.................... } // prendemos por hs 
.................... } // fin por horarios 
.................... } // G2 activo hoy 
....................  
.................... if (( (GOff[2] >= 0) && (GOff[2] < 6) ) || (GOff[2] == 24)) dowfalso = dow + 1; 
.................... else dowfalso = dow; 
....................  
.................... if (bit_test(Gdias[2], dowfalso)) {  // El grupo 2 esta activo el dia de hoy o ayer, dado que es para apagado 
.................... ////// APAGADO 
.................... if (GOff[2] == 24) {  // si se apaga por fotocelda 
.................... if (((Umbral + 1) == Sol) || ((Umbral + 2) == Sol) || ((Umbral + 3) == Sol)) { // si vale 1 mas que umbral, o 2 o 3 mas disparamos apagado 
....................       for (kk=32;kk<94;kk++) { 
....................       if (bit_test(LGrupo[kk],7)){ // si pertenece al grupo 
....................          printf("%c%c%c%c", 250, kk, 80, kk+80); // Prendemos  en la red 
....................          delay_ms(5); 
....................       } // si pertenece al grupo 
....................       } // for... 
.................... } 
....................  
.................... } else { // por fotocel termina y horarios comienza 
.................... if ((GOff[2] == hrs) && (min == 00) && (sec == 00)){ // prendemos por horario 
....................       for (kk=32;kk<94;kk++) { 
....................       if (bit_test(LGrupo[kk],6)){ // si pertenece al grupo 
....................          printf("%c%c%c%c", 250, kk, 80, kk+80); // Prendemos  en la red 
....................          delay_ms(5); 
....................       } // si pertenece al grupo 
....................       } // for... 
.................... } // prendemos por hs 
.................... } // fin por horarios 
.................... } // G2 activo hoy 
.................... } // si confcas tiene activado auto2 /////////////////////////////////////////// 
....................  
.................... } // fn 
....................  
....................  
.................... void Defini(){       //// Definicion de consumos ///// 
.................... // bits --> 0:NC (todos) // 1:Interior // 2:Exterior // 3:Jardin // 4:Frente // 5:Pasillos // 6 y 7: NC 
.................... LLuces[33] = 0b00000000; 
*
02FA2:  MOVLB  1
02FA4:  CLRF   x30
.................... LLuces[34] = 0b00000000; 
02FA6:  CLRF   x31
.................... LLuces[35] = 0b00000000; 
02FA8:  CLRF   x32
.................... LLuces[36] = 0b00000000; 
02FAA:  CLRF   x33
.................... LLuces[37] = 0b00000000; 
02FAC:  CLRF   x34
.................... LLuces[38] = 0b00000000; 
02FAE:  CLRF   x35
.................... LLuces[39] = 0b00000000; 
02FB0:  CLRF   x36
.................... LLuces[40] = 0b00000000; 
02FB2:  CLRF   x37
.................... LLuces[41] = 0b00000000; 
02FB4:  CLRF   x38
.................... LLuces[42] = 0b00000000; 
02FB6:  CLRF   x39
.................... LLuces[43] = 0b00000000; 
02FB8:  CLRF   x3A
.................... LLuces[44] = 0b00000000; 
02FBA:  CLRF   x3B
.................... LLuces[45] = 0b00000000; 
02FBC:  CLRF   x3C
.................... LLuces[46] = 0b00000000; 
02FBE:  CLRF   x3D
.................... LLuces[47] = 0b00000000; 
02FC0:  CLRF   x3E
.................... LLuces[48] = 0b00000000; 
02FC2:  CLRF   x3F
.................... LLuces[49] = 0b00000000; 
02FC4:  CLRF   x40
.................... LLuces[50] = 0b00000000; 
02FC6:  CLRF   x41
.................... LLuces[51] = 0b00000000; 
02FC8:  CLRF   x42
.................... LLuces[52] = 0b00000000; 
02FCA:  CLRF   x43
.................... LLuces[53] = 0b00000000; 
02FCC:  CLRF   x44
.................... LLuces[54] = 0b00000000; 
02FCE:  CLRF   x45
.................... LLuces[55] = 0b00000000; 
02FD0:  CLRF   x46
.................... LLuces[56] = 0b00000000; 
02FD2:  CLRF   x47
.................... LLuces[57] = 0b00000000; 
02FD4:  CLRF   x48
.................... LLuces[58] = 0b00000000; 
02FD6:  CLRF   x49
.................... LLuces[59] = 0b00000000; 
02FD8:  CLRF   x4A
.................... LLuces[60] = 0b00000000; 
02FDA:  CLRF   x4B
.................... LLuces[61] = 0b00000000; 
02FDC:  CLRF   x4C
.................... LLuces[62] = 0b00000000; 
02FDE:  CLRF   x4D
.................... LLuces[63] = 0b00000000; 
02FE0:  CLRF   x4E
.................... LLuces[64] = 0b00000000; 
02FE2:  CLRF   x4F
.................... LLuces[65] = 0b00000000; 
02FE4:  CLRF   x50
.................... LLuces[66] = 0b00000000; 
02FE6:  CLRF   x51
.................... LLuces[67] = 0b00000000; 
02FE8:  CLRF   x52
.................... LLuces[68] = 0b00000000; 
02FEA:  CLRF   x53
.................... LLuces[69] = 0b00000000; 
02FEC:  CLRF   x54
.................... LLuces[70] = 0b00000000; 
02FEE:  CLRF   x55
.................... LLuces[71] = 0b00000000; 
02FF0:  CLRF   x56
.................... LLuces[72] = 0b00000000; 
02FF2:  CLRF   x57
.................... LLuces[73] = 0b00000000; 
02FF4:  CLRF   x58
.................... LLuces[74] = 0b00000000; 
02FF6:  CLRF   x59
.................... LLuces[75] = 0b00000000; 
02FF8:  CLRF   x5A
.................... LLuces[76] = 0b00000000; 
02FFA:  CLRF   x5B
.................... LLuces[77] = 0b00000000; 
02FFC:  CLRF   x5C
.................... LLuces[78] = 0b00000000; 
02FFE:  CLRF   x5D
.................... LLuces[79] = 0b00000000; 
03000:  CLRF   x5E
.................... LLuces[80] = 0b00000000; 
03002:  CLRF   x5F
.................... LLuces[81] = 0b00000000; 
03004:  CLRF   x60
.................... LLuces[82] = 0b00000000; 
03006:  CLRF   x61
.................... LLuces[83] = 0b00000000; 
03008:  CLRF   x62
.................... LLuces[84] = 0b00000000; 
0300A:  CLRF   x63
.................... LLuces[85] = 0b00000000; 
0300C:  CLRF   x64
.................... LLuces[86] = 0b00000000; 
0300E:  CLRF   x65
.................... LLuces[87] = 0b00000000; 
03010:  CLRF   x66
.................... LLuces[88] = 0b00000000; 
03012:  CLRF   x67
.................... LLuces[89] = 0b00000000; 
03014:  CLRF   x68
.................... LLuces[90] = 0b00000000; 
03016:  CLRF   x69
.................... LLuces[91] = 0b00000000; 
03018:  CLRF   x6A
.................... LLuces[92] = 0b00000000; 
0301A:  CLRF   x6B
.................... LLuces[93] = 0b00000000; 
0301C:  CLRF   x6C
....................  
.................... //// Definicion de teclas ///// 
.................... // bits --> 0:Tecla cuartos // 1:Tecla casa // 2:Tecla exterior // 3:Sensor cuartos // 4:Sensor casa // 5:Sensor exterior // 6 y 7: NC 
.................... LTecla[33] = 0b00000000; 
0301E:  CLRF   x93
.................... LTecla[34] = 0b00000000; 
03020:  CLRF   x94
.................... LTecla[35] = 0b00000000; 
03022:  CLRF   x95
.................... LTecla[36] = 0b00000000; 
03024:  CLRF   x96
.................... LTecla[37] = 0b00000000; 
03026:  CLRF   x97
.................... LTecla[38] = 0b00000000; 
03028:  CLRF   x98
.................... LTecla[39] = 0b00000000; 
0302A:  CLRF   x99
.................... LTecla[40] = 0b00000000; 
0302C:  CLRF   x9A
.................... LTecla[41] = 0b00000000; 
0302E:  CLRF   x9B
.................... LTecla[42] = 0b00000000; 
03030:  CLRF   x9C
.................... LTecla[43] = 0b00000000; 
03032:  CLRF   x9D
.................... LTecla[44] = 0b00000000; 
03034:  CLRF   x9E
.................... LTecla[45] = 0b00000000; 
03036:  CLRF   x9F
.................... LTecla[46] = 0b00000000; 
03038:  CLRF   xA0
.................... LTecla[47] = 0b00000000; 
0303A:  CLRF   xA1
.................... LTecla[48] = 0b00000000; 
0303C:  CLRF   xA2
.................... LTecla[49] = 0b00000000; 
0303E:  CLRF   xA3
.................... LTecla[50] = 0b00000000; 
03040:  CLRF   xA4
.................... LTecla[51] = 0b00000000; 
03042:  CLRF   xA5
.................... LTecla[52] = 0b00000000; 
03044:  CLRF   xA6
.................... LTecla[53] = 0b00000000; 
03046:  CLRF   xA7
.................... LTecla[54] = 0b00000000; 
03048:  CLRF   xA8
.................... LTecla[55] = 0b00000000; 
0304A:  CLRF   xA9
.................... LTecla[56] = 0b00000000; 
0304C:  CLRF   xAA
.................... LTecla[57] = 0b00000000; 
0304E:  CLRF   xAB
.................... LTecla[58] = 0b00000000; 
03050:  CLRF   xAC
.................... LTecla[59] = 0b00000000; 
03052:  CLRF   xAD
.................... LTecla[60] = 0b00000000; 
03054:  CLRF   xAE
.................... LTecla[61] = 0b00000000; 
03056:  CLRF   xAF
.................... LTecla[62] = 0b00000000; 
03058:  CLRF   xB0
.................... LTecla[63] = 0b00000000; 
0305A:  CLRF   xB1
.................... LTecla[64] = 0b00000000; 
0305C:  CLRF   xB2
.................... LTecla[65] = 0b00000000; 
0305E:  CLRF   xB3
.................... LTecla[66] = 0b00000000; 
03060:  CLRF   xB4
.................... LTecla[67] = 0b00000000; 
03062:  CLRF   xB5
.................... LTecla[68] = 0b00000000; 
03064:  CLRF   xB6
.................... LTecla[69] = 0b00000000; 
03066:  CLRF   xB7
.................... LTecla[70] = 0b00000000; 
03068:  CLRF   xB8
.................... LTecla[71] = 0b00000000; 
0306A:  CLRF   xB9
.................... LTecla[72] = 0b00000000; 
0306C:  CLRF   xBA
.................... LTecla[73] = 0b00000000; 
0306E:  CLRF   xBB
.................... LTecla[74] = 0b00000000; 
03070:  CLRF   xBC
.................... LTecla[75] = 0b00000000; 
03072:  CLRF   xBD
.................... LTecla[76] = 0b00000000; 
03074:  CLRF   xBE
.................... LTecla[77] = 0b00000000; 
03076:  CLRF   xBF
.................... LTecla[78] = 0b00000000; 
03078:  CLRF   xC0
.................... LTecla[79] = 0b00000000; 
0307A:  CLRF   xC1
.................... LTecla[80] = 0b00000000; 
0307C:  CLRF   xC2
.................... LTecla[81] = 0b00000000; 
0307E:  CLRF   xC3
.................... LTecla[82] = 0b00000000; 
03080:  CLRF   xC4
.................... LTecla[83] = 0b00000000; 
03082:  CLRF   xC5
.................... LTecla[84] = 0b00000000; 
03084:  CLRF   xC6
.................... LTecla[85] = 0b00000000; 
03086:  CLRF   xC7
.................... LTecla[86] = 0b00000000; 
03088:  CLRF   xC8
.................... LTecla[87] = 0b00000000; 
0308A:  CLRF   xC9
.................... LTecla[88] = 0b00000000; 
0308C:  CLRF   xCA
.................... LTecla[89] = 0b00000000; 
0308E:  CLRF   xCB
.................... LTecla[90] = 0b00000000; 
03090:  CLRF   xCC
.................... LTecla[91] = 0b00000000; 
03092:  CLRF   xCD
.................... LTecla[92] = 0b00000000; 
03094:  CLRF   xCE
03096:  MOVLB  0
03098:  GOTO   33EA (RETURN)
.................... }  // fn definiciones 
....................  
....................  
.................... void VerTemp() {   // visor de temperaturas historicas de la semana 
....................  
.................... LIMPIARLCD; 
*
0372E:  MOVLW  7C
03730:  MOVWF  FF6
03732:  MOVLW  04
03734:  MOVWF  FF7
03736:  RCALL  2F62
.................... restart_wdt(); 
03738:  CLRWDT
.................... int dia = 1; 
.................... int Tmax[4];  // 0 es dow, 1 es grados, 2 es hora y 3 es minuto 
.................... int Tmin[4];  // 0 es dow, 1 es grados, 2 es hora y 3 es minuto 
.................... int Solc[4];  // 0 es dow, 1 es radiacion, 2 es hora y 3 es minuto 
.................... char DDow[8]; // Leyenda de lo que estamos visualizando 
....................  
.................... int falsodow; 
0373A:  MOVLW  01
0373C:  MOVLB  1
0373E:  MOVWF  xEB
....................  
.................... while (dia != 0){ //  
03740:  MOVF   xEB,F
03742:  BTFSC  FD8.2
03744:  BRA    3BF6
.................... restart_wdt(); 
03746:  CLRWDT
....................  
.................... falsodow = dow - (dia - 1); 
03748:  MOVLW  01
0374A:  SUBWF  xEB,W
0374C:  SUBWF  27,W
0374E:  MOVLB  2
03750:  MOVWF  x00
.................... if ((falsodow == 0) || (falsodow > 7)) falsodow = falsodow + 7; 
03752:  MOVF   x00,F
03754:  BZ    375C
03756:  MOVF   x00,W
03758:  SUBLW  07
0375A:  BC    3760
0375C:  MOVLW  07
0375E:  ADDWF  x00,F
....................  
.................... if (input(ARRIBA)==1 && input(ABAJO)==1 && input(OOKK)==1 && input(CANCEL)==1) Rebote = false; // Soltamos las teclas 
03760:  BSF    F93.0
03762:  BTFSS  F81.0
03764:  BRA    377A
03766:  BSF    F93.1
03768:  BTFSS  F81.1
0376A:  BRA    377A
0376C:  BSF    F93.2
0376E:  BTFSS  F81.2
03770:  BRA    377A
03772:  BSF    F93.3
03774:  BTFSS  F81.3
03776:  BRA    377A
03778:  BCF    35.0
....................  
.................... if (Rebote == false){ 
0377A:  BTFSC  35.0
0377C:  BRA    378C
.................... if (input(CANCEL) == 0){ // si cancel solo resto o salgo con 10 
0377E:  BSF    F93.3
03780:  BTFSC  F81.3
03782:  BRA    378C
.................... dia = 0; 
03784:  MOVLB  1
03786:  CLRF   xEB
.................... Rebote = true; 
03788:  BSF    35.0
0378A:  MOVLB  2
.................... } // si cancel 
.................... } 
....................  
.................... if (Rebote == false){ 
0378C:  BTFSC  35.0
0378E:  BRA    37A8
.................... if (input(ARRIBA) == 0){ // si arriba 
03790:  BSF    F93.0
03792:  BTFSC  F81.0
03794:  BRA    37A8
.................... Rebote = true; 
03796:  BSF    35.0
.................... ++dia; 
03798:  MOVLB  1
0379A:  INCF   xEB,F
.................... if (dia == 8) dia = 7; 
0379C:  MOVF   xEB,W
0379E:  SUBLW  08
037A0:  BNZ   37A6
037A2:  MOVLW  07
037A4:  MOVWF  xEB
037A6:  MOVLB  2
.................... } // si abajo 
.................... } // si rebote 
....................  
.................... if (Rebote == false){ 
037A8:  BTFSC  35.0
037AA:  BRA    37BA
.................... if (input(ABAJO) == 0){ // si abajo 
037AC:  BSF    F93.1
037AE:  BTFSC  F81.1
037B0:  BRA    37BA
.................... Rebote = true; 
037B2:  BSF    35.0
.................... --dia; 
037B4:  MOVLB  1
037B6:  DECF   xEB,F
037B8:  MOVLB  2
.................... } // si abajo 
.................... } // si rebote 
....................  
.................... lcd_gotoxy(1,1); 
037BA:  MOVLW  01
037BC:  MOVWF  x0E
037BE:  MOVWF  x0F
037C0:  MOVLB  0
037C2:  CALL   2E90
.................... printf(lcd_putc, "== Max/Min de%s", DDow); 
037C6:  MOVLW  7E
037C8:  MOVWF  FF6
037CA:  MOVLW  04
037CC:  MOVWF  FF7
037CE:  MOVLW  0D
037D0:  MOVLB  2
037D2:  MOVWF  x0A
037D4:  MOVLB  0
037D6:  RCALL  3496
037D8:  MOVLW  01
037DA:  MOVWF  FEA
037DC:  MOVLW  F8
037DE:  MOVWF  FE9
037E0:  RCALL  34BE
.................... //printf(lcd_putc, "= falsodow : %u", falsodow); 
.................... lcd_gotoxy(1,2); 
037E2:  MOVLW  01
037E4:  MOVLB  2
037E6:  MOVWF  x0E
037E8:  MOVLW  02
037EA:  MOVWF  x0F
037EC:  MOVLB  0
037EE:  CALL   2E90
.................... printf(lcd_putc, "Maxima: %2d%cC (%02d:%02d)", Tmax[1], 210, Tmax[2], Tmax[3]); 
037F2:  MOVLW  8E
037F4:  MOVWF  FF6
037F6:  MOVLW  04
037F8:  MOVWF  FF7
037FA:  MOVLW  08
037FC:  MOVLB  2
037FE:  MOVWF  x0A
03800:  MOVLB  0
03802:  RCALL  3496
03804:  MOVFF  1ED,203
03808:  MOVLW  11
0380A:  MOVLB  2
0380C:  MOVWF  x04
0380E:  MOVLB  0
03810:  RCALL  34E2
03812:  MOVLW  D2
03814:  MOVLB  2
03816:  MOVWF  x0D
03818:  MOVLB  0
0381A:  CALL   2EFA
0381E:  MOVLW  9B
03820:  MOVWF  FF6
03822:  MOVLW  04
03824:  MOVWF  FF7
03826:  MOVLW  03
03828:  MOVLB  2
0382A:  MOVWF  x0A
0382C:  MOVLB  0
0382E:  RCALL  3496
03830:  MOVFF  1EE,203
03834:  MOVLW  01
03836:  MOVLB  2
03838:  MOVWF  x04
0383A:  MOVLB  0
0383C:  RCALL  35BA
0383E:  MOVLW  3A
03840:  MOVLB  2
03842:  MOVWF  x0D
03844:  MOVLB  0
03846:  CALL   2EFA
0384A:  MOVFF  1EF,203
0384E:  MOVLW  01
03850:  MOVLB  2
03852:  MOVWF  x04
03854:  MOVLB  0
03856:  RCALL  35BA
03858:  MOVLW  29
0385A:  MOVLB  2
0385C:  MOVWF  x0D
0385E:  MOVLB  0
03860:  CALL   2EFA
.................... lcd_gotoxy(1,3); 
03864:  MOVLW  01
03866:  MOVLB  2
03868:  MOVWF  x0E
0386A:  MOVLW  03
0386C:  MOVWF  x0F
0386E:  MOVLB  0
03870:  CALL   2E90
.................... printf(lcd_putc, "Minima: %2d%cC (%02d:%02d)", Tmin[1], 210, Tmin[2], Tmin[3]); 
03874:  MOVLW  AA
03876:  MOVWF  FF6
03878:  MOVLW  04
0387A:  MOVWF  FF7
0387C:  MOVLW  08
0387E:  MOVLB  2
03880:  MOVWF  x0A
03882:  MOVLB  0
03884:  RCALL  3496
03886:  MOVFF  1F1,203
0388A:  MOVLW  11
0388C:  MOVLB  2
0388E:  MOVWF  x04
03890:  MOVLB  0
03892:  RCALL  34E2
03894:  MOVLW  D2
03896:  MOVLB  2
03898:  MOVWF  x0D
0389A:  MOVLB  0
0389C:  CALL   2EFA
038A0:  MOVLW  B7
038A2:  MOVWF  FF6
038A4:  MOVLW  04
038A6:  MOVWF  FF7
038A8:  MOVLW  03
038AA:  MOVLB  2
038AC:  MOVWF  x0A
038AE:  MOVLB  0
038B0:  RCALL  3496
038B2:  MOVFF  1F2,203
038B6:  MOVLW  01
038B8:  MOVLB  2
038BA:  MOVWF  x04
038BC:  MOVLB  0
038BE:  RCALL  35BA
038C0:  MOVLW  3A
038C2:  MOVLB  2
038C4:  MOVWF  x0D
038C6:  MOVLB  0
038C8:  CALL   2EFA
038CC:  MOVFF  1F3,203
038D0:  MOVLW  01
038D2:  MOVLB  2
038D4:  MOVWF  x04
038D6:  MOVLB  0
038D8:  RCALL  35BA
038DA:  MOVLW  29
038DC:  MOVLB  2
038DE:  MOVWF  x0D
038E0:  MOVLB  0
038E2:  CALL   2EFA
.................... lcd_gotoxy(1,4); 
038E6:  MOVLW  01
038E8:  MOVLB  2
038EA:  MOVWF  x0E
038EC:  MOVLW  04
038EE:  MOVWF  x0F
038F0:  MOVLB  0
038F2:  CALL   2E90
.................... printf(lcd_putc, "Sol max:%3u  (%02d:%02d)", Solc[1], Solc[2], Solc[3]); 
038F6:  MOVLW  C6
038F8:  MOVWF  FF6
038FA:  MOVLW  04
038FC:  MOVWF  FF7
038FE:  MOVLW  08
03900:  MOVLB  2
03902:  MOVWF  x0A
03904:  MOVLB  0
03906:  RCALL  3496
03908:  MOVFF  1F5,203
0390C:  MOVLW  13
0390E:  MOVLB  2
03910:  MOVWF  x04
03912:  MOVLB  0
03914:  RCALL  3692
03916:  MOVLW  D1
03918:  MOVWF  FF6
0391A:  MOVLW  04
0391C:  MOVWF  FF7
0391E:  MOVLW  03
03920:  MOVLB  2
03922:  MOVWF  x0A
03924:  MOVLB  0
03926:  RCALL  3496
03928:  MOVFF  1F6,203
0392C:  MOVLW  01
0392E:  MOVLB  2
03930:  MOVWF  x04
03932:  MOVLB  0
03934:  RCALL  35BA
03936:  MOVLW  3A
03938:  MOVLB  2
0393A:  MOVWF  x0D
0393C:  MOVLB  0
0393E:  CALL   2EFA
03942:  MOVFF  1F7,203
03946:  MOVLW  01
03948:  MOVLB  2
0394A:  MOVWF  x04
0394C:  MOVLB  0
0394E:  RCALL  35BA
03950:  MOVLW  29
03952:  MOVLB  2
03954:  MOVWF  x0D
03956:  MOVLB  0
03958:  CALL   2EFA
....................  
.................... long puntero; 
.................... puntero = (long) ((falsodow * 5) + 95); 
0395C:  MOVLB  2
0395E:  MOVF   x00,W
03960:  MULLW  05
03962:  MOVF   FF3,W
03964:  ADDLW  5F
03966:  CLRF   x02
03968:  MOVWF  x01
.................... Tmax[1] = read_eeprom(puntero); 
0396A:  MOVFF  FF2,203
0396E:  BCF    FF2.7
03970:  MOVFF  202,FAA
03974:  MOVFF  201,FA9
03978:  BCF    FA6.6
0397A:  BCF    FA6.7
0397C:  BSF    FA6.0
0397E:  MOVF   FA8,W
03980:  BTFSC  x03.7
03982:  BSF    FF2.7
03984:  MOVLB  1
03986:  MOVWF  xED
.................... puntero = (long) ((falsodow * 5) + 97); 
03988:  MOVLB  2
0398A:  MOVF   x00,W
0398C:  MULLW  05
0398E:  MOVF   FF3,W
03990:  ADDLW  61
03992:  CLRF   x02
03994:  MOVWF  x01
.................... Tmax[2] = read_eeprom(puntero); 
03996:  MOVFF  FF2,203
0399A:  BCF    FF2.7
0399C:  MOVFF  202,FAA
039A0:  MOVFF  201,FA9
039A4:  BCF    FA6.6
039A6:  BCF    FA6.7
039A8:  BSF    FA6.0
039AA:  MOVF   FA8,W
039AC:  BTFSC  x03.7
039AE:  BSF    FF2.7
039B0:  MOVLB  1
039B2:  MOVWF  xEE
.................... puntero = (long) ((falsodow * 5) + 98); 
039B4:  MOVLB  2
039B6:  MOVF   x00,W
039B8:  MULLW  05
039BA:  MOVF   FF3,W
039BC:  ADDLW  62
039BE:  CLRF   x02
039C0:  MOVWF  x01
.................... Tmax[3] = read_eeprom(puntero); 
039C2:  MOVFF  FF2,203
039C6:  BCF    FF2.7
039C8:  MOVFF  202,FAA
039CC:  MOVFF  201,FA9
039D0:  BCF    FA6.6
039D2:  BCF    FA6.7
039D4:  BSF    FA6.0
039D6:  MOVF   FA8,W
039D8:  BTFSC  x03.7
039DA:  BSF    FF2.7
039DC:  MOVLB  1
039DE:  MOVWF  xEF
....................  
.................... puntero = (long) ((falsodow * 5) + 130); 
039E0:  MOVLB  2
039E2:  MOVF   x00,W
039E4:  MULLW  05
039E6:  MOVF   FF3,W
039E8:  ADDLW  82
039EA:  CLRF   x02
039EC:  MOVWF  x01
.................... Tmin[1] = read_eeprom(puntero); 
039EE:  MOVFF  FF2,203
039F2:  BCF    FF2.7
039F4:  MOVFF  202,FAA
039F8:  MOVFF  201,FA9
039FC:  BCF    FA6.6
039FE:  BCF    FA6.7
03A00:  BSF    FA6.0
03A02:  MOVF   FA8,W
03A04:  BTFSC  x03.7
03A06:  BSF    FF2.7
03A08:  MOVLB  1
03A0A:  MOVWF  xF1
.................... puntero = (long) ((falsodow * 5) + 132); 
03A0C:  MOVLB  2
03A0E:  MOVF   x00,W
03A10:  MULLW  05
03A12:  MOVF   FF3,W
03A14:  ADDLW  84
03A16:  CLRF   x02
03A18:  MOVWF  x01
.................... Tmin[2] = read_eeprom(puntero); 
03A1A:  MOVFF  FF2,203
03A1E:  BCF    FF2.7
03A20:  MOVFF  202,FAA
03A24:  MOVFF  201,FA9
03A28:  BCF    FA6.6
03A2A:  BCF    FA6.7
03A2C:  BSF    FA6.0
03A2E:  MOVF   FA8,W
03A30:  BTFSC  x03.7
03A32:  BSF    FF2.7
03A34:  MOVLB  1
03A36:  MOVWF  xF2
.................... puntero = (long) ((falsodow * 5) + 133); 
03A38:  MOVLB  2
03A3A:  MOVF   x00,W
03A3C:  MULLW  05
03A3E:  MOVF   FF3,W
03A40:  ADDLW  85
03A42:  CLRF   x02
03A44:  MOVWF  x01
.................... Tmin[3] = read_eeprom(puntero); 
03A46:  MOVFF  FF2,203
03A4A:  BCF    FF2.7
03A4C:  MOVFF  202,FAA
03A50:  MOVFF  201,FA9
03A54:  BCF    FA6.6
03A56:  BCF    FA6.7
03A58:  BSF    FA6.0
03A5A:  MOVF   FA8,W
03A5C:  BTFSC  x03.7
03A5E:  BSF    FF2.7
03A60:  MOVLB  1
03A62:  MOVWF  xF3
....................  
.................... puntero = (long) ((falsodow * 5) + 165); 
03A64:  MOVLB  2
03A66:  MOVF   x00,W
03A68:  MULLW  05
03A6A:  MOVF   FF3,W
03A6C:  ADDLW  A5
03A6E:  CLRF   x02
03A70:  MOVWF  x01
.................... Solc[1] = read_eeprom(puntero); 
03A72:  MOVFF  FF2,203
03A76:  BCF    FF2.7
03A78:  MOVFF  202,FAA
03A7C:  MOVFF  201,FA9
03A80:  BCF    FA6.6
03A82:  BCF    FA6.7
03A84:  BSF    FA6.0
03A86:  MOVF   FA8,W
03A88:  BTFSC  x03.7
03A8A:  BSF    FF2.7
03A8C:  MOVLB  1
03A8E:  MOVWF  xF5
.................... puntero = (long) ((falsodow * 5) + 167); 
03A90:  MOVLB  2
03A92:  MOVF   x00,W
03A94:  MULLW  05
03A96:  MOVF   FF3,W
03A98:  ADDLW  A7
03A9A:  CLRF   x02
03A9C:  MOVWF  x01
.................... Solc[2] = read_eeprom(puntero); 
03A9E:  MOVFF  FF2,203
03AA2:  BCF    FF2.7
03AA4:  MOVFF  202,FAA
03AA8:  MOVFF  201,FA9
03AAC:  BCF    FA6.6
03AAE:  BCF    FA6.7
03AB0:  BSF    FA6.0
03AB2:  MOVF   FA8,W
03AB4:  BTFSC  x03.7
03AB6:  BSF    FF2.7
03AB8:  MOVLB  1
03ABA:  MOVWF  xF6
.................... puntero = (long) ((falsodow * 5) + 168); 
03ABC:  MOVLB  2
03ABE:  MOVF   x00,W
03AC0:  MULLW  05
03AC2:  MOVF   FF3,W
03AC4:  ADDLW  A8
03AC6:  CLRF   x02
03AC8:  MOVWF  x01
.................... Solc[3] = read_eeprom(puntero); 
03ACA:  MOVFF  FF2,203
03ACE:  BCF    FF2.7
03AD0:  MOVFF  202,FAA
03AD4:  MOVFF  201,FA9
03AD8:  BCF    FA6.6
03ADA:  BCF    FA6.7
03ADC:  BSF    FA6.0
03ADE:  MOVF   FA8,W
03AE0:  BTFSC  x03.7
03AE2:  BSF    FF2.7
03AE4:  MOVLB  1
03AE6:  MOVWF  xF7
....................  
.................... switch (falsodow){ 
03AE8:  MOVLW  01
03AEA:  MOVLB  2
03AEC:  SUBWF  x00,W
03AEE:  ADDLW  F9
03AF0:  BTFSC  FD8.0
03AF2:  BRA    3BD0
03AF4:  ADDLW  07
03AF6:  MOVLB  0
03AF8:  GOTO   3C0A
....................    case 1: // Hoy 
....................    DDow = " Lun =="; 
03AFC:  MOVLW  01
03AFE:  MOVWF  FEA
03B00:  MOVLW  F8
03B02:  MOVWF  FE9
03B04:  MOVLW  00
03B06:  CALL   00CE
03B0A:  TBLRD*-
03B0C:  TBLRD*+
03B0E:  MOVF   FF5,W
03B10:  MOVWF  FEE
03B12:  IORLW  00
03B14:  BNZ   3B0C
....................    break; 
03B16:  MOVLB  2
03B18:  BRA    3BD0
....................  
....................    case 2: // Ayer 
....................    DDow = " Mar =="; 
03B1A:  MOVLW  01
03B1C:  MOVWF  FEA
03B1E:  MOVLW  F8
03B20:  MOVWF  FE9
03B22:  MOVLW  00
03B24:  CALL   00E6
03B28:  TBLRD*-
03B2A:  TBLRD*+
03B2C:  MOVF   FF5,W
03B2E:  MOVWF  FEE
03B30:  IORLW  00
03B32:  BNZ   3B2A
....................    break; 
03B34:  MOVLB  2
03B36:  BRA    3BD0
....................  
....................    case 3: //  
....................    DDow = " Mier ="; 
03B38:  MOVLW  01
03B3A:  MOVWF  FEA
03B3C:  MOVLW  F8
03B3E:  MOVWF  FE9
03B40:  MOVLW  00
03B42:  CALL   00FE
03B46:  TBLRD*-
03B48:  TBLRD*+
03B4A:  MOVF   FF5,W
03B4C:  MOVWF  FEE
03B4E:  IORLW  00
03B50:  BNZ   3B48
....................    break; 
03B52:  MOVLB  2
03B54:  BRA    3BD0
....................  
....................    case 4: //  
....................    DDow = " Jue =="; 
03B56:  MOVLW  01
03B58:  MOVWF  FEA
03B5A:  MOVLW  F8
03B5C:  MOVWF  FE9
03B5E:  MOVLW  00
03B60:  CALL   0116
03B64:  TBLRD*-
03B66:  TBLRD*+
03B68:  MOVF   FF5,W
03B6A:  MOVWF  FEE
03B6C:  IORLW  00
03B6E:  BNZ   3B66
....................    break; 
03B70:  MOVLB  2
03B72:  BRA    3BD0
....................  
....................    case 5: // 
....................    DDow = " Vie =="; 
03B74:  MOVLW  01
03B76:  MOVWF  FEA
03B78:  MOVLW  F8
03B7A:  MOVWF  FE9
03B7C:  MOVLW  00
03B7E:  CALL   012E
03B82:  TBLRD*-
03B84:  TBLRD*+
03B86:  MOVF   FF5,W
03B88:  MOVWF  FEE
03B8A:  IORLW  00
03B8C:  BNZ   3B84
....................    break; 
03B8E:  MOVLB  2
03B90:  BRA    3BD0
....................  
....................    case 6: // 
....................    DDow = " Sab =="; 
03B92:  MOVLW  01
03B94:  MOVWF  FEA
03B96:  MOVLW  F8
03B98:  MOVWF  FE9
03B9A:  MOVLW  00
03B9C:  CALL   0146
03BA0:  TBLRD*-
03BA2:  TBLRD*+
03BA4:  MOVF   FF5,W
03BA6:  MOVWF  FEE
03BA8:  IORLW  00
03BAA:  BNZ   3BA2
....................    break; 
03BAC:  MOVLB  2
03BAE:  BRA    3BD0
....................  
....................    case 7: // 
....................    DDow = " Dom =="; 
03BB0:  MOVLW  01
03BB2:  MOVWF  FEA
03BB4:  MOVLW  F8
03BB6:  MOVWF  FE9
03BB8:  MOVLW  00
03BBA:  CALL   015E
03BBE:  TBLRD*-
03BC0:  TBLRD*+
03BC2:  MOVF   FF5,W
03BC4:  MOVWF  FEE
03BC6:  IORLW  00
03BC8:  BNZ   3BC0
....................    break; 
03BCA:  MOVLB  2
03BCC:  BRA    3BD0
03BCE:  MOVLB  2
.................... } // switch 
....................  
.................... if (falsodow == dow) DDow = " Hoy =="; 
03BD0:  MOVF   27,W
03BD2:  SUBWF  x00,W
03BD4:  BNZ   3BF2
03BD6:  MOVLW  01
03BD8:  MOVWF  FEA
03BDA:  MOVLW  F8
03BDC:  MOVWF  FE9
03BDE:  MOVLW  00
03BE0:  MOVLB  0
03BE2:  CALL   0176
03BE6:  TBLRD*-
03BE8:  TBLRD*+
03BEA:  MOVF   FF5,W
03BEC:  MOVWF  FEE
03BEE:  IORLW  00
03BF0:  BNZ   3BE8
03BF2:  MOVLB  1
03BF4:  BRA    3740
....................  
.................... } // while 
.................... while (input(ABAJO)==0){ 
03BF6:  BSF    F93.1
03BF8:  BTFSC  F81.1
03BFA:  BRA    3C04
.................... Rebote = true; 
03BFC:  BSF    35.0
.................... Menu = 1; 
03BFE:  MOVLW  01
03C00:  MOVWF  28
03C02:  BRA    3BF6
.................... } 
03C04:  MOVLB  0
03C06:  GOTO   4C6C (RETURN)
.................... //delay_ms(50); 
.................... } // fn 
....................  
....................  
.................... void DosVeinte(){  // Toma de lectura analogica de la tension 220 
....................  
.................... restart_wdt(); 
*
0197A:  CLRWDT
.................... float Rr; 
.................... float Ss; 
.................... float Tt; 
....................  
.................... long Tensiones[3]; 
....................  
.................... set_adc_channel(FA_R); 
0197C:  MOVLW  00
0197E:  MOVWF  01
01980:  MOVF   FC2,W
01982:  ANDLW  C3
01984:  IORWF  01,W
01986:  MOVWF  FC2
.................... Tensiones[0] = read_adc(); 
01988:  BSF    FC2.1
0198A:  BTFSC  FC2.1
0198C:  BRA    198A
0198E:  MOVFF  FC4,224
01992:  MOVLB  2
01994:  MOVFF  FC3,223
.................... Rr = (float) (Tensiones[0]/3.41); 
01998:  MOVFF  224,22A
0199C:  MOVFF  223,229
019A0:  MOVLB  0
019A2:  RCALL  17AA
019A4:  MOVFF  03,22C
019A8:  MOVFF  02,22B
019AC:  MOVFF  01,22A
019B0:  MOVFF  00,229
019B4:  MOVLW  71
019B6:  MOVLB  2
019B8:  MOVWF  x30
019BA:  MOVLW  3D
019BC:  MOVWF  x2F
019BE:  MOVLW  5A
019C0:  MOVWF  x2E
019C2:  MOVLW  80
019C4:  MOVWF  x2D
019C6:  MOVLB  0
019C8:  RCALL  17E0
019CA:  MOVFF  03,21A
019CE:  MOVFF  02,219
019D2:  MOVFF  01,218
019D6:  MOVFF  00,217
.................... FaseR = Rr; 
019DA:  MOVFF  21A,22C
019DE:  MOVFF  219,22B
019E2:  MOVFF  218,22A
019E6:  MOVFF  217,229
019EA:  RCALL  193E
019EC:  MOVFF  01,1E3
....................  
.................... set_adc_channel(FA_S); 
019F0:  MOVLW  04
019F2:  MOVWF  01
019F4:  MOVF   FC2,W
019F6:  ANDLW  C3
019F8:  IORWF  01,W
019FA:  MOVWF  FC2
.................... Tensiones[1] = read_adc(); 
019FC:  BSF    FC2.1
019FE:  BTFSC  FC2.1
01A00:  BRA    19FE
01A02:  MOVFF  FC4,226
01A06:  MOVLB  2
01A08:  MOVFF  FC3,225
.................... Ss = (float) (Tensiones[1]/3.41); 
01A0C:  MOVFF  226,22A
01A10:  MOVFF  225,229
01A14:  MOVLB  0
01A16:  RCALL  17AA
01A18:  MOVFF  03,22C
01A1C:  MOVFF  02,22B
01A20:  MOVFF  01,22A
01A24:  MOVFF  00,229
01A28:  MOVLW  71
01A2A:  MOVLB  2
01A2C:  MOVWF  x30
01A2E:  MOVLW  3D
01A30:  MOVWF  x2F
01A32:  MOVLW  5A
01A34:  MOVWF  x2E
01A36:  MOVLW  80
01A38:  MOVWF  x2D
01A3A:  MOVLB  0
01A3C:  RCALL  17E0
01A3E:  MOVFF  03,21E
01A42:  MOVFF  02,21D
01A46:  MOVFF  01,21C
01A4A:  MOVFF  00,21B
.................... FaseS = Ss; 
01A4E:  MOVFF  21E,22C
01A52:  MOVFF  21D,22B
01A56:  MOVFF  21C,22A
01A5A:  MOVFF  21B,229
01A5E:  RCALL  193E
01A60:  MOVFF  01,1E4
....................  
.................... set_adc_channel(FA_T); 
01A64:  MOVLW  08
01A66:  MOVWF  01
01A68:  MOVF   FC2,W
01A6A:  ANDLW  C3
01A6C:  IORWF  01,W
01A6E:  MOVWF  FC2
.................... Tensiones[2] = read_adc(); 
01A70:  BSF    FC2.1
01A72:  BTFSC  FC2.1
01A74:  BRA    1A72
01A76:  MOVFF  FC4,228
01A7A:  MOVLB  2
01A7C:  MOVFF  FC3,227
.................... Tt = (float) (Tensiones[2]/3.41); 
01A80:  MOVFF  228,22A
01A84:  MOVFF  227,229
01A88:  MOVLB  0
01A8A:  RCALL  17AA
01A8C:  MOVFF  03,22C
01A90:  MOVFF  02,22B
01A94:  MOVFF  01,22A
01A98:  MOVFF  00,229
01A9C:  MOVLW  71
01A9E:  MOVLB  2
01AA0:  MOVWF  x30
01AA2:  MOVLW  3D
01AA4:  MOVWF  x2F
01AA6:  MOVLW  5A
01AA8:  MOVWF  x2E
01AAA:  MOVLW  80
01AAC:  MOVWF  x2D
01AAE:  MOVLB  0
01AB0:  RCALL  17E0
01AB2:  MOVFF  03,222
01AB6:  MOVFF  02,221
01ABA:  MOVFF  01,220
01ABE:  MOVFF  00,21F
.................... FaseT = Tt; 
01AC2:  MOVFF  222,22C
01AC6:  MOVFF  221,22B
01ACA:  MOVFF  220,22A
01ACE:  MOVFF  21F,229
01AD2:  RCALL  193E
01AD4:  MOVFF  01,1E5
01AD8:  GOTO   1FAC (RETURN)
....................  
.................... }//fn 
....................  
....................  
.................... void VerTens() { // funcion de muestra de tensiones 
.................... LIMPIARLCD; 
*
03DE0:  MOVLW  E0
03DE2:  MOVWF  FF6
03DE4:  MOVLW  04
03DE6:  MOVWF  FF7
03DE8:  CALL   2F62
.................... short dentro = True; 
03DEC:  MOVLB  1
03DEE:  BSF    xEB.0
....................  
.................... if (input(ARRIBA)==1 && input(ABAJO)==1 && input(OOKK)==1 && input(CANCEL)==1) Rebote = false; // Soltamos las teclas 
03DF0:  BSF    F93.0
03DF2:  BTFSS  F81.0
03DF4:  BRA    3E0A
03DF6:  BSF    F93.1
03DF8:  BTFSS  F81.1
03DFA:  BRA    3E0A
03DFC:  BSF    F93.2
03DFE:  BTFSS  F81.2
03E00:  BRA    3E0A
03E02:  BSF    F93.3
03E04:  BTFSS  F81.3
03E06:  BRA    3E0A
03E08:  BCF    35.0
....................  
.................... if (Rebote == false){ 
03E0A:  BTFSC  35.0
03E0C:  BRA    3F80
....................  
.................... while (dentro){ 
03E0E:  BTFSS  xEB.0
03E10:  BRA    3F80
....................  
.................... restart_wdt(); 
03E12:  CLRWDT
.................... lcd_gotoxy(1,1); 
03E14:  MOVLW  01
03E16:  MOVLB  2
03E18:  MOVWF  x0E
03E1A:  MOVWF  x0F
03E1C:  MOVLB  0
03E1E:  CALL   2E90
.................... printf(lcd_putc, "=== Tensiones(V) ==="); 
03E22:  MOVLW  E2
03E24:  MOVWF  FF6
03E26:  MOVLW  04
03E28:  MOVWF  FF7
03E2A:  CALL   2F62
.................... lcd_gotoxy(1,2); 
03E2E:  MOVLW  01
03E30:  MOVLB  2
03E32:  MOVWF  x0E
03E34:  MOVLW  02
03E36:  MOVWF  x0F
03E38:  MOVLB  0
03E3A:  CALL   2E90
.................... printf(lcd_putc, " (R) // (S) // (T)  "); 
03E3E:  MOVLW  F8
03E40:  MOVWF  FF6
03E42:  MOVLW  04
03E44:  MOVWF  FF7
03E46:  CALL   2F62
.................... lcd_gotoxy(1,3); 
03E4A:  MOVLW  01
03E4C:  MOVLB  2
03E4E:  MOVWF  x0E
03E50:  MOVLW  03
03E52:  MOVWF  x0F
03E54:  MOVLB  0
03E56:  CALL   2E90
.................... printf(lcd_putc, " %uv ", FaseR); 
03E5A:  MOVLW  20
03E5C:  MOVLB  2
03E5E:  MOVWF  x0D
03E60:  MOVLB  0
03E62:  CALL   2EFA
03E66:  MOVFF  1E3,203
03E6A:  MOVLW  1B
03E6C:  MOVLB  2
03E6E:  MOVWF  x04
03E70:  MOVLB  0
03E72:  RCALL  3692
03E74:  MOVLW  76
03E76:  MOVLB  2
03E78:  MOVWF  x0D
03E7A:  MOVLB  0
03E7C:  CALL   2EFA
03E80:  MOVLW  20
03E82:  MOVLB  2
03E84:  MOVWF  x0D
03E86:  MOVLB  0
03E88:  CALL   2EFA
.................... lcd_gotoxy(8,3); 
03E8C:  MOVLW  08
03E8E:  MOVLB  2
03E90:  MOVWF  x0E
03E92:  MOVLW  03
03E94:  MOVWF  x0F
03E96:  MOVLB  0
03E98:  CALL   2E90
.................... printf(lcd_putc, " %uv ", FaseS); 
03E9C:  MOVLW  20
03E9E:  MOVLB  2
03EA0:  MOVWF  x0D
03EA2:  MOVLB  0
03EA4:  CALL   2EFA
03EA8:  MOVFF  1E4,203
03EAC:  MOVLW  1B
03EAE:  MOVLB  2
03EB0:  MOVWF  x04
03EB2:  MOVLB  0
03EB4:  CALL   3692
03EB8:  MOVLW  76
03EBA:  MOVLB  2
03EBC:  MOVWF  x0D
03EBE:  MOVLB  0
03EC0:  CALL   2EFA
03EC4:  MOVLW  20
03EC6:  MOVLB  2
03EC8:  MOVWF  x0D
03ECA:  MOVLB  0
03ECC:  CALL   2EFA
.................... lcd_gotoxy(15,3); 
03ED0:  MOVLW  0F
03ED2:  MOVLB  2
03ED4:  MOVWF  x0E
03ED6:  MOVLW  03
03ED8:  MOVWF  x0F
03EDA:  MOVLB  0
03EDC:  CALL   2E90
.................... printf(lcd_putc, " %uv ", FaseT); 
03EE0:  MOVLW  20
03EE2:  MOVLB  2
03EE4:  MOVWF  x0D
03EE6:  MOVLB  0
03EE8:  CALL   2EFA
03EEC:  MOVFF  1E5,203
03EF0:  MOVLW  1B
03EF2:  MOVLB  2
03EF4:  MOVWF  x04
03EF6:  MOVLB  0
03EF8:  CALL   3692
03EFC:  MOVLW  76
03EFE:  MOVLB  2
03F00:  MOVWF  x0D
03F02:  MOVLB  0
03F04:  CALL   2EFA
03F08:  MOVLW  20
03F0A:  MOVLB  2
03F0C:  MOVWF  x0D
03F0E:  MOVLB  0
03F10:  CALL   2EFA
.................... lcd_gotoxy(1,4); 
03F14:  MOVLW  01
03F16:  MOVLB  2
03F18:  MOVWF  x0E
03F1A:  MOVLW  04
03F1C:  MOVWF  x0F
03F1E:  MOVLB  0
03F20:  CALL   2E90
.................... printf(lcd_putc, "   Bateria: %3.1wv   ", Vbata); 
03F24:  MOVLW  0E
03F26:  MOVWF  FF6
03F28:  MOVLW  05
03F2A:  MOVWF  FF7
03F2C:  MOVLW  0C
03F2E:  MOVLB  2
03F30:  MOVWF  x0A
03F32:  MOVLB  0
03F34:  CALL   3496
03F38:  MOVLW  03
03F3A:  MOVWF  FE9
03F3C:  MOVLB  1
03F3E:  CLRF   xEF
03F40:  CLRF   xEE
03F42:  CLRF   xED
03F44:  MOVFF  1E2,1EC
03F48:  MOVLW  01
03F4A:  MOVWF  xF0
03F4C:  MOVLB  0
03F4E:  BRA    3CF2
03F50:  MOVLW  1F
03F52:  MOVWF  FF6
03F54:  MOVLW  05
03F56:  MOVWF  FF7
03F58:  MOVLW  04
03F5A:  MOVLB  2
03F5C:  MOVWF  x0A
03F5E:  MOVLB  0
03F60:  CALL   3496
.................... if (input(ARRIBA)==0 || input(OOKK)==0 || input(CANCEL)==0) { 
03F64:  BSF    F93.0
03F66:  BTFSS  F81.0
03F68:  BRA    3F76
03F6A:  BSF    F93.2
03F6C:  BTFSS  F81.2
03F6E:  BRA    3F76
03F70:  BSF    F93.3
03F72:  BTFSC  F81.3
03F74:  BRA    3F7C
.................... dentro = false; 
03F76:  MOVLB  1
03F78:  BCF    xEB.0
.................... Rebote = true; 
03F7A:  BSF    35.0
.................... } // si cancel 
03F7C:  MOVLB  1
03F7E:  BRA    3E0E
.................... } // while 
.................... } // if 
03F80:  MOVLB  0
03F82:  GOTO   4C78 (RETURN)
.................... } // fn 
....................  
.................... void Fotocel() { // Configuracion del Umbral de la fotocelda 
....................  
.................... LIMPIARLCD; 
*
0B096:  MOVLW  24
0B098:  MOVWF  FF6
0B09A:  MOVLW  05
0B09C:  MOVWF  FF7
0B09E:  CALL   2F62
.................... restart_wdt(); 
0B0A2:  CLRWDT
.................... int submenu = 0; 
.................... int umbrr; 
0B0A4:  MOVLB  1
0B0A6:  CLRF   xEB
.................... umbrr = Umbral; 
0B0A8:  MOVFF  47,1EC
....................  
.................... while (submenu < 1){ // hasta llenar todo 
0B0AC:  MOVF   xEB,F
0B0AE:  BTFSS  FD8.2
0B0B0:  BRA    B204
....................  
.................... if (input(ARRIBA)==1 && input(ABAJO)==1 && input(OOKK)==1 && input(CANCEL)==1) Rebote = false; // Soltamos las teclas 
0B0B2:  BSF    F93.0
0B0B4:  BTFSS  F81.0
0B0B6:  BRA    B0CC
0B0B8:  BSF    F93.1
0B0BA:  BTFSS  F81.1
0B0BC:  BRA    B0CC
0B0BE:  BSF    F93.2
0B0C0:  BTFSS  F81.2
0B0C2:  BRA    B0CC
0B0C4:  BSF    F93.3
0B0C6:  BTFSS  F81.3
0B0C8:  BRA    B0CC
0B0CA:  BCF    35.0
....................  
.................... if (Rebote == false){ 
0B0CC:  BTFSC  35.0
0B0CE:  BRA    B0DC
.................... if (input(OOKK) == 0){ // si ok, solo sumo 
0B0D0:  BSF    F93.2
0B0D2:  BTFSC  F81.2
0B0D4:  BRA    B0DC
.................... submenu = 1; 
0B0D6:  MOVLW  01
0B0D8:  MOVWF  xEB
.................... Rebote = true; 
0B0DA:  BSF    35.0
.................... } // si ok 
.................... } 
....................  
.................... if (Rebote == false){ 
0B0DC:  BTFSC  35.0
0B0DE:  BRA    B0EC
.................... if (input(CANCEL) == 0){ // si cancel solo resto o salgo con 10 
0B0E0:  BSF    F93.3
0B0E2:  BTFSC  F81.3
0B0E4:  BRA    B0EC
.................... submenu = 2; 
0B0E6:  MOVLW  02
0B0E8:  MOVWF  xEB
.................... Rebote = true; 
0B0EA:  BSF    35.0
.................... } // si cancel 
.................... } 
....................  
.................... if (Rebote == false){ 
0B0EC:  BTFSC  35.0
0B0EE:  BRA    B106
.................... if (input(ABAJO) == 0){ // si abajo 
0B0F0:  BSF    F93.1
0B0F2:  BTFSC  F81.1
0B0F4:  BRA    B106
.................... Rebote = true; 
0B0F6:  BSF    35.0
.................... umbrr = umbrr + 5; 
0B0F8:  MOVLW  05
0B0FA:  ADDWF  xEC,F
.................... if (umbrr > 100) umbrr = 100; 
0B0FC:  MOVF   xEC,W
0B0FE:  SUBLW  64
0B100:  BC    B106
0B102:  MOVLW  64
0B104:  MOVWF  xEC
.................... } // si abajo 
.................... } // si rebote 
....................  
.................... if (Rebote == false){ 
0B106:  BTFSC  35.0
0B108:  BRA    B11E
.................... if (input(ARRIBA) == 0){ // si arriba 
0B10A:  BSF    F93.0
0B10C:  BTFSC  F81.0
0B10E:  BRA    B11E
.................... Rebote = true; 
0B110:  BSF    35.0
.................... umbrr = umbrr - 5; 
0B112:  MOVLW  05
0B114:  SUBWF  xEC,F
.................... if (umbrr > 100) umbrr = 0; 
0B116:  MOVF   xEC,W
0B118:  SUBLW  64
0B11A:  BC    B11E
0B11C:  CLRF   xEC
.................... } // si abajo 
.................... } // si rebote 
....................  
.................... lcd_gotoxy(1,1); 
0B11E:  MOVLW  01
0B120:  MOVLB  2
0B122:  MOVWF  x0E
0B124:  MOVWF  x0F
0B126:  MOVLB  0
0B128:  CALL   2E90
.................... printf(lcd_putc, "= Conf. Fotocelula ="); 
0B12C:  MOVLW  26
0B12E:  MOVWF  FF6
0B130:  MOVLW  05
0B132:  MOVWF  FF7
0B134:  CALL   2F62
.................... lcd_gotoxy(1,2); 
0B138:  MOVLW  01
0B13A:  MOVLB  2
0B13C:  MOVWF  x0E
0B13E:  MOVLW  02
0B140:  MOVWF  x0F
0B142:  MOVLB  0
0B144:  CALL   2E90
.................... printf(lcd_putc, "Seleccione el nivel "); 
0B148:  MOVLW  3C
0B14A:  MOVWF  FF6
0B14C:  MOVLW  05
0B14E:  MOVWF  FF7
0B150:  CALL   2F62
.................... lcd_gotoxy(1,3); 
0B154:  MOVLW  01
0B156:  MOVLB  2
0B158:  MOVWF  x0E
0B15A:  MOVLW  03
0B15C:  MOVWF  x0F
0B15E:  MOVLB  0
0B160:  CALL   2E90
.................... printf(lcd_putc, "del umbral de Sol:  "); 
0B164:  MOVLW  52
0B166:  MOVWF  FF6
0B168:  MOVLW  05
0B16A:  MOVWF  FF7
0B16C:  CALL   2F62
.................... lcd_gotoxy(1,4); 
0B170:  MOVLW  01
0B172:  MOVLB  2
0B174:  MOVWF  x0E
0B176:  MOVLW  04
0B178:  MOVWF  x0F
0B17A:  MOVLB  0
0B17C:  CALL   2E90
.................... //if (submenu == 0){ 
.................... if (bit_test(tiempo1,0)) printf(lcd_putc, "      -~%3u%%        ", umbrr); 
0B180:  BTFSS  48.0
0B182:  BRA    B1CA
0B184:  MOVLW  68
0B186:  MOVWF  FF6
0B188:  MOVLW  05
0B18A:  MOVWF  FF7
0B18C:  MOVLW  08
0B18E:  MOVLB  2
0B190:  MOVWF  x0A
0B192:  MOVLB  0
0B194:  CALL   3496
0B198:  MOVFF  1EC,203
0B19C:  MOVLW  13
0B19E:  MOVLB  2
0B1A0:  MOVWF  x04
0B1A2:  MOVLB  0
0B1A4:  CALL   3692
0B1A8:  MOVLW  25
0B1AA:  MOVLB  2
0B1AC:  MOVWF  x0D
0B1AE:  MOVLB  0
0B1B0:  CALL   2EFA
0B1B4:  MOVLW  75
0B1B6:  MOVWF  FF6
0B1B8:  MOVLW  05
0B1BA:  MOVWF  FF7
0B1BC:  MOVLW  08
0B1BE:  MOVLB  2
0B1C0:  MOVWF  x0A
0B1C2:  MOVLB  0
0B1C4:  CALL   3496
0B1C8:  BRA    B1FE
.................... else printf(lcd_putc, "      -~   %%        "); 
0B1CA:  MOVLW  7E
0B1CC:  MOVWF  FF6
0B1CE:  MOVLW  05
0B1D0:  MOVWF  FF7
0B1D2:  MOVLW  0B
0B1D4:  MOVLB  2
0B1D6:  MOVWF  x0A
0B1D8:  MOVLB  0
0B1DA:  CALL   3496
0B1DE:  MOVLW  25
0B1E0:  MOVLB  2
0B1E2:  MOVWF  x0D
0B1E4:  MOVLB  0
0B1E6:  CALL   2EFA
0B1EA:  MOVLW  8B
0B1EC:  MOVWF  FF6
0B1EE:  MOVLW  05
0B1F0:  MOVWF  FF7
0B1F2:  MOVLW  08
0B1F4:  MOVLB  2
0B1F6:  MOVWF  x0A
0B1F8:  MOVLB  0
0B1FA:  CALL   3496
.................... //} 
.................... restart_wdt(); 
0B1FE:  CLRWDT
0B200:  MOVLB  1
0B202:  BRA    B0AC
.................... } // while 
....................  
.................... if (submenu == 1) { // salimos con OK 
0B204:  DECFSZ xEB,W
0B206:  BRA    B23E
.................... Umbral = umbrr; 
0B208:  MOVFF  1EC,47
.................... write_eeprom(Umbra,Umbral); 
0B20C:  MOVF   FF2,W
0B20E:  MOVWF  00
0B210:  BCF    FF2.7
0B212:  CLRF   FAA
0B214:  MOVLW  0E
0B216:  MOVWF  FA9
0B218:  MOVFF  47,FA8
0B21C:  BCF    FA6.6
0B21E:  BCF    FA6.7
0B220:  BSF    FA6.2
0B222:  MOVLB  F
0B224:  MOVLW  55
0B226:  MOVWF  FA7
0B228:  MOVLW  AA
0B22A:  MOVWF  FA7
0B22C:  BSF    FA6.1
0B22E:  BTFSC  FA6.1
0B230:  BRA    B22E
0B232:  BCF    FA6.2
0B234:  MOVF   00,W
0B236:  IORWF  FF2,F
.................... Menu = 1; 
0B238:  MOVLW  01
0B23A:  MOVWF  28
0B23C:  MOVLB  1
.................... } 
.................... if (submenu == 2) { // salimos con CANCEL 
0B23E:  MOVF   xEB,W
0B240:  SUBLW  02
0B242:  BNZ   B248
.................... //Umbral = umbrr; 
.................... Menu = 63; 
0B244:  MOVLW  3F
0B246:  MOVWF  28
.................... } 
0B248:  MOVLB  0
0B24A:  GOTO   BA4C (RETURN)
.................... } // fn 
....................  
.................... void ALuces(){ // Que luces perteneces a Auto 1 y Auto 2, en LGrupo[] son bits 6 y 7 
....................  
.................... LIMPIARLCD; 
*
093CA:  MOVLW  94
093CC:  MOVWF  FF6
093CE:  MOVLW  05
093D0:  MOVWF  FF7
093D2:  CALL   2F62
.................... int submenu = 33; 
.................... int grupo = 0; 
.................... char Gr1[3]; 
.................... char Gr2[3]; 
093D6:  MOVLW  21
093D8:  MOVLB  1
093DA:  MOVWF  xEB
093DC:  CLRF   xEC
....................  
.................... while (submenu < 95){ //  
093DE:  MOVF   xEB,W
093E0:  SUBLW  5E
093E2:  BTFSS  FD8.0
093E4:  BRA    99FA
....................  
.................... restart_wdt(); 
093E6:  CLRWDT
....................  
.................... if (input(ARRIBA)==1 && input(ABAJO)==1 && input(OOKK)==1 && input(CANCEL)==1) Rebote = false; // Soltamos las teclas 
093E8:  BSF    F93.0
093EA:  BTFSS  F81.0
093EC:  BRA    9402
093EE:  BSF    F93.1
093F0:  BTFSS  F81.1
093F2:  BRA    9402
093F4:  BSF    F93.2
093F6:  BTFSS  F81.2
093F8:  BRA    9402
093FA:  BSF    F93.3
093FC:  BTFSS  F81.3
093FE:  BRA    9402
09400:  BCF    35.0
....................  
.................... if (Rebote == false){ 
09402:  BTFSC  35.0
09404:  BRA    9418
.................... if (input(OOKK) == 0){  
09406:  BSF    F93.2
09408:  BTFSC  F81.2
0940A:  BRA    9418
.................... ++grupo; 
0940C:  INCF   xEC,F
.................... if (grupo == 3) grupo = 0; 
0940E:  MOVF   xEC,W
09410:  SUBLW  03
09412:  BNZ   9416
09414:  CLRF   xEC
.................... rebote = true; 
09416:  BSF    35.0
.................... }//si ok 
.................... }//rebote 
....................  
.................... if (Rebote == false){ 
09418:  BTFSC  35.0
0941A:  BRA    9432
.................... if (input(CANCEL) == 0){  
0941C:  BSF    F93.3
0941E:  BTFSC  F81.3
09420:  BRA    9432
.................... --grupo; 
09422:  DECF   xEC,F
.................... if (grupo == 255) { 
09424:  INCFSZ xEC,W
09426:  BRA    9430
.................... Menu = 53; 
09428:  MOVLW  35
0942A:  MOVWF  28
.................... submenu = 100; 
0942C:  MOVLW  64
0942E:  MOVWF  xEB
.................... } 
.................... rebote = true; 
09430:  BSF    35.0
.................... }// si cancel 
.................... }//rebote 
....................  
.................... if (Rebote == false){ 
09432:  BTFSC  35.0
09434:  BRA    95D4
.................... if (input(ARRIBA) == 0) { // apretamos arriba, entonces resto numero de luz 
09436:  BSF    F93.0
09438:  BTFSC  F81.0
0943A:  BRA    95D4
....................  
.................... if (grupo == 0) { 
0943C:  MOVF   xEC,F
0943E:  BNZ   9490
.................... --submenu; 
09440:  DECF   xEB,F
.................... if (submenu == 32) submenu = 92; 
09442:  MOVF   xEB,W
09444:  SUBLW  20
09446:  BNZ   944C
09448:  MOVLW  5C
0944A:  MOVWF  xEB
.................... long puntero; 
.................... puntero = (long) submenu + 200; 
0944C:  MOVLB  2
0944E:  CLRF   x00
09450:  MOVLW  C8
09452:  MOVLB  1
09454:  ADDWF  xEB,W
09456:  MOVWF  xF3
09458:  MOVLW  00
0945A:  MOVLB  2
0945C:  ADDWFC x00,W
0945E:  MOVLB  1
09460:  MOVWF  xF4
.................... LGrupo[submenu] = read_eeprom(puntero); 
09462:  CLRF   03
09464:  MOVF   xEB,W
09466:  ADDLW  AC
09468:  MOVWF  FE9
0946A:  MOVLW  00
0946C:  ADDWFC 03,W
0946E:  MOVWF  FEA
09470:  MOVFF  FF2,201
09474:  BCF    FF2.7
09476:  MOVFF  1F4,FAA
0947A:  MOVFF  1F3,FA9
0947E:  BCF    FA6.6
09480:  BCF    FA6.7
09482:  BSF    FA6.0
09484:  MOVF   FA8,W
09486:  MOVLB  2
09488:  BTFSC  x01.7
0948A:  BSF    FF2.7
0948C:  MOVWF  FEF
0948E:  MOVLB  1
.................... } 
....................  
.................... if (grupo == 1) { 
09490:  DECFSZ xEC,W
09492:  BRA    9530
.................... if (bit_test(LGrupo[submenu],6)) { 
09494:  CLRF   03
09496:  MOVF   xEB,W
09498:  ADDLW  AC
0949A:  MOVWF  FE9
0949C:  MOVLW  00
0949E:  ADDWFC 03,W
094A0:  MOVWF  FEA
094A2:  MOVFF  FEF,1FF
094A6:  BTFSS  xFF.6
094A8:  BRA    94C2
.................... bit_clear(LGrupo[submenu],6); 
094AA:  CLRF   03
094AC:  MOVF   xEB,W
094AE:  ADDLW  AC
094B0:  MOVWF  01
094B2:  MOVLW  00
094B4:  ADDWFC 03,F
094B6:  MOVFF  01,FE9
094BA:  MOVFF  03,FEA
094BE:  BCF    FEF.6
.................... //Gr1= "NO"; 
.................... } else { 
094C0:  BRA    94D8
.................... bit_set(LGrupo[submenu],6); 
094C2:  CLRF   03
094C4:  MOVF   xEB,W
094C6:  ADDLW  AC
094C8:  MOVWF  01
094CA:  MOVLW  00
094CC:  ADDWFC 03,F
094CE:  MOVFF  01,FE9
094D2:  MOVFF  03,FEA
094D6:  BSF    FEF.6
.................... //Gr1= "SI"; 
.................... } 
.................... long puntero; 
.................... puntero = (long) submenu+200; 
094D8:  MOVLB  2
094DA:  CLRF   x00
094DC:  MOVLW  C8
094DE:  MOVLB  1
094E0:  ADDWF  xEB,W
094E2:  MOVWF  xF5
094E4:  MOVLW  00
094E6:  MOVLB  2
094E8:  ADDWFC x00,W
094EA:  MOVLB  1
094EC:  MOVWF  xF6
.................... write_eeprom(puntero,LGrupo[submenu]); 
094EE:  CLRF   03
094F0:  MOVF   xEB,W
094F2:  ADDLW  AC
094F4:  MOVWF  FE9
094F6:  MOVLW  00
094F8:  ADDWFC 03,W
094FA:  MOVWF  FEA
094FC:  MOVFF  FEF,1FF
09500:  MOVF   FF2,W
09502:  MOVWF  00
09504:  BCF    FF2.7
09506:  MOVFF  1F6,FAA
0950A:  MOVFF  1F5,FA9
0950E:  MOVFF  1FF,FA8
09512:  BCF    FA6.6
09514:  BCF    FA6.7
09516:  BSF    FA6.2
09518:  MOVLB  F
0951A:  MOVLW  55
0951C:  MOVWF  FA7
0951E:  MOVLW  AA
09520:  MOVWF  FA7
09522:  BSF    FA6.1
09524:  BTFSC  FA6.1
09526:  BRA    9524
09528:  BCF    FA6.2
0952A:  MOVF   00,W
0952C:  IORWF  FF2,F
0952E:  MOVLB  1
.................... } 
....................  
.................... if (grupo == 2) { 
09530:  MOVF   xEC,W
09532:  SUBLW  02
09534:  BNZ   95D2
.................... if (bit_test(LGrupo[submenu],7)) { 
09536:  CLRF   03
09538:  MOVF   xEB,W
0953A:  ADDLW  AC
0953C:  MOVWF  FE9
0953E:  MOVLW  00
09540:  ADDWFC 03,W
09542:  MOVWF  FEA
09544:  MOVFF  FEF,1FF
09548:  BTFSS  xFF.7
0954A:  BRA    9564
.................... bit_clear(LGrupo[submenu],7); 
0954C:  CLRF   03
0954E:  MOVF   xEB,W
09550:  ADDLW  AC
09552:  MOVWF  01
09554:  MOVLW  00
09556:  ADDWFC 03,F
09558:  MOVFF  01,FE9
0955C:  MOVFF  03,FEA
09560:  BCF    FEF.7
.................... //Gr2= "NO"; 
.................... } else { 
09562:  BRA    957A
.................... bit_set(LGrupo[submenu],7); 
09564:  CLRF   03
09566:  MOVF   xEB,W
09568:  ADDLW  AC
0956A:  MOVWF  01
0956C:  MOVLW  00
0956E:  ADDWFC 03,F
09570:  MOVFF  01,FE9
09574:  MOVFF  03,FEA
09578:  BSF    FEF.7
.................... //Gr2= "SI"; 
.................... } 
.................... long puntero; 
.................... puntero = (long) submenu+200; 
0957A:  MOVLB  2
0957C:  CLRF   x00
0957E:  MOVLW  C8
09580:  MOVLB  1
09582:  ADDWF  xEB,W
09584:  MOVWF  xF7
09586:  MOVLW  00
09588:  MOVLB  2
0958A:  ADDWFC x00,W
0958C:  MOVLB  1
0958E:  MOVWF  xF8
.................... write_eeprom(puntero,LGrupo[submenu]); 
09590:  CLRF   03
09592:  MOVF   xEB,W
09594:  ADDLW  AC
09596:  MOVWF  FE9
09598:  MOVLW  00
0959A:  ADDWFC 03,W
0959C:  MOVWF  FEA
0959E:  MOVFF  FEF,1FF
095A2:  MOVF   FF2,W
095A4:  MOVWF  00
095A6:  BCF    FF2.7
095A8:  MOVFF  1F8,FAA
095AC:  MOVFF  1F7,FA9
095B0:  MOVFF  1FF,FA8
095B4:  BCF    FA6.6
095B6:  BCF    FA6.7
095B8:  BSF    FA6.2
095BA:  MOVLB  F
095BC:  MOVLW  55
095BE:  MOVWF  FA7
095C0:  MOVLW  AA
095C2:  MOVWF  FA7
095C4:  BSF    FA6.1
095C6:  BTFSC  FA6.1
095C8:  BRA    95C6
095CA:  BCF    FA6.2
095CC:  MOVF   00,W
095CE:  IORWF  FF2,F
095D0:  MOVLB  1
.................... } 
....................  
.................... rebote = true; 
095D2:  BSF    35.0
.................... } // si arriba 
.................... }//rebote 
....................  
.................... if (Rebote == false){ 
095D4:  BTFSC  35.0
095D6:  BRA    9776
.................... if (input(ABAJO) == 0) { // apretamos arriba, entonces resto numero de luz 
095D8:  BSF    F93.1
095DA:  BTFSC  F81.1
095DC:  BRA    9776
....................  
.................... if (grupo == 0) { 
095DE:  MOVF   xEC,F
095E0:  BNZ   9632
.................... ++submenu; 
095E2:  INCF   xEB,F
.................... if (submenu == 94) submenu = 33; 
095E4:  MOVF   xEB,W
095E6:  SUBLW  5E
095E8:  BNZ   95EE
095EA:  MOVLW  21
095EC:  MOVWF  xEB
.................... long puntero; 
.................... puntero = (long) submenu + 200; 
095EE:  MOVLB  2
095F0:  CLRF   x00
095F2:  MOVLW  C8
095F4:  MOVLB  1
095F6:  ADDWF  xEB,W
095F8:  MOVWF  xF9
095FA:  MOVLW  00
095FC:  MOVLB  2
095FE:  ADDWFC x00,W
09600:  MOVLB  1
09602:  MOVWF  xFA
.................... LGrupo[submenu] = read_eeprom(puntero); 
09604:  CLRF   03
09606:  MOVF   xEB,W
09608:  ADDLW  AC
0960A:  MOVWF  FE9
0960C:  MOVLW  00
0960E:  ADDWFC 03,W
09610:  MOVWF  FEA
09612:  MOVFF  FF2,201
09616:  BCF    FF2.7
09618:  MOVFF  1FA,FAA
0961C:  MOVFF  1F9,FA9
09620:  BCF    FA6.6
09622:  BCF    FA6.7
09624:  BSF    FA6.0
09626:  MOVF   FA8,W
09628:  MOVLB  2
0962A:  BTFSC  x01.7
0962C:  BSF    FF2.7
0962E:  MOVWF  FEF
09630:  MOVLB  1
.................... } 
....................  
.................... if (grupo == 1) { 
09632:  DECFSZ xEC,W
09634:  BRA    96D2
.................... if (bit_test(LGrupo[submenu],6)) { 
09636:  CLRF   03
09638:  MOVF   xEB,W
0963A:  ADDLW  AC
0963C:  MOVWF  FE9
0963E:  MOVLW  00
09640:  ADDWFC 03,W
09642:  MOVWF  FEA
09644:  MOVFF  FEF,1FF
09648:  BTFSS  xFF.6
0964A:  BRA    9664
.................... bit_clear(LGrupo[submenu],6); 
0964C:  CLRF   03
0964E:  MOVF   xEB,W
09650:  ADDLW  AC
09652:  MOVWF  01
09654:  MOVLW  00
09656:  ADDWFC 03,F
09658:  MOVFF  01,FE9
0965C:  MOVFF  03,FEA
09660:  BCF    FEF.6
.................... //Gr1= "NO"; 
.................... } else { 
09662:  BRA    967A
.................... bit_set(LGrupo[submenu],6); 
09664:  CLRF   03
09666:  MOVF   xEB,W
09668:  ADDLW  AC
0966A:  MOVWF  01
0966C:  MOVLW  00
0966E:  ADDWFC 03,F
09670:  MOVFF  01,FE9
09674:  MOVFF  03,FEA
09678:  BSF    FEF.6
.................... //Gr1= "SI"; 
.................... } 
.................... long puntero; 
.................... puntero = (long) submenu+200; 
0967A:  MOVLB  2
0967C:  CLRF   x00
0967E:  MOVLW  C8
09680:  MOVLB  1
09682:  ADDWF  xEB,W
09684:  MOVWF  xFB
09686:  MOVLW  00
09688:  MOVLB  2
0968A:  ADDWFC x00,W
0968C:  MOVLB  1
0968E:  MOVWF  xFC
.................... write_eeprom(puntero,LGrupo[submenu]); 
09690:  CLRF   03
09692:  MOVF   xEB,W
09694:  ADDLW  AC
09696:  MOVWF  FE9
09698:  MOVLW  00
0969A:  ADDWFC 03,W
0969C:  MOVWF  FEA
0969E:  MOVFF  FEF,1FF
096A2:  MOVF   FF2,W
096A4:  MOVWF  00
096A6:  BCF    FF2.7
096A8:  MOVFF  1FC,FAA
096AC:  MOVFF  1FB,FA9
096B0:  MOVFF  1FF,FA8
096B4:  BCF    FA6.6
096B6:  BCF    FA6.7
096B8:  BSF    FA6.2
096BA:  MOVLB  F
096BC:  MOVLW  55
096BE:  MOVWF  FA7
096C0:  MOVLW  AA
096C2:  MOVWF  FA7
096C4:  BSF    FA6.1
096C6:  BTFSC  FA6.1
096C8:  BRA    96C6
096CA:  BCF    FA6.2
096CC:  MOVF   00,W
096CE:  IORWF  FF2,F
096D0:  MOVLB  1
.................... } 
....................  
.................... if (grupo == 2) { 
096D2:  MOVF   xEC,W
096D4:  SUBLW  02
096D6:  BNZ   9774
.................... if (bit_test(LGrupo[submenu],7)) { 
096D8:  CLRF   03
096DA:  MOVF   xEB,W
096DC:  ADDLW  AC
096DE:  MOVWF  FE9
096E0:  MOVLW  00
096E2:  ADDWFC 03,W
096E4:  MOVWF  FEA
096E6:  MOVFF  FEF,1FF
096EA:  BTFSS  xFF.7
096EC:  BRA    9706
.................... bit_clear(LGrupo[submenu],7); 
096EE:  CLRF   03
096F0:  MOVF   xEB,W
096F2:  ADDLW  AC
096F4:  MOVWF  01
096F6:  MOVLW  00
096F8:  ADDWFC 03,F
096FA:  MOVFF  01,FE9
096FE:  MOVFF  03,FEA
09702:  BCF    FEF.7
.................... //Gr2= "NO"; 
.................... } else { 
09704:  BRA    971C
.................... bit_set(LGrupo[submenu],7); 
09706:  CLRF   03
09708:  MOVF   xEB,W
0970A:  ADDLW  AC
0970C:  MOVWF  01
0970E:  MOVLW  00
09710:  ADDWFC 03,F
09712:  MOVFF  01,FE9
09716:  MOVFF  03,FEA
0971A:  BSF    FEF.7
.................... //Gr2= "SI"; 
.................... } 
.................... long puntero; 
.................... puntero = (long) submenu+200; 
0971C:  MOVLB  2
0971E:  CLRF   x00
09720:  MOVLW  C8
09722:  MOVLB  1
09724:  ADDWF  xEB,W
09726:  MOVWF  xFD
09728:  MOVLW  00
0972A:  MOVLB  2
0972C:  ADDWFC x00,W
0972E:  MOVLB  1
09730:  MOVWF  xFE
.................... write_eeprom(puntero,LGrupo[submenu]); 
09732:  CLRF   03
09734:  MOVF   xEB,W
09736:  ADDLW  AC
09738:  MOVWF  FE9
0973A:  MOVLW  00
0973C:  ADDWFC 03,W
0973E:  MOVWF  FEA
09740:  MOVFF  FEF,1FF
09744:  MOVF   FF2,W
09746:  MOVWF  00
09748:  BCF    FF2.7
0974A:  MOVFF  1FE,FAA
0974E:  MOVFF  1FD,FA9
09752:  MOVFF  1FF,FA8
09756:  BCF    FA6.6
09758:  BCF    FA6.7
0975A:  BSF    FA6.2
0975C:  MOVLB  F
0975E:  MOVLW  55
09760:  MOVWF  FA7
09762:  MOVLW  AA
09764:  MOVWF  FA7
09766:  BSF    FA6.1
09768:  BTFSC  FA6.1
0976A:  BRA    9768
0976C:  BCF    FA6.2
0976E:  MOVF   00,W
09770:  IORWF  FF2,F
09772:  MOVLB  1
.................... } 
....................  
.................... rebote = true; 
09774:  BSF    35.0
.................... } // si arriba 
.................... }//rebote 
....................  
.................... /////////////////////// LCD /////////////////////// 
.................... if (bit_test(LGrupo[submenu],6)) Gr1 = "SI"; 
09776:  CLRF   03
09778:  MOVF   xEB,W
0977A:  ADDLW  AC
0977C:  MOVWF  FE9
0977E:  MOVLW  00
09780:  ADDWFC 03,W
09782:  MOVWF  FEA
09784:  MOVFF  FEF,1FF
09788:  BTFSS  xFF.6
0978A:  BRA    97AC
0978C:  MOVLW  01
0978E:  MOVWF  FEA
09790:  MOVLW  ED
09792:  MOVWF  FE9
09794:  MOVLW  00
09796:  MOVLB  0
09798:  CALL   018E
0979C:  TBLRD*-
0979E:  TBLRD*+
097A0:  MOVF   FF5,W
097A2:  MOVWF  FEE
097A4:  IORLW  00
097A6:  BNZ   979E
097A8:  BRA    97C8
097AA:  MOVLB  1
.................... else Gr1 = "NO"; 
097AC:  MOVLW  01
097AE:  MOVWF  FEA
097B0:  MOVLW  ED
097B2:  MOVWF  FE9
097B4:  MOVLW  00
097B6:  MOVLB  0
097B8:  CALL   01A2
097BC:  TBLRD*-
097BE:  TBLRD*+
097C0:  MOVF   FF5,W
097C2:  MOVWF  FEE
097C4:  IORLW  00
097C6:  BNZ   97BE
.................... if (bit_test(LGrupo[submenu],7)) Gr2 = "SI"; 
097C8:  CLRF   03
097CA:  MOVLB  1
097CC:  MOVF   xEB,W
097CE:  ADDLW  AC
097D0:  MOVWF  FE9
097D2:  MOVLW  00
097D4:  ADDWFC 03,W
097D6:  MOVWF  FEA
097D8:  MOVFF  FEF,1FF
097DC:  BTFSS  xFF.7
097DE:  BRA    9800
097E0:  MOVLW  01
097E2:  MOVWF  FEA
097E4:  MOVLW  F0
097E6:  MOVWF  FE9
097E8:  MOVLW  00
097EA:  MOVLB  0
097EC:  CALL   018E
097F0:  TBLRD*-
097F2:  TBLRD*+
097F4:  MOVF   FF5,W
097F6:  MOVWF  FEE
097F8:  IORLW  00
097FA:  BNZ   97F2
097FC:  BRA    981C
097FE:  MOVLB  1
.................... else Gr2 = "NO"; 
09800:  MOVLW  01
09802:  MOVWF  FEA
09804:  MOVLW  F0
09806:  MOVWF  FE9
09808:  MOVLW  00
0980A:  MOVLB  0
0980C:  CALL   01A2
09810:  TBLRD*-
09812:  TBLRD*+
09814:  MOVF   FF5,W
09816:  MOVWF  FEE
09818:  IORLW  00
0981A:  BNZ   9812
....................  
.................... lcd_gotoxy(1,1); 
0981C:  MOVLW  01
0981E:  MOVLB  2
09820:  MOVWF  x0E
09822:  MOVWF  x0F
09824:  MOVLB  0
09826:  CALL   2E90
.................... printf(lcd_putc, "= Luces Automatic. ="); 
0982A:  MOVLW  96
0982C:  MOVWF  FF6
0982E:  MOVLW  05
09830:  MOVWF  FF7
09832:  CALL   2F62
....................  
.................... lcd_gotoxy(1,2); 
09836:  MOVLW  01
09838:  MOVLB  2
0983A:  MOVWF  x0E
0983C:  MOVLW  02
0983E:  MOVWF  x0F
09840:  MOVLB  0
09842:  CALL   2E90
.................... if (grupo == 0){ // si grupo 0 
09846:  MOVLB  1
09848:  MOVF   xEC,F
0984A:  BNZ   98A4
.................... if (bit_test(tiempo1,0)) printf(lcd_putc, "Luz #%02u pertenece a:",(submenu-32)); 
0984C:  BTFSS  48.0
0984E:  BRA    9892
09850:  MOVLW  20
09852:  SUBWF  xEB,W
09854:  MOVWF  xFF
09856:  MOVLW  AC
09858:  MOVWF  FF6
0985A:  MOVLW  05
0985C:  MOVWF  FF7
0985E:  MOVLW  05
09860:  MOVLB  2
09862:  MOVWF  x0A
09864:  MOVLB  0
09866:  CALL   3496
0986A:  MOVFF  1FF,203
0986E:  MOVLW  01
09870:  MOVLB  2
09872:  MOVWF  x04
09874:  MOVLB  0
09876:  CALL   3692
0987A:  MOVLW  B5
0987C:  MOVWF  FF6
0987E:  MOVLW  05
09880:  MOVWF  FF7
09882:  MOVLW  0D
09884:  MOVLB  2
09886:  MOVWF  x0A
09888:  MOVLB  0
0988A:  CALL   3496
0988E:  BRA    98A0
09890:  MOVLB  1
.................... else printf(lcd_putc, "Luz     pertenece a:"); 
09892:  MOVLW  C4
09894:  MOVWF  FF6
09896:  MOVLW  05
09898:  MOVWF  FF7
0989A:  MOVLB  0
0989C:  CALL   2F62
.................... } else printf(lcd_putc, "Luz #%02u pertenece a:",(submenu-32)); 
098A0:  BRA    98E2
098A2:  MOVLB  1
098A4:  MOVLW  20
098A6:  SUBWF  xEB,W
098A8:  MOVWF  xFF
098AA:  MOVLW  DA
098AC:  MOVWF  FF6
098AE:  MOVLW  05
098B0:  MOVWF  FF7
098B2:  MOVLW  05
098B4:  MOVLB  2
098B6:  MOVWF  x0A
098B8:  MOVLB  0
098BA:  CALL   3496
098BE:  MOVFF  1FF,203
098C2:  MOVLW  01
098C4:  MOVLB  2
098C6:  MOVWF  x04
098C8:  MOVLB  0
098CA:  CALL   3692
098CE:  MOVLW  E3
098D0:  MOVWF  FF6
098D2:  MOVLW  05
098D4:  MOVWF  FF7
098D6:  MOVLW  0D
098D8:  MOVLB  2
098DA:  MOVWF  x0A
098DC:  MOVLB  0
098DE:  CALL   3496
....................  
.................... lcd_gotoxy(1,3); 
098E2:  MOVLW  01
098E4:  MOVLB  2
098E6:  MOVWF  x0E
098E8:  MOVLW  03
098EA:  MOVWF  x0F
098EC:  MOVLB  0
098EE:  CALL   2E90
.................... if (grupo == 1){ // si grupo 1 
098F2:  MOVLB  1
098F4:  DECFSZ xEC,W
098F6:  BRA    993E
.................... if (bit_test(tiempo1,0)) printf(lcd_putc, "Grupo Auto (1): -%s-",Gr1); 
098F8:  BTFSS  48.0
098FA:  BRA    992C
098FC:  MOVLW  F2
098FE:  MOVWF  FF6
09900:  MOVLW  05
09902:  MOVWF  FF7
09904:  MOVLW  11
09906:  MOVLB  2
09908:  MOVWF  x0A
0990A:  MOVLB  0
0990C:  CALL   3496
09910:  MOVLW  01
09912:  MOVWF  FEA
09914:  MOVLW  ED
09916:  MOVWF  FE9
09918:  CALL   34BE
0991C:  MOVLW  2D
0991E:  MOVLB  2
09920:  MOVWF  x0D
09922:  MOVLB  0
09924:  CALL   2EFA
09928:  BRA    993A
0992A:  MOVLB  1
.................... else printf(lcd_putc, "Grupo Auto (1): -  -"); 
0992C:  MOVLW  08
0992E:  MOVWF  FF6
09930:  MOVLW  06
09932:  MOVWF  FF7
09934:  MOVLB  0
09936:  CALL   2F62
.................... } else printf(lcd_putc, "Grupo Auto (1): -%s-",Gr1); 
0993A:  BRA    996A
0993C:  MOVLB  1
0993E:  MOVLW  1E
09940:  MOVWF  FF6
09942:  MOVLW  06
09944:  MOVWF  FF7
09946:  MOVLW  11
09948:  MOVLB  2
0994A:  MOVWF  x0A
0994C:  MOVLB  0
0994E:  CALL   3496
09952:  MOVLW  01
09954:  MOVWF  FEA
09956:  MOVLW  ED
09958:  MOVWF  FE9
0995A:  CALL   34BE
0995E:  MOVLW  2D
09960:  MOVLB  2
09962:  MOVWF  x0D
09964:  MOVLB  0
09966:  CALL   2EFA
....................  
.................... lcd_gotoxy(1,4); 
0996A:  MOVLW  01
0996C:  MOVLB  2
0996E:  MOVWF  x0E
09970:  MOVLW  04
09972:  MOVWF  x0F
09974:  MOVLB  0
09976:  CALL   2E90
.................... if (grupo == 2){ // si grupo 2 
0997A:  MOVLB  1
0997C:  MOVF   xEC,W
0997E:  SUBLW  02
09980:  BNZ   99C8
.................... if (bit_test(tiempo1,0)) printf(lcd_putc, "Grupo Auto (2): -%s-",Gr2); 
09982:  BTFSS  48.0
09984:  BRA    99B6
09986:  MOVLW  34
09988:  MOVWF  FF6
0998A:  MOVLW  06
0998C:  MOVWF  FF7
0998E:  MOVLW  11
09990:  MOVLB  2
09992:  MOVWF  x0A
09994:  MOVLB  0
09996:  CALL   3496
0999A:  MOVLW  01
0999C:  MOVWF  FEA
0999E:  MOVLW  F0
099A0:  MOVWF  FE9
099A2:  CALL   34BE
099A6:  MOVLW  2D
099A8:  MOVLB  2
099AA:  MOVWF  x0D
099AC:  MOVLB  0
099AE:  CALL   2EFA
099B2:  BRA    99C4
099B4:  MOVLB  1
.................... else printf(lcd_putc, "Grupo Auto (2): -  -"); 
099B6:  MOVLW  4A
099B8:  MOVWF  FF6
099BA:  MOVLW  06
099BC:  MOVWF  FF7
099BE:  MOVLB  0
099C0:  CALL   2F62
.................... } else printf(lcd_putc, "Grupo Auto (2): -%s-",Gr2); 
099C4:  BRA    99F4
099C6:  MOVLB  1
099C8:  MOVLW  60
099CA:  MOVWF  FF6
099CC:  MOVLW  06
099CE:  MOVWF  FF7
099D0:  MOVLW  11
099D2:  MOVLB  2
099D4:  MOVWF  x0A
099D6:  MOVLB  0
099D8:  CALL   3496
099DC:  MOVLW  01
099DE:  MOVWF  FEA
099E0:  MOVLW  F0
099E2:  MOVWF  FE9
099E4:  CALL   34BE
099E8:  MOVLW  2D
099EA:  MOVLB  2
099EC:  MOVWF  x0D
099EE:  MOVLB  0
099F0:  CALL   2EFA
....................  
.................... restart_wdt(); 
099F4:  CLRWDT
099F6:  MOVLB  1
099F8:  BRA    93DE
....................  
.................... } // while 
099FA:  MOVLB  0
099FC:  GOTO   BA2E (RETURN)
.................... } // fn 
....................  
....................  
.................... void AHs(){  // horario de los grupos automaticos 
....................  
.................... LIMPIARLCD; 
*
08D32:  MOVLW  76
08D34:  MOVWF  FF6
08D36:  MOVLW  06
08D38:  MOVWF  FF7
08D3A:  CALL   2F62
.................... int submenu = 1; 
.................... int grupo = 1; 
08D3E:  MOVLW  01
08D40:  MOVLB  1
08D42:  MOVWF  xEB
08D44:  MOVWF  xEC
.................... //GOn[2] 
.................... //GOff[2] 
....................  
.................... while (submenu < 5){ //  
08D46:  MOVF   xEB,W
08D48:  SUBLW  04
08D4A:  BTFSS  FD8.0
08D4C:  BRA    93C4
....................  
.................... restart_wdt(); 
08D4E:  CLRWDT
....................  
.................... if (input(ARRIBA)==1 && input(ABAJO)==1 && input(OOKK)==1 && input(CANCEL)==1) Rebote = false; // Soltamos las teclas 
08D50:  BSF    F93.0
08D52:  BTFSS  F81.0
08D54:  BRA    8D6A
08D56:  BSF    F93.1
08D58:  BTFSS  F81.1
08D5A:  BRA    8D6A
08D5C:  BSF    F93.2
08D5E:  BTFSS  F81.2
08D60:  BRA    8D6A
08D62:  BSF    F93.3
08D64:  BTFSS  F81.3
08D66:  BRA    8D6A
08D68:  BCF    35.0
....................  
.................... if (Rebote == false){ 
08D6A:  BTFSC  35.0
08D6C:  BRA    8D86
.................... if (input(OOKK) == 0){  
08D6E:  BSF    F93.2
08D70:  BTFSC  F81.2
08D72:  BRA    8D86
.................... ++submenu; 
08D74:  INCF   xEB,F
.................... if (submenu == 4){  
08D76:  MOVF   xEB,W
08D78:  SUBLW  04
08D7A:  BNZ   8D84
.................... // Grabamos en eeprom 
.................... //write_eeprom(G1Dias,Gdias[1]); 
.................... Menu = 52; 
08D7C:  MOVLW  34
08D7E:  MOVWF  28
.................... submenu = 100; 
08D80:  MOVLW  64
08D82:  MOVWF  xEB
.................... } 
.................... rebote = true; 
08D84:  BSF    35.0
.................... }//si ok 
.................... }//rebote 
....................  
.................... if (Rebote == false){ 
08D86:  BTFSC  35.0
08D88:  BRA    8DA0
.................... if (input(CANCEL) == 0){  
08D8A:  BSF    F93.3
08D8C:  BTFSC  F81.3
08D8E:  BRA    8DA0
.................... --submenu; 
08D90:  DECF   xEB,F
.................... if (submenu == 0){  
08D92:  MOVF   xEB,F
08D94:  BNZ   8D9E
.................... Menu = 52; 
08D96:  MOVLW  34
08D98:  MOVWF  28
.................... submenu = 100; 
08D9A:  MOVLW  64
08D9C:  MOVWF  xEB
.................... } 
.................... rebote = true; 
08D9E:  BSF    35.0
.................... }//si ok 
.................... }//rebote 
....................  
.................... if (Rebote == false){ 
08DA0:  BTFSC  35.0
08DA2:  BRA    8F48
.................... if (input(ARRIBA) == 0) { // apretamos arriba 
08DA4:  BSF    F93.0
08DA6:  BTFSC  F81.0
08DA8:  BRA    8F48
....................  
....................    if (submenu == 1) { // elegir grupo 
08DAA:  DECFSZ xEB,W
08DAC:  BRA    8DBC
....................       if (grupo == 1) grupo = 2; 
08DAE:  DECFSZ xEC,W
08DB0:  BRA    8DB8
08DB2:  MOVLW  02
08DB4:  MOVWF  xEC
08DB6:  BRA    8DBC
....................       else grupo = 1; 
08DB8:  MOVLW  01
08DBA:  MOVWF  xEC
....................    }  
....................     
....................    if (submenu == 2) { // hora de ON 
08DBC:  MOVF   xEB,W
08DBE:  SUBLW  02
08DC0:  BNZ   8DF8
....................      --GOn[grupo]; 
08DC2:  CLRF   03
08DC4:  MOVF   xEC,W
08DC6:  ADDLW  D9
08DC8:  MOVWF  FE9
08DCA:  MOVLW  01
08DCC:  ADDWFC 03,W
08DCE:  MOVWF  FEA
08DD0:  DECF   FEF,F
....................      if (GOn[grupo] > 24) GOn[grupo] = 24; 
08DD2:  CLRF   03
08DD4:  MOVF   xEC,W
08DD6:  ADDLW  D9
08DD8:  MOVWF  FE9
08DDA:  MOVLW  01
08DDC:  ADDWFC 03,W
08DDE:  MOVWF  FEA
08DE0:  MOVF   FEF,W
08DE2:  SUBLW  18
08DE4:  BC    8DF8
08DE6:  CLRF   03
08DE8:  MOVF   xEC,W
08DEA:  ADDLW  D9
08DEC:  MOVWF  FE9
08DEE:  MOVLW  01
08DF0:  ADDWFC 03,W
08DF2:  MOVWF  FEA
08DF4:  MOVLW  18
08DF6:  MOVWF  FEF
....................    } 
....................     
....................    if (submenu == 3) { // hora de OFF 
08DF8:  MOVF   xEB,W
08DFA:  SUBLW  03
08DFC:  BNZ   8E34
....................      --GOff[grupo]; 
08DFE:  CLRF   03
08E00:  MOVF   xEC,W
08E02:  ADDLW  DC
08E04:  MOVWF  FE9
08E06:  MOVLW  01
08E08:  ADDWFC 03,W
08E0A:  MOVWF  FEA
08E0C:  DECF   FEF,F
....................      if (GOff[grupo] > 24) GOff[grupo] = 24; 
08E0E:  CLRF   03
08E10:  MOVF   xEC,W
08E12:  ADDLW  DC
08E14:  MOVWF  FE9
08E16:  MOVLW  01
08E18:  ADDWFC 03,W
08E1A:  MOVWF  FEA
08E1C:  MOVF   FEF,W
08E1E:  SUBLW  18
08E20:  BC    8E34
08E22:  CLRF   03
08E24:  MOVF   xEC,W
08E26:  ADDLW  DC
08E28:  MOVWF  FE9
08E2A:  MOVLW  01
08E2C:  ADDWFC 03,W
08E2E:  MOVWF  FEA
08E30:  MOVLW  18
08E32:  MOVWF  FEF
....................    } 
.................... rebote = true; 
08E34:  BSF    35.0
.................... write_eeprom(G1On,GOn[1]); 
08E36:  MOVF   FF2,W
08E38:  MOVWF  00
08E3A:  BCF    FF2.7
08E3C:  CLRF   FAA
08E3E:  MOVLW  08
08E40:  MOVWF  FA9
08E42:  MOVFF  1DA,FA8
08E46:  BCF    FA6.6
08E48:  BCF    FA6.7
08E4A:  BSF    FA6.2
08E4C:  MOVLB  F
08E4E:  MOVLW  55
08E50:  MOVWF  FA7
08E52:  MOVLW  AA
08E54:  MOVWF  FA7
08E56:  BSF    FA6.1
08E58:  BTFSC  FA6.1
08E5A:  BRA    8E58
08E5C:  BCF    FA6.2
08E5E:  MOVF   00,W
08E60:  IORWF  FF2,F
08E62:  CLRF   19
08E64:  BTFSC  FF2.7
08E66:  BSF    19.7
08E68:  BCF    FF2.7
.................... delay_ms(2); 
08E6A:  MOVLW  02
08E6C:  MOVLB  2
08E6E:  MOVWF  x20
08E70:  MOVLB  0
08E72:  CALL   1386
08E76:  BTFSC  19.7
08E78:  BSF    FF2.7
.................... write_eeprom(G2On,GOn[2]); 
08E7A:  MOVF   FF2,W
08E7C:  MOVWF  00
08E7E:  BCF    FF2.7
08E80:  CLRF   FAA
08E82:  MOVLW  09
08E84:  MOVWF  FA9
08E86:  MOVFF  1DB,FA8
08E8A:  BCF    FA6.6
08E8C:  BCF    FA6.7
08E8E:  BSF    FA6.2
08E90:  MOVLB  F
08E92:  MOVLW  55
08E94:  MOVWF  FA7
08E96:  MOVLW  AA
08E98:  MOVWF  FA7
08E9A:  BSF    FA6.1
08E9C:  BTFSC  FA6.1
08E9E:  BRA    8E9C
08EA0:  BCF    FA6.2
08EA2:  MOVF   00,W
08EA4:  IORWF  FF2,F
08EA6:  CLRF   19
08EA8:  BTFSC  FF2.7
08EAA:  BSF    19.7
08EAC:  BCF    FF2.7
.................... delay_ms(2); 
08EAE:  MOVLW  02
08EB0:  MOVLB  2
08EB2:  MOVWF  x20
08EB4:  MOVLB  0
08EB6:  CALL   1386
08EBA:  BTFSC  19.7
08EBC:  BSF    FF2.7
.................... write_eeprom(G1Off,GOff[1]); 
08EBE:  MOVF   FF2,W
08EC0:  MOVWF  00
08EC2:  BCF    FF2.7
08EC4:  CLRF   FAA
08EC6:  MOVLW  0A
08EC8:  MOVWF  FA9
08ECA:  MOVFF  1DD,FA8
08ECE:  BCF    FA6.6
08ED0:  BCF    FA6.7
08ED2:  BSF    FA6.2
08ED4:  MOVLB  F
08ED6:  MOVLW  55
08ED8:  MOVWF  FA7
08EDA:  MOVLW  AA
08EDC:  MOVWF  FA7
08EDE:  BSF    FA6.1
08EE0:  BTFSC  FA6.1
08EE2:  BRA    8EE0
08EE4:  BCF    FA6.2
08EE6:  MOVF   00,W
08EE8:  IORWF  FF2,F
08EEA:  CLRF   19
08EEC:  BTFSC  FF2.7
08EEE:  BSF    19.7
08EF0:  BCF    FF2.7
.................... delay_ms(2); 
08EF2:  MOVLW  02
08EF4:  MOVLB  2
08EF6:  MOVWF  x20
08EF8:  MOVLB  0
08EFA:  CALL   1386
08EFE:  BTFSC  19.7
08F00:  BSF    FF2.7
.................... write_eeprom(G2Off,GOff[2]); 
08F02:  MOVF   FF2,W
08F04:  MOVWF  00
08F06:  BCF    FF2.7
08F08:  CLRF   FAA
08F0A:  MOVLW  0B
08F0C:  MOVWF  FA9
08F0E:  MOVFF  1DE,FA8
08F12:  BCF    FA6.6
08F14:  BCF    FA6.7
08F16:  BSF    FA6.2
08F18:  MOVLB  F
08F1A:  MOVLW  55
08F1C:  MOVWF  FA7
08F1E:  MOVLW  AA
08F20:  MOVWF  FA7
08F22:  BSF    FA6.1
08F24:  BTFSC  FA6.1
08F26:  BRA    8F24
08F28:  BCF    FA6.2
08F2A:  MOVF   00,W
08F2C:  IORWF  FF2,F
08F2E:  CLRF   19
08F30:  BTFSC  FF2.7
08F32:  BSF    19.7
08F34:  BCF    FF2.7
.................... delay_ms(2); 
08F36:  MOVLW  02
08F38:  MOVLB  2
08F3A:  MOVWF  x20
08F3C:  MOVLB  0
08F3E:  CALL   1386
08F42:  BTFSC  19.7
08F44:  BSF    FF2.7
08F46:  MOVLB  1
.................... } // si arriba  
.................... }//rebote 
....................  
.................... if (Rebote == false){ 
08F48:  BTFSC  35.0
08F4A:  BRA    90EC
.................... if (input(ABAJO) == 0) { // apretamos arriba 
08F4C:  BSF    F93.1
08F4E:  BTFSC  F81.1
08F50:  BRA    90EC
....................  
....................    if (submenu == 1) { // elegir grupo 
08F52:  DECFSZ xEB,W
08F54:  BRA    8F64
....................       if (grupo == 1) grupo = 2; 
08F56:  DECFSZ xEC,W
08F58:  BRA    8F60
08F5A:  MOVLW  02
08F5C:  MOVWF  xEC
08F5E:  BRA    8F64
....................       else grupo = 1; 
08F60:  MOVLW  01
08F62:  MOVWF  xEC
....................    }  
....................     
....................    if (submenu == 2) { // hora de ON 
08F64:  MOVF   xEB,W
08F66:  SUBLW  02
08F68:  BNZ   8F9E
....................      ++GOn[grupo]; 
08F6A:  CLRF   03
08F6C:  MOVF   xEC,W
08F6E:  ADDLW  D9
08F70:  MOVWF  FE9
08F72:  MOVLW  01
08F74:  ADDWFC 03,W
08F76:  MOVWF  FEA
08F78:  INCF   FEF,F
....................      if (GOn[grupo] > 24) GOn[grupo] = 0; 
08F7A:  CLRF   03
08F7C:  MOVF   xEC,W
08F7E:  ADDLW  D9
08F80:  MOVWF  FE9
08F82:  MOVLW  01
08F84:  ADDWFC 03,W
08F86:  MOVWF  FEA
08F88:  MOVF   FEF,W
08F8A:  SUBLW  18
08F8C:  BC    8F9E
08F8E:  CLRF   03
08F90:  MOVF   xEC,W
08F92:  ADDLW  D9
08F94:  MOVWF  FE9
08F96:  MOVLW  01
08F98:  ADDWFC 03,W
08F9A:  MOVWF  FEA
08F9C:  CLRF   FEF
....................    } 
....................     
....................    if (submenu == 3) { // hora de OFF 
08F9E:  MOVF   xEB,W
08FA0:  SUBLW  03
08FA2:  BNZ   8FD8
....................      ++GOff[grupo]; 
08FA4:  CLRF   03
08FA6:  MOVF   xEC,W
08FA8:  ADDLW  DC
08FAA:  MOVWF  FE9
08FAC:  MOVLW  01
08FAE:  ADDWFC 03,W
08FB0:  MOVWF  FEA
08FB2:  INCF   FEF,F
....................      if (GOff[grupo] > 24) GOff[grupo] = 0; 
08FB4:  CLRF   03
08FB6:  MOVF   xEC,W
08FB8:  ADDLW  DC
08FBA:  MOVWF  FE9
08FBC:  MOVLW  01
08FBE:  ADDWFC 03,W
08FC0:  MOVWF  FEA
08FC2:  MOVF   FEF,W
08FC4:  SUBLW  18
08FC6:  BC    8FD8
08FC8:  CLRF   03
08FCA:  MOVF   xEC,W
08FCC:  ADDLW  DC
08FCE:  MOVWF  FE9
08FD0:  MOVLW  01
08FD2:  ADDWFC 03,W
08FD4:  MOVWF  FEA
08FD6:  CLRF   FEF
....................    } 
.................... rebote = true; 
08FD8:  BSF    35.0
.................... write_eeprom(G1On,GOn[1]); 
08FDA:  MOVF   FF2,W
08FDC:  MOVWF  00
08FDE:  BCF    FF2.7
08FE0:  CLRF   FAA
08FE2:  MOVLW  08
08FE4:  MOVWF  FA9
08FE6:  MOVFF  1DA,FA8
08FEA:  BCF    FA6.6
08FEC:  BCF    FA6.7
08FEE:  BSF    FA6.2
08FF0:  MOVLB  F
08FF2:  MOVLW  55
08FF4:  MOVWF  FA7
08FF6:  MOVLW  AA
08FF8:  MOVWF  FA7
08FFA:  BSF    FA6.1
08FFC:  BTFSC  FA6.1
08FFE:  BRA    8FFC
09000:  BCF    FA6.2
09002:  MOVF   00,W
09004:  IORWF  FF2,F
09006:  CLRF   19
09008:  BTFSC  FF2.7
0900A:  BSF    19.7
0900C:  BCF    FF2.7
.................... delay_ms(2); 
0900E:  MOVLW  02
09010:  MOVLB  2
09012:  MOVWF  x20
09014:  MOVLB  0
09016:  CALL   1386
0901A:  BTFSC  19.7
0901C:  BSF    FF2.7
.................... write_eeprom(G2On,GOn[2]); 
0901E:  MOVF   FF2,W
09020:  MOVWF  00
09022:  BCF    FF2.7
09024:  CLRF   FAA
09026:  MOVLW  09
09028:  MOVWF  FA9
0902A:  MOVFF  1DB,FA8
0902E:  BCF    FA6.6
09030:  BCF    FA6.7
09032:  BSF    FA6.2
09034:  MOVLB  F
09036:  MOVLW  55
09038:  MOVWF  FA7
0903A:  MOVLW  AA
0903C:  MOVWF  FA7
0903E:  BSF    FA6.1
09040:  BTFSC  FA6.1
09042:  BRA    9040
09044:  BCF    FA6.2
09046:  MOVF   00,W
09048:  IORWF  FF2,F
0904A:  CLRF   19
0904C:  BTFSC  FF2.7
0904E:  BSF    19.7
09050:  BCF    FF2.7
.................... delay_ms(2); 
09052:  MOVLW  02
09054:  MOVLB  2
09056:  MOVWF  x20
09058:  MOVLB  0
0905A:  CALL   1386
0905E:  BTFSC  19.7
09060:  BSF    FF2.7
.................... write_eeprom(G1Off,GOff[1]); 
09062:  MOVF   FF2,W
09064:  MOVWF  00
09066:  BCF    FF2.7
09068:  CLRF   FAA
0906A:  MOVLW  0A
0906C:  MOVWF  FA9
0906E:  MOVFF  1DD,FA8
09072:  BCF    FA6.6
09074:  BCF    FA6.7
09076:  BSF    FA6.2
09078:  MOVLB  F
0907A:  MOVLW  55
0907C:  MOVWF  FA7
0907E:  MOVLW  AA
09080:  MOVWF  FA7
09082:  BSF    FA6.1
09084:  BTFSC  FA6.1
09086:  BRA    9084
09088:  BCF    FA6.2
0908A:  MOVF   00,W
0908C:  IORWF  FF2,F
0908E:  CLRF   19
09090:  BTFSC  FF2.7
09092:  BSF    19.7
09094:  BCF    FF2.7
.................... delay_ms(2); 
09096:  MOVLW  02
09098:  MOVLB  2
0909A:  MOVWF  x20
0909C:  MOVLB  0
0909E:  CALL   1386
090A2:  BTFSC  19.7
090A4:  BSF    FF2.7
.................... write_eeprom(G2Off,GOff[2]); 
090A6:  MOVF   FF2,W
090A8:  MOVWF  00
090AA:  BCF    FF2.7
090AC:  CLRF   FAA
090AE:  MOVLW  0B
090B0:  MOVWF  FA9
090B2:  MOVFF  1DE,FA8
090B6:  BCF    FA6.6
090B8:  BCF    FA6.7
090BA:  BSF    FA6.2
090BC:  MOVLB  F
090BE:  MOVLW  55
090C0:  MOVWF  FA7
090C2:  MOVLW  AA
090C4:  MOVWF  FA7
090C6:  BSF    FA6.1
090C8:  BTFSC  FA6.1
090CA:  BRA    90C8
090CC:  BCF    FA6.2
090CE:  MOVF   00,W
090D0:  IORWF  FF2,F
090D2:  CLRF   19
090D4:  BTFSC  FF2.7
090D6:  BSF    19.7
090D8:  BCF    FF2.7
.................... delay_ms(2); 
090DA:  MOVLW  02
090DC:  MOVLB  2
090DE:  MOVWF  x20
090E0:  MOVLB  0
090E2:  CALL   1386
090E6:  BTFSC  19.7
090E8:  BSF    FF2.7
090EA:  MOVLB  1
.................... } // si abajo  
.................... }//rebote 
....................  
....................  
.................... /////////////////////// LCD /////////////////////// 
.................... lcd_gotoxy(1,1); 
090EC:  MOVLW  01
090EE:  MOVLB  2
090F0:  MOVWF  x0E
090F2:  MOVWF  x0F
090F4:  MOVLB  0
090F6:  CALL   2E90
.................... printf(lcd_putc, "=====  Horario ====="); 
090FA:  MOVLW  78
090FC:  MOVWF  FF6
090FE:  MOVLW  06
09100:  MOVWF  FF7
09102:  CALL   2F62
.................... lcd_gotoxy(1,2); 
09106:  MOVLW  01
09108:  MOVLB  2
0910A:  MOVWF  x0E
0910C:  MOVLW  02
0910E:  MOVWF  x0F
09110:  MOVLB  0
09112:  CALL   2E90
.................... if (submenu == 1) { // estamos en grupo 
09116:  MOVLB  1
09118:  DECFSZ xEB,W
0911A:  BRA    9174
.................... if (grupo == 1){ // si grupo 1 
0911C:  DECFSZ xEC,W
0911E:  BRA    9146
.................... if (bit_test(tiempo1,0)) printf(lcd_putc, "  Grupo:  AUTO (1)  "); 
09120:  BTFSS  48.0
09122:  BRA    9136
09124:  MOVLW  8E
09126:  MOVWF  FF6
09128:  MOVLW  06
0912A:  MOVWF  FF7
0912C:  MOVLB  0
0912E:  CALL   2F62
09132:  BRA    9144
09134:  MOVLB  1
.................... else printf(lcd_putc, "  Grupo:            "); 
09136:  MOVLW  A4
09138:  MOVWF  FF6
0913A:  MOVLW  06
0913C:  MOVWF  FF7
0913E:  MOVLB  0
09140:  CALL   2F62
09144:  MOVLB  1
.................... } // si el grupo es 1 
.................... if (grupo == 2){ // si grupo 2 
09146:  MOVF   xEC,W
09148:  SUBLW  02
0914A:  BNZ   9172
.................... if (bit_test(tiempo1,0)) printf(lcd_putc, "  Grupo:  AUTO (2)  "); 
0914C:  BTFSS  48.0
0914E:  BRA    9162
09150:  MOVLW  BA
09152:  MOVWF  FF6
09154:  MOVLW  06
09156:  MOVWF  FF7
09158:  MOVLB  0
0915A:  CALL   2F62
0915E:  BRA    9170
09160:  MOVLB  1
.................... else printf(lcd_putc, "  Grupo:            "); 
09162:  MOVLW  D0
09164:  MOVWF  FF6
09166:  MOVLW  06
09168:  MOVWF  FF7
0916A:  MOVLB  0
0916C:  CALL   2F62
09170:  MOVLB  1
.................... } // si el grupo es 2 
.................... } // grupo 
09172:  BRA    919A
.................... else { 
.................... if (grupo == 1) { 
09174:  DECFSZ xEC,W
09176:  BRA    918A
.................... printf(lcd_putc, "  Grupo:  AUTO (1)  "); 
09178:  MOVLW  E6
0917A:  MOVWF  FF6
0917C:  MOVLW  06
0917E:  MOVWF  FF7
09180:  MOVLB  0
09182:  CALL   2F62
.................... } else printf(lcd_putc, "  Grupo:  AUTO (2)  "); 
09186:  BRA    9198
09188:  MOVLB  1
0918A:  MOVLW  FC
0918C:  MOVWF  FF6
0918E:  MOVLW  06
09190:  MOVWF  FF7
09192:  MOVLB  0
09194:  CALL   2F62
09198:  MOVLB  1
.................... } 
....................  
.................... lcd_gotoxy(1,3); 
0919A:  MOVLW  01
0919C:  MOVLB  2
0919E:  MOVWF  x0E
091A0:  MOVLW  03
091A2:  MOVWF  x0F
091A4:  MOVLB  0
091A6:  CALL   2E90
.................... if (submenu == 2) { // Configurando el horario de encendido 
091AA:  MOVLB  1
091AC:  MOVF   xEB,W
091AE:  SUBLW  02
091B0:  BNZ   923C
.................... if (bit_test(tiempo1,0)) { 
091B2:  BTFSS  48.0
091B4:  BRA    922A
.................... if (GOn[grupo] == 24) printf(lcd_putc, " Encendido: Fotocel "); 
091B6:  CLRF   03
091B8:  MOVF   xEC,W
091BA:  ADDLW  D9
091BC:  MOVWF  FE9
091BE:  MOVLW  01
091C0:  ADDWFC 03,W
091C2:  MOVWF  FEA
091C4:  MOVF   FEF,W
091C6:  SUBLW  18
091C8:  BNZ   91DC
091CA:  MOVLW  12
091CC:  MOVWF  FF6
091CE:  MOVLW  07
091D0:  MOVWF  FF7
091D2:  MOVLB  0
091D4:  CALL   2F62
091D8:  BRA    9226
091DA:  MOVLB  1
.................... else printf(lcd_putc, " Encendido: %02u hs   ",GOn[grupo]); 
091DC:  CLRF   03
091DE:  MOVF   xEC,W
091E0:  ADDLW  D9
091E2:  MOVWF  FE9
091E4:  MOVLW  01
091E6:  ADDWFC 03,W
091E8:  MOVWF  FEA
091EA:  MOVFF  FEF,1ED
091EE:  MOVLW  28
091F0:  MOVWF  FF6
091F2:  MOVLW  07
091F4:  MOVWF  FF7
091F6:  MOVLW  0C
091F8:  MOVLB  2
091FA:  MOVWF  x0A
091FC:  MOVLB  0
091FE:  CALL   3496
09202:  MOVFF  1ED,203
09206:  MOVLW  01
09208:  MOVLB  2
0920A:  MOVWF  x04
0920C:  MOVLB  0
0920E:  CALL   3692
09212:  MOVLW  38
09214:  MOVWF  FF6
09216:  MOVLW  07
09218:  MOVWF  FF7
0921A:  MOVLW  06
0921C:  MOVLB  2
0921E:  MOVWF  x0A
09220:  MOVLB  0
09222:  CALL   3496
.................... } else printf(lcd_putc, " Encendido:         "); 
09226:  BRA    9238
09228:  MOVLB  1
0922A:  MOVLW  40
0922C:  MOVWF  FF6
0922E:  MOVLW  07
09230:  MOVWF  FF7
09232:  MOVLB  0
09234:  CALL   2F62
.................... } else { 
09238:  BRA    92AC
0923A:  MOVLB  1
.................... if (GOn[grupo] == 24) printf(lcd_putc, " Encendido: Fotocel "); 
0923C:  CLRF   03
0923E:  MOVF   xEC,W
09240:  ADDLW  D9
09242:  MOVWF  FE9
09244:  MOVLW  01
09246:  ADDWFC 03,W
09248:  MOVWF  FEA
0924A:  MOVF   FEF,W
0924C:  SUBLW  18
0924E:  BNZ   9262
09250:  MOVLW  56
09252:  MOVWF  FF6
09254:  MOVLW  07
09256:  MOVWF  FF7
09258:  MOVLB  0
0925A:  CALL   2F62
0925E:  BRA    92AC
09260:  MOVLB  1
.................... else printf(lcd_putc, " Encendido: %02u hs   ",GOn[grupo]); 
09262:  CLRF   03
09264:  MOVF   xEC,W
09266:  ADDLW  D9
09268:  MOVWF  FE9
0926A:  MOVLW  01
0926C:  ADDWFC 03,W
0926E:  MOVWF  FEA
09270:  MOVFF  FEF,1ED
09274:  MOVLW  6C
09276:  MOVWF  FF6
09278:  MOVLW  07
0927A:  MOVWF  FF7
0927C:  MOVLW  0C
0927E:  MOVLB  2
09280:  MOVWF  x0A
09282:  MOVLB  0
09284:  CALL   3496
09288:  MOVFF  1ED,203
0928C:  MOVLW  01
0928E:  MOVLB  2
09290:  MOVWF  x04
09292:  MOVLB  0
09294:  CALL   3692
09298:  MOVLW  7C
0929A:  MOVWF  FF6
0929C:  MOVLW  07
0929E:  MOVWF  FF7
092A0:  MOVLW  06
092A2:  MOVLB  2
092A4:  MOVWF  x0A
092A6:  MOVLB  0
092A8:  CALL   3496
.................... } 
....................  
.................... lcd_gotoxy(1,4); 
092AC:  MOVLW  01
092AE:  MOVLB  2
092B0:  MOVWF  x0E
092B2:  MOVLW  04
092B4:  MOVWF  x0F
092B6:  MOVLB  0
092B8:  CALL   2E90
.................... if (submenu == 3) { // Configurando el horario de apagado 
092BC:  MOVLB  1
092BE:  MOVF   xEB,W
092C0:  SUBLW  03
092C2:  BNZ   934E
.................... if (bit_test(tiempo1,0)) { 
092C4:  BTFSS  48.0
092C6:  BRA    933C
.................... if (GOff[grupo] == 24) printf(lcd_putc, " Apagado: Fotocelda "); 
092C8:  CLRF   03
092CA:  MOVF   xEC,W
092CC:  ADDLW  DC
092CE:  MOVWF  FE9
092D0:  MOVLW  01
092D2:  ADDWFC 03,W
092D4:  MOVWF  FEA
092D6:  MOVF   FEF,W
092D8:  SUBLW  18
092DA:  BNZ   92EE
092DC:  MOVLW  84
092DE:  MOVWF  FF6
092E0:  MOVLW  07
092E2:  MOVWF  FF7
092E4:  MOVLB  0
092E6:  CALL   2F62
092EA:  BRA    9338
092EC:  MOVLB  1
.................... else printf(lcd_putc, " Apagado: %02u hs     ",GOff[grupo]); 
092EE:  CLRF   03
092F0:  MOVF   xEC,W
092F2:  ADDLW  DC
092F4:  MOVWF  FE9
092F6:  MOVLW  01
092F8:  ADDWFC 03,W
092FA:  MOVWF  FEA
092FC:  MOVFF  FEF,1ED
09300:  MOVLW  9A
09302:  MOVWF  FF6
09304:  MOVLW  07
09306:  MOVWF  FF7
09308:  MOVLW  0A
0930A:  MOVLB  2
0930C:  MOVWF  x0A
0930E:  MOVLB  0
09310:  CALL   3496
09314:  MOVFF  1ED,203
09318:  MOVLW  01
0931A:  MOVLB  2
0931C:  MOVWF  x04
0931E:  MOVLB  0
09320:  CALL   3692
09324:  MOVLW  A8
09326:  MOVWF  FF6
09328:  MOVLW  07
0932A:  MOVWF  FF7
0932C:  MOVLW  08
0932E:  MOVLB  2
09330:  MOVWF  x0A
09332:  MOVLB  0
09334:  CALL   3496
.................... } else printf(lcd_putc, " Apagado:           "); 
09338:  BRA    934A
0933A:  MOVLB  1
0933C:  MOVLW  B2
0933E:  MOVWF  FF6
09340:  MOVLW  07
09342:  MOVWF  FF7
09344:  MOVLB  0
09346:  CALL   2F62
.................... } else { 
0934A:  BRA    93BE
0934C:  MOVLB  1
.................... if (GOff[grupo] == 24) printf(lcd_putc, " Apagado: Fotocelda "); 
0934E:  CLRF   03
09350:  MOVF   xEC,W
09352:  ADDLW  DC
09354:  MOVWF  FE9
09356:  MOVLW  01
09358:  ADDWFC 03,W
0935A:  MOVWF  FEA
0935C:  MOVF   FEF,W
0935E:  SUBLW  18
09360:  BNZ   9374
09362:  MOVLW  C8
09364:  MOVWF  FF6
09366:  MOVLW  07
09368:  MOVWF  FF7
0936A:  MOVLB  0
0936C:  CALL   2F62
09370:  BRA    93BE
09372:  MOVLB  1
.................... else printf(lcd_putc, " Apagado: %02u hs     ",GOff[grupo]); 
09374:  CLRF   03
09376:  MOVF   xEC,W
09378:  ADDLW  DC
0937A:  MOVWF  FE9
0937C:  MOVLW  01
0937E:  ADDWFC 03,W
09380:  MOVWF  FEA
09382:  MOVFF  FEF,1ED
09386:  MOVLW  DE
09388:  MOVWF  FF6
0938A:  MOVLW  07
0938C:  MOVWF  FF7
0938E:  MOVLW  0A
09390:  MOVLB  2
09392:  MOVWF  x0A
09394:  MOVLB  0
09396:  CALL   3496
0939A:  MOVFF  1ED,203
0939E:  MOVLW  01
093A0:  MOVLB  2
093A2:  MOVWF  x04
093A4:  MOVLB  0
093A6:  CALL   3692
093AA:  MOVLW  EC
093AC:  MOVWF  FF6
093AE:  MOVLW  07
093B0:  MOVWF  FF7
093B2:  MOVLW  08
093B4:  MOVLB  2
093B6:  MOVWF  x0A
093B8:  MOVLB  0
093BA:  CALL   3496
.................... } 
.................... restart_wdt(); 
093BE:  CLRWDT
093C0:  MOVLB  1
093C2:  BRA    8D46
.................... } // while 
093C4:  MOVLB  0
093C6:  GOTO   BA24 (RETURN)
.................... } // fn 
....................  
....................  
.................... void ADias(){ 
....................  
.................... LIMPIARLCD; 
*
084FA:  MOVLW  F6
084FC:  MOVWF  FF6
084FE:  MOVLW  07
08500:  MOVWF  FF7
08502:  CALL   2F62
.................... char Lun[4]; 
.................... char Mar[4]; 
.................... char Mie[5]; 
.................... char Jue[4]; 
.................... char Vie[4]; 
.................... char Sab[4]; 
.................... char Dom[4]; 
....................  
.................... int submenu = 0; 
.................... int grupo = 1; 
08506:  MOVLB  2
08508:  CLRF   x08
0850A:  MOVLW  01
0850C:  MOVWF  x09
....................  
.................... while (submenu < 9){ // hasta llenar todas las luces 
0850E:  MOVF   x08,W
08510:  SUBLW  08
08512:  BTFSS  FD8.0
08514:  GOTO   8D04
....................  
.................... if (grupo == 1) { 
08518:  DECFSZ x09,W
0851A:  BRA    86E8
.................... if (bit_test(Gdias[1],1)){ // Lunes grupo 1 verdadero 
0851C:  MOVLB  1
0851E:  BTFSS  xE0.1
08520:  BRA    8542
.................... Lun = "Lun"; 
08522:  MOVLW  01
08524:  MOVWF  FEA
08526:  MOVLW  EB
08528:  MOVWF  FE9
0852A:  MOVLW  00
0852C:  MOVLB  0
0852E:  CALL   01B6
08532:  TBLRD*-
08534:  TBLRD*+
08536:  MOVF   FF5,W
08538:  MOVWF  FEE
0853A:  IORLW  00
0853C:  BNZ   8534
.................... } else { // Lunes es falso 
0853E:  BRA    855E
08540:  MOVLB  1
.................... Lun = " X "; 
08542:  MOVLW  01
08544:  MOVWF  FEA
08546:  MOVLW  EB
08548:  MOVWF  FE9
0854A:  MOVLW  00
0854C:  MOVLB  0
0854E:  CALL   01CA
08552:  TBLRD*-
08554:  TBLRD*+
08556:  MOVF   FF5,W
08558:  MOVWF  FEE
0855A:  IORLW  00
0855C:  BNZ   8554
.................... } // Lunes falso 
.................... if (bit_test(Gdias[1],2)){ // Martes grupo 1 verdadero 
0855E:  MOVLB  1
08560:  BTFSS  xE0.2
08562:  BRA    8584
.................... Mar = "Mar"; 
08564:  MOVLW  01
08566:  MOVWF  FEA
08568:  MOVLW  EF
0856A:  MOVWF  FE9
0856C:  MOVLW  00
0856E:  MOVLB  0
08570:  CALL   01DE
08574:  TBLRD*-
08576:  TBLRD*+
08578:  MOVF   FF5,W
0857A:  MOVWF  FEE
0857C:  IORLW  00
0857E:  BNZ   8576
.................... } else { // Lunes es falso 
08580:  BRA    85A0
08582:  MOVLB  1
.................... Mar = " X "; 
08584:  MOVLW  01
08586:  MOVWF  FEA
08588:  MOVLW  EF
0858A:  MOVWF  FE9
0858C:  MOVLW  00
0858E:  MOVLB  0
08590:  CALL   01CA
08594:  TBLRD*-
08596:  TBLRD*+
08598:  MOVF   FF5,W
0859A:  MOVWF  FEE
0859C:  IORLW  00
0859E:  BNZ   8596
.................... } // Lunes falso 
.................... if (bit_test(Gdias[1],3)){ // Miercoles grupo 1 verdadero 
085A0:  MOVLB  1
085A2:  BTFSS  xE0.3
085A4:  BRA    85C6
.................... Mie = "Mier"; 
085A6:  MOVLW  01
085A8:  MOVWF  FEA
085AA:  MOVLW  F3
085AC:  MOVWF  FE9
085AE:  MOVLW  00
085B0:  MOVLB  0
085B2:  CALL   01F2
085B6:  TBLRD*-
085B8:  TBLRD*+
085BA:  MOVF   FF5,W
085BC:  MOVWF  FEE
085BE:  IORLW  00
085C0:  BNZ   85B8
.................... } else { // Lunes es falso 
085C2:  BRA    85E2
085C4:  MOVLB  1
.................... Mie = " X  "; 
085C6:  MOVLW  01
085C8:  MOVWF  FEA
085CA:  MOVLW  F3
085CC:  MOVWF  FE9
085CE:  MOVLW  00
085D0:  MOVLB  0
085D2:  CALL   0208
085D6:  TBLRD*-
085D8:  TBLRD*+
085DA:  MOVF   FF5,W
085DC:  MOVWF  FEE
085DE:  IORLW  00
085E0:  BNZ   85D8
.................... } // Lunes falso 
.................... if (bit_test(Gdias[1],4)){ // Jueves grupo 1 verdadero 
085E2:  MOVLB  1
085E4:  BTFSS  xE0.4
085E6:  BRA    8608
.................... Jue = "Jue"; 
085E8:  MOVLW  01
085EA:  MOVWF  FEA
085EC:  MOVLW  F8
085EE:  MOVWF  FE9
085F0:  MOVLW  00
085F2:  MOVLB  0
085F4:  CALL   021E
085F8:  TBLRD*-
085FA:  TBLRD*+
085FC:  MOVF   FF5,W
085FE:  MOVWF  FEE
08600:  IORLW  00
08602:  BNZ   85FA
.................... } else { // Lunes es falso 
08604:  BRA    8624
08606:  MOVLB  1
.................... Jue = " X "; 
08608:  MOVLW  01
0860A:  MOVWF  FEA
0860C:  MOVLW  F8
0860E:  MOVWF  FE9
08610:  MOVLW  00
08612:  MOVLB  0
08614:  CALL   01CA
08618:  TBLRD*-
0861A:  TBLRD*+
0861C:  MOVF   FF5,W
0861E:  MOVWF  FEE
08620:  IORLW  00
08622:  BNZ   861A
.................... } // Lunes falso 
.................... if (bit_test(Gdias[1],5)){ // Viernes grupo 1 verdadero 
08624:  MOVLB  1
08626:  BTFSS  xE0.5
08628:  BRA    864A
.................... Vie = "Vie"; 
0862A:  MOVLW  01
0862C:  MOVWF  FEA
0862E:  MOVLW  FC
08630:  MOVWF  FE9
08632:  MOVLW  00
08634:  MOVLB  0
08636:  CALL   0232
0863A:  TBLRD*-
0863C:  TBLRD*+
0863E:  MOVF   FF5,W
08640:  MOVWF  FEE
08642:  IORLW  00
08644:  BNZ   863C
.................... } else { // Lunes es falso 
08646:  BRA    8666
08648:  MOVLB  1
.................... Vie = " X "; 
0864A:  MOVLW  01
0864C:  MOVWF  FEA
0864E:  MOVLW  FC
08650:  MOVWF  FE9
08652:  MOVLW  00
08654:  MOVLB  0
08656:  CALL   01CA
0865A:  TBLRD*-
0865C:  TBLRD*+
0865E:  MOVF   FF5,W
08660:  MOVWF  FEE
08662:  IORLW  00
08664:  BNZ   865C
.................... } // Lunes falso 
.................... if (bit_test(Gdias[1],6)){ // Sabado grupo 1 verdadero 
08666:  MOVLB  1
08668:  BTFSS  xE0.6
0866A:  BRA    868A
.................... Sab = "Sab"; 
0866C:  MOVLW  02
0866E:  MOVWF  FEA
08670:  CLRF   FE9
08672:  MOVLW  00
08674:  MOVLB  0
08676:  CALL   0246
0867A:  TBLRD*-
0867C:  TBLRD*+
0867E:  MOVF   FF5,W
08680:  MOVWF  FEE
08682:  IORLW  00
08684:  BNZ   867C
.................... } else { // Lunes es falso 
08686:  BRA    86A4
08688:  MOVLB  1
.................... Sab = " X "; 
0868A:  MOVLW  02
0868C:  MOVWF  FEA
0868E:  CLRF   FE9
08690:  MOVLW  00
08692:  MOVLB  0
08694:  CALL   01CA
08698:  TBLRD*-
0869A:  TBLRD*+
0869C:  MOVF   FF5,W
0869E:  MOVWF  FEE
086A0:  IORLW  00
086A2:  BNZ   869A
.................... } // Lunes falso 
.................... if (bit_test(Gdias[1],7)){ // Domingo grupo 1 verdadero 
086A4:  MOVLB  1
086A6:  BTFSS  xE0.7
086A8:  BRA    86CA
.................... Dom = "Dom"; 
086AA:  MOVLW  02
086AC:  MOVWF  FEA
086AE:  MOVLW  04
086B0:  MOVWF  FE9
086B2:  MOVLW  00
086B4:  MOVLB  0
086B6:  CALL   025A
086BA:  TBLRD*-
086BC:  TBLRD*+
086BE:  MOVF   FF5,W
086C0:  MOVWF  FEE
086C2:  IORLW  00
086C4:  BNZ   86BC
.................... } else { // Lunes es falso 
086C6:  BRA    86E6
086C8:  MOVLB  1
.................... Dom = " X "; 
086CA:  MOVLW  02
086CC:  MOVWF  FEA
086CE:  MOVLW  04
086D0:  MOVWF  FE9
086D2:  MOVLW  00
086D4:  MOVLB  0
086D6:  CALL   01CA
086DA:  TBLRD*-
086DC:  TBLRD*+
086DE:  MOVF   FF5,W
086E0:  MOVWF  FEE
086E2:  IORLW  00
086E4:  BNZ   86DC
086E6:  MOVLB  2
.................... } // Lunes falso 
.................... } // grupo es 1 
....................  
.................... if (grupo == 2) { 
086E8:  MOVF   x09,W
086EA:  SUBLW  02
086EC:  BTFSS  FD8.2
086EE:  BRA    88BC
.................... if (bit_test(Gdias[2],1)){ // Lunes grupo 1 verdadero 
086F0:  MOVLB  1
086F2:  BTFSS  xE1.1
086F4:  BRA    8716
.................... Lun = "Lun"; 
086F6:  MOVLW  01
086F8:  MOVWF  FEA
086FA:  MOVLW  EB
086FC:  MOVWF  FE9
086FE:  MOVLW  00
08700:  MOVLB  0
08702:  CALL   01B6
08706:  TBLRD*-
08708:  TBLRD*+
0870A:  MOVF   FF5,W
0870C:  MOVWF  FEE
0870E:  IORLW  00
08710:  BNZ   8708
.................... } else { // Lunes es falso 
08712:  BRA    8732
08714:  MOVLB  1
.................... Lun = " X "; 
08716:  MOVLW  01
08718:  MOVWF  FEA
0871A:  MOVLW  EB
0871C:  MOVWF  FE9
0871E:  MOVLW  00
08720:  MOVLB  0
08722:  CALL   01CA
08726:  TBLRD*-
08728:  TBLRD*+
0872A:  MOVF   FF5,W
0872C:  MOVWF  FEE
0872E:  IORLW  00
08730:  BNZ   8728
.................... } // Lunes falso 
.................... if (bit_test(Gdias[2],2)){ // Martes grupo 1 verdadero 
08732:  MOVLB  1
08734:  BTFSS  xE1.2
08736:  BRA    8758
.................... Mar = "Mar"; 
08738:  MOVLW  01
0873A:  MOVWF  FEA
0873C:  MOVLW  EF
0873E:  MOVWF  FE9
08740:  MOVLW  00
08742:  MOVLB  0
08744:  CALL   01DE
08748:  TBLRD*-
0874A:  TBLRD*+
0874C:  MOVF   FF5,W
0874E:  MOVWF  FEE
08750:  IORLW  00
08752:  BNZ   874A
.................... } else { // Lunes es falso 
08754:  BRA    8774
08756:  MOVLB  1
.................... Mar = " X "; 
08758:  MOVLW  01
0875A:  MOVWF  FEA
0875C:  MOVLW  EF
0875E:  MOVWF  FE9
08760:  MOVLW  00
08762:  MOVLB  0
08764:  CALL   01CA
08768:  TBLRD*-
0876A:  TBLRD*+
0876C:  MOVF   FF5,W
0876E:  MOVWF  FEE
08770:  IORLW  00
08772:  BNZ   876A
.................... } // Lunes falso 
.................... if (bit_test(Gdias[2],3)){ // Miercoles grupo 1 verdadero 
08774:  MOVLB  1
08776:  BTFSS  xE1.3
08778:  BRA    879A
.................... Mie = "Mier"; 
0877A:  MOVLW  01
0877C:  MOVWF  FEA
0877E:  MOVLW  F3
08780:  MOVWF  FE9
08782:  MOVLW  00
08784:  MOVLB  0
08786:  CALL   01F2
0878A:  TBLRD*-
0878C:  TBLRD*+
0878E:  MOVF   FF5,W
08790:  MOVWF  FEE
08792:  IORLW  00
08794:  BNZ   878C
.................... } else { // Lunes es falso 
08796:  BRA    87B6
08798:  MOVLB  1
.................... Mie = " X  "; 
0879A:  MOVLW  01
0879C:  MOVWF  FEA
0879E:  MOVLW  F3
087A0:  MOVWF  FE9
087A2:  MOVLW  00
087A4:  MOVLB  0
087A6:  CALL   0208
087AA:  TBLRD*-
087AC:  TBLRD*+
087AE:  MOVF   FF5,W
087B0:  MOVWF  FEE
087B2:  IORLW  00
087B4:  BNZ   87AC
.................... } // Lunes falso 
.................... if (bit_test(Gdias[2],4)){ // Jueves grupo 1 verdadero 
087B6:  MOVLB  1
087B8:  BTFSS  xE1.4
087BA:  BRA    87DC
.................... Jue = "Jue"; 
087BC:  MOVLW  01
087BE:  MOVWF  FEA
087C0:  MOVLW  F8
087C2:  MOVWF  FE9
087C4:  MOVLW  00
087C6:  MOVLB  0
087C8:  CALL   021E
087CC:  TBLRD*-
087CE:  TBLRD*+
087D0:  MOVF   FF5,W
087D2:  MOVWF  FEE
087D4:  IORLW  00
087D6:  BNZ   87CE
.................... } else { // Lunes es falso 
087D8:  BRA    87F8
087DA:  MOVLB  1
.................... Jue = " X "; 
087DC:  MOVLW  01
087DE:  MOVWF  FEA
087E0:  MOVLW  F8
087E2:  MOVWF  FE9
087E4:  MOVLW  00
087E6:  MOVLB  0
087E8:  CALL   01CA
087EC:  TBLRD*-
087EE:  TBLRD*+
087F0:  MOVF   FF5,W
087F2:  MOVWF  FEE
087F4:  IORLW  00
087F6:  BNZ   87EE
.................... } // Lunes falso 
.................... if (bit_test(Gdias[2],5)){ // Viernes grupo 1 verdadero 
087F8:  MOVLB  1
087FA:  BTFSS  xE1.5
087FC:  BRA    881E
.................... Vie = "Vie"; 
087FE:  MOVLW  01
08800:  MOVWF  FEA
08802:  MOVLW  FC
08804:  MOVWF  FE9
08806:  MOVLW  00
08808:  MOVLB  0
0880A:  CALL   0232
0880E:  TBLRD*-
08810:  TBLRD*+
08812:  MOVF   FF5,W
08814:  MOVWF  FEE
08816:  IORLW  00
08818:  BNZ   8810
.................... } else { // Lunes es falso 
0881A:  BRA    883A
0881C:  MOVLB  1
.................... Vie = " X "; 
0881E:  MOVLW  01
08820:  MOVWF  FEA
08822:  MOVLW  FC
08824:  MOVWF  FE9
08826:  MOVLW  00
08828:  MOVLB  0
0882A:  CALL   01CA
0882E:  TBLRD*-
08830:  TBLRD*+
08832:  MOVF   FF5,W
08834:  MOVWF  FEE
08836:  IORLW  00
08838:  BNZ   8830
.................... } // Lunes falso 
.................... if (bit_test(Gdias[2],6)){ // Sabado grupo 1 verdadero 
0883A:  MOVLB  1
0883C:  BTFSS  xE1.6
0883E:  BRA    885E
.................... Sab = "Sab"; 
08840:  MOVLW  02
08842:  MOVWF  FEA
08844:  CLRF   FE9
08846:  MOVLW  00
08848:  MOVLB  0
0884A:  CALL   0246
0884E:  TBLRD*-
08850:  TBLRD*+
08852:  MOVF   FF5,W
08854:  MOVWF  FEE
08856:  IORLW  00
08858:  BNZ   8850
.................... } else { // Lunes es falso 
0885A:  BRA    8878
0885C:  MOVLB  1
.................... Sab = " X "; 
0885E:  MOVLW  02
08860:  MOVWF  FEA
08862:  CLRF   FE9
08864:  MOVLW  00
08866:  MOVLB  0
08868:  CALL   01CA
0886C:  TBLRD*-
0886E:  TBLRD*+
08870:  MOVF   FF5,W
08872:  MOVWF  FEE
08874:  IORLW  00
08876:  BNZ   886E
.................... } // Lunes falso 
.................... if (bit_test(Gdias[2],7)){ // Domingo grupo 1 verdadero 
08878:  MOVLB  1
0887A:  BTFSS  xE1.7
0887C:  BRA    889E
.................... Dom = "Dom"; 
0887E:  MOVLW  02
08880:  MOVWF  FEA
08882:  MOVLW  04
08884:  MOVWF  FE9
08886:  MOVLW  00
08888:  MOVLB  0
0888A:  CALL   025A
0888E:  TBLRD*-
08890:  TBLRD*+
08892:  MOVF   FF5,W
08894:  MOVWF  FEE
08896:  IORLW  00
08898:  BNZ   8890
.................... } else { // Lunes es falso 
0889A:  BRA    88BA
0889C:  MOVLB  1
.................... Dom = " X "; 
0889E:  MOVLW  02
088A0:  MOVWF  FEA
088A2:  MOVLW  04
088A4:  MOVWF  FE9
088A6:  MOVLW  00
088A8:  MOVLB  0
088AA:  CALL   01CA
088AE:  TBLRD*-
088B0:  TBLRD*+
088B2:  MOVF   FF5,W
088B4:  MOVWF  FEE
088B6:  IORLW  00
088B8:  BNZ   88B0
088BA:  MOVLB  2
.................... } // Lunes falso 
.................... } // grupo es 2 
....................  
.................... if (bit_test(tiempo1,0)) { 
088BC:  BTFSS  48.0
088BE:  BRA    89A4
.................... switch (submenu){ 
088C0:  MOVLW  01
088C2:  SUBWF  x08,W
088C4:  ADDLW  F9
088C6:  BTFSC  FD8.0
088C8:  BRA    89A4
088CA:  ADDLW  07
088CC:  MOVLB  0
088CE:  GOTO   8D0A
....................    case 1: 
....................       Lun = "   "; 
088D2:  MOVLW  01
088D4:  MOVWF  FEA
088D6:  MOVLW  EB
088D8:  MOVWF  FE9
088DA:  MOVLW  00
088DC:  CALL   026E
088E0:  TBLRD*-
088E2:  TBLRD*+
088E4:  MOVF   FF5,W
088E6:  MOVWF  FEE
088E8:  IORLW  00
088EA:  BNZ   88E2
....................    break; 
088EC:  MOVLB  2
088EE:  BRA    89A4
....................     
....................    case 2: 
....................       Mar = "   "; 
088F0:  MOVLW  01
088F2:  MOVWF  FEA
088F4:  MOVLW  EF
088F6:  MOVWF  FE9
088F8:  MOVLW  00
088FA:  CALL   026E
088FE:  TBLRD*-
08900:  TBLRD*+
08902:  MOVF   FF5,W
08904:  MOVWF  FEE
08906:  IORLW  00
08908:  BNZ   8900
....................    break; 
0890A:  MOVLB  2
0890C:  BRA    89A4
....................     
....................    case 3: 
....................       Mie = "    "; 
0890E:  MOVLW  01
08910:  MOVWF  FEA
08912:  MOVLW  F3
08914:  MOVWF  FE9
08916:  MOVLW  00
08918:  CALL   0282
0891C:  TBLRD*-
0891E:  TBLRD*+
08920:  MOVF   FF5,W
08922:  MOVWF  FEE
08924:  IORLW  00
08926:  BNZ   891E
....................    break; 
08928:  MOVLB  2
0892A:  BRA    89A4
....................     
....................    case 4: 
....................       Jue = "   "; 
0892C:  MOVLW  01
0892E:  MOVWF  FEA
08930:  MOVLW  F8
08932:  MOVWF  FE9
08934:  MOVLW  00
08936:  CALL   026E
0893A:  TBLRD*-
0893C:  TBLRD*+
0893E:  MOVF   FF5,W
08940:  MOVWF  FEE
08942:  IORLW  00
08944:  BNZ   893C
....................    break; 
08946:  MOVLB  2
08948:  BRA    89A4
....................     
....................    case 5: 
....................       Vie = "   "; 
0894A:  MOVLW  01
0894C:  MOVWF  FEA
0894E:  MOVLW  FC
08950:  MOVWF  FE9
08952:  MOVLW  00
08954:  CALL   026E
08958:  TBLRD*-
0895A:  TBLRD*+
0895C:  MOVF   FF5,W
0895E:  MOVWF  FEE
08960:  IORLW  00
08962:  BNZ   895A
....................    break; 
08964:  MOVLB  2
08966:  BRA    89A4
....................     
....................    case 6: 
....................       Sab = "   "; 
08968:  MOVLW  02
0896A:  MOVWF  FEA
0896C:  CLRF   FE9
0896E:  MOVLW  00
08970:  CALL   026E
08974:  TBLRD*-
08976:  TBLRD*+
08978:  MOVF   FF5,W
0897A:  MOVWF  FEE
0897C:  IORLW  00
0897E:  BNZ   8976
....................    break; 
08980:  MOVLB  2
08982:  BRA    89A4
....................     
....................    case 7: 
....................       Dom = "   "; 
08984:  MOVLW  02
08986:  MOVWF  FEA
08988:  MOVLW  04
0898A:  MOVWF  FE9
0898C:  MOVLW  00
0898E:  CALL   026E
08992:  TBLRD*-
08994:  TBLRD*+
08996:  MOVF   FF5,W
08998:  MOVWF  FEE
0899A:  IORLW  00
0899C:  BNZ   8994
....................    break; 
0899E:  MOVLB  2
089A0:  BRA    89A4
089A2:  MOVLB  2
.................... } //sw 
.................... } // bit test 
....................  
.................... restart_wdt(); 
089A4:  CLRWDT
....................  
.................... if (input(ARRIBA)==1 && input(ABAJO)==1 && input(OOKK)==1 && input(CANCEL)==1) Rebote = false; // Soltamos las teclas 
089A6:  BSF    F93.0
089A8:  BTFSS  F81.0
089AA:  BRA    89C0
089AC:  BSF    F93.1
089AE:  BTFSS  F81.1
089B0:  BRA    89C0
089B2:  BSF    F93.2
089B4:  BTFSS  F81.2
089B6:  BRA    89C0
089B8:  BSF    F93.3
089BA:  BTFSS  F81.3
089BC:  BRA    89C0
089BE:  BCF    35.0
....................  
.................... if (Rebote == false){ 
089C0:  BTFSC  35.0
089C2:  BRA    8A34
.................... if (input(OOKK) == 0){  
089C4:  BSF    F93.2
089C6:  BTFSC  F81.2
089C8:  BRA    8A34
.................... ++submenu; 
089CA:  INCF   x08,F
.................... if (submenu == 8){  
089CC:  MOVF   x08,W
089CE:  SUBLW  08
089D0:  BNZ   8A32
.................... // Grabamos en eeprom 
.................... write_eeprom(G1Dias,Gdias[1]); 
089D2:  MOVF   FF2,W
089D4:  MOVWF  00
089D6:  BCF    FF2.7
089D8:  CLRF   FAA
089DA:  MOVLW  0C
089DC:  MOVWF  FA9
089DE:  MOVFF  1E0,FA8
089E2:  BCF    FA6.6
089E4:  BCF    FA6.7
089E6:  BSF    FA6.2
089E8:  MOVLB  F
089EA:  MOVLW  55
089EC:  MOVWF  FA7
089EE:  MOVLW  AA
089F0:  MOVWF  FA7
089F2:  BSF    FA6.1
089F4:  BTFSC  FA6.1
089F6:  BRA    89F4
089F8:  BCF    FA6.2
089FA:  MOVF   00,W
089FC:  IORWF  FF2,F
.................... write_eeprom(G2Dias,Gdias[2]); 
089FE:  MOVFF  FF2,00
08A02:  BCF    FF2.7
08A04:  CLRF   FAA
08A06:  MOVLW  0D
08A08:  MOVWF  FA9
08A0A:  MOVFF  1E1,FA8
08A0E:  BCF    FA6.6
08A10:  BCF    FA6.7
08A12:  BSF    FA6.2
08A14:  MOVLW  55
08A16:  MOVWF  FA7
08A18:  MOVLW  AA
08A1A:  MOVWF  FA7
08A1C:  BSF    FA6.1
08A1E:  BTFSC  FA6.1
08A20:  BRA    8A1E
08A22:  BCF    FA6.2
08A24:  MOVF   00,W
08A26:  IORWF  FF2,F
.................... Menu = 51; 
08A28:  MOVLW  33
08A2A:  MOVWF  28
.................... submenu = 100; 
08A2C:  MOVLW  64
08A2E:  MOVLB  2
08A30:  MOVWF  x08
.................... } 
.................... rebote = true; 
08A32:  BSF    35.0
.................... }//si ok 
.................... }//rebote 
....................  
.................... if (Rebote == false){ 
08A34:  BTFSC  35.0
08A36:  BRA    8A4E
.................... if (input(CANCEL) == 0){  
08A38:  BSF    F93.3
08A3A:  BTFSC  F81.3
08A3C:  BRA    8A4E
.................... --submenu; 
08A3E:  DECF   x08,F
.................... if (submenu == 255){  
08A40:  INCFSZ x08,W
08A42:  BRA    8A4C
.................... Menu = 51; 
08A44:  MOVLW  33
08A46:  MOVWF  28
.................... submenu = 100; 
08A48:  MOVLW  64
08A4A:  MOVWF  x08
.................... } 
.................... rebote = true; 
08A4C:  BSF    35.0
.................... }//si ok 
.................... }//rebote 
....................  
.................... if (Rebote == false){ 
08A4E:  BTFSC  35.0
08A50:  BRA    8B7E
.................... if ((input(ARRIBA) == 0) || (input(ABAJO) == 0)){ // apretamos arriba o abajo 
08A52:  BSF    F93.0
08A54:  BTFSS  F81.0
08A56:  BRA    8A5E
08A58:  BSF    F93.1
08A5A:  BTFSC  F81.1
08A5C:  BRA    8B7E
....................  
....................    if (submenu == 0) { 
08A5E:  MOVF   x08,F
08A60:  BNZ   8A72
....................       if (grupo == 1) grupo = 2; 
08A62:  DECFSZ x09,W
08A64:  BRA    8A6C
08A66:  MOVLW  02
08A68:  MOVWF  x09
08A6A:  BRA    8A70
....................       else grupo = 1; 
08A6C:  MOVLW  01
08A6E:  MOVWF  x09
....................    } else { // submenu entre 1 y 7 
08A70:  BRA    8B7C
....................  
....................       if (grupo == 1) { // estamos en el grupo 1 
08A72:  DECFSZ x09,W
08A74:  BRA    8AF6
....................       if (bit_test(Gdias[grupo],submenu)){ // el dia es verdadero 
08A76:  CLRF   03
08A78:  MOVF   x09,W
08A7A:  ADDLW  DF
08A7C:  MOVWF  FE9
08A7E:  MOVLW  01
08A80:  ADDWFC 03,W
08A82:  MOVWF  FEA
08A84:  MOVFF  FEF,20A
08A88:  MOVFF  20A,00
08A8C:  MOVF   x08,W
08A8E:  MOVWF  01
08A90:  BZ    8A9A
08A92:  BCF    FD8.0
08A94:  RRCF   00,F
08A96:  DECFSZ 01,F
08A98:  BRA    8A92
08A9A:  BTFSS  00.0
08A9C:  BRA    8ACC
....................       bit_clear(Gdias[grupo],submenu); 
08A9E:  CLRF   03
08AA0:  MOVF   x09,W
08AA2:  ADDLW  DF
08AA4:  MOVWF  01
08AA6:  MOVLW  01
08AA8:  ADDWFC 03,F
08AAA:  MOVFF  01,FE9
08AAE:  MOVFF  03,FEA
08AB2:  MOVLW  01
08AB4:  MOVWF  00
08AB6:  MOVF   x08,W
08AB8:  MOVWF  01
08ABA:  BZ    8AC4
08ABC:  BCF    FD8.0
08ABE:  RLCF   00,F
08AC0:  DECFSZ 01,F
08AC2:  BRA    8ABC
08AC4:  MOVF   00,W
08AC6:  XORLW  FF
08AC8:  ANDWF  FEF,F
....................       } // si chequeo  
08ACA:  BRA    8AF6
....................       else { // el dia es falso 
....................       bit_set(Gdias[grupo],submenu); 
08ACC:  CLRF   03
08ACE:  MOVF   x09,W
08AD0:  ADDLW  DF
08AD2:  MOVWF  01
08AD4:  MOVLW  01
08AD6:  ADDWFC 03,F
08AD8:  MOVFF  01,FE9
08ADC:  MOVFF  03,FEA
08AE0:  MOVLW  01
08AE2:  MOVWF  00
08AE4:  MOVF   x08,W
08AE6:  MOVWF  01
08AE8:  BZ    8AF2
08AEA:  BCF    FD8.0
08AEC:  RLCF   00,F
08AEE:  DECFSZ 01,F
08AF0:  BRA    8AEA
08AF2:  MOVF   00,W
08AF4:  IORWF  FEF,F
....................       } 
....................       } // estamos en grupo 1 
....................   
....................       if (grupo == 2){ 
08AF6:  MOVF   x09,W
08AF8:  SUBLW  02
08AFA:  BNZ   8B7C
....................       if (bit_test(Gdias[grupo],submenu)){ // el dia es verdadero 
08AFC:  CLRF   03
08AFE:  MOVF   x09,W
08B00:  ADDLW  DF
08B02:  MOVWF  FE9
08B04:  MOVLW  01
08B06:  ADDWFC 03,W
08B08:  MOVWF  FEA
08B0A:  MOVFF  FEF,20A
08B0E:  MOVFF  20A,00
08B12:  MOVF   x08,W
08B14:  MOVWF  01
08B16:  BZ    8B20
08B18:  BCF    FD8.0
08B1A:  RRCF   00,F
08B1C:  DECFSZ 01,F
08B1E:  BRA    8B18
08B20:  BTFSS  00.0
08B22:  BRA    8B52
....................       bit_clear(Gdias[grupo],submenu); 
08B24:  CLRF   03
08B26:  MOVF   x09,W
08B28:  ADDLW  DF
08B2A:  MOVWF  01
08B2C:  MOVLW  01
08B2E:  ADDWFC 03,F
08B30:  MOVFF  01,FE9
08B34:  MOVFF  03,FEA
08B38:  MOVLW  01
08B3A:  MOVWF  00
08B3C:  MOVF   x08,W
08B3E:  MOVWF  01
08B40:  BZ    8B4A
08B42:  BCF    FD8.0
08B44:  RLCF   00,F
08B46:  DECFSZ 01,F
08B48:  BRA    8B42
08B4A:  MOVF   00,W
08B4C:  XORLW  FF
08B4E:  ANDWF  FEF,F
....................       } // si chequeo  
08B50:  BRA    8B7C
....................       else { // el dia es falso 
....................       bit_set(Gdias[grupo],submenu); 
08B52:  CLRF   03
08B54:  MOVF   x09,W
08B56:  ADDLW  DF
08B58:  MOVWF  01
08B5A:  MOVLW  01
08B5C:  ADDWFC 03,F
08B5E:  MOVFF  01,FE9
08B62:  MOVFF  03,FEA
08B66:  MOVLW  01
08B68:  MOVWF  00
08B6A:  MOVF   x08,W
08B6C:  MOVWF  01
08B6E:  BZ    8B78
08B70:  BCF    FD8.0
08B72:  RLCF   00,F
08B74:  DECFSZ 01,F
08B76:  BRA    8B70
08B78:  MOVF   00,W
08B7A:  IORWF  FEF,F
....................       } 
....................       } // si grupo 2 
....................    } // submenu entre 1 y 7    
....................  
.................... rebote = true; 
08B7C:  BSF    35.0
.................... } // si arriba o abajo 
.................... }//rebote 
....................  
.................... /////////////////////// LCD /////////////////////// 
.................... lcd_gotoxy(1,1); 
08B7E:  MOVLW  01
08B80:  MOVWF  x0E
08B82:  MOVWF  x0F
08B84:  MOVLB  0
08B86:  CALL   2E90
.................... printf(lcd_putc, "= Seleccionar dias ="); 
08B8A:  MOVLW  F8
08B8C:  MOVWF  FF6
08B8E:  MOVLW  07
08B90:  MOVWF  FF7
08B92:  CALL   2F62
.................... lcd_gotoxy(1,2); 
08B96:  MOVLW  01
08B98:  MOVLB  2
08B9A:  MOVWF  x0E
08B9C:  MOVLW  02
08B9E:  MOVWF  x0F
08BA0:  MOVLB  0
08BA2:  CALL   2E90
.................... if (submenu == 0) { // estamos en grupo 
08BA6:  MOVLB  2
08BA8:  MOVF   x08,F
08BAA:  BNZ   8C04
.................... if (grupo == 1){ // si grupo 1 
08BAC:  DECFSZ x09,W
08BAE:  BRA    8BD6
.................... if (bit_test(tiempo1,0)) printf(lcd_putc, "  Grupo:  AUTO (1)  "); 
08BB0:  BTFSS  48.0
08BB2:  BRA    8BC6
08BB4:  MOVLW  0E
08BB6:  MOVWF  FF6
08BB8:  MOVLW  08
08BBA:  MOVWF  FF7
08BBC:  MOVLB  0
08BBE:  CALL   2F62
08BC2:  BRA    8BD4
08BC4:  MOVLB  2
.................... else printf(lcd_putc, "  Grupo:            "); 
08BC6:  MOVLW  24
08BC8:  MOVWF  FF6
08BCA:  MOVLW  08
08BCC:  MOVWF  FF7
08BCE:  MOVLB  0
08BD0:  CALL   2F62
08BD4:  MOVLB  2
.................... } // si el grupo es 1 
.................... if (grupo == 2){ // si grupo 2 
08BD6:  MOVF   x09,W
08BD8:  SUBLW  02
08BDA:  BNZ   8C02
.................... if (bit_test(tiempo1,0)) printf(lcd_putc, "  Grupo:  AUTO (2)  "); 
08BDC:  BTFSS  48.0
08BDE:  BRA    8BF2
08BE0:  MOVLW  3A
08BE2:  MOVWF  FF6
08BE4:  MOVLW  08
08BE6:  MOVWF  FF7
08BE8:  MOVLB  0
08BEA:  CALL   2F62
08BEE:  BRA    8C00
08BF0:  MOVLB  2
.................... else printf(lcd_putc, "  Grupo:            "); 
08BF2:  MOVLW  50
08BF4:  MOVWF  FF6
08BF6:  MOVLW  08
08BF8:  MOVWF  FF7
08BFA:  MOVLB  0
08BFC:  CALL   2F62
08C00:  MOVLB  2
.................... } // si el grupo es 2 
.................... } // grupo 
08C02:  BRA    8C2A
.................... else { // Estamos en los dias de la semana 
.................... if (grupo == 1) { 
08C04:  DECFSZ x09,W
08C06:  BRA    8C1A
.................... printf(lcd_putc, "  Grupo:  AUTO (1)  "); 
08C08:  MOVLW  66
08C0A:  MOVWF  FF6
08C0C:  MOVLW  08
08C0E:  MOVWF  FF7
08C10:  MOVLB  0
08C12:  CALL   2F62
.................... } else printf(lcd_putc, "  Grupo:  AUTO (2)  "); 
08C16:  BRA    8C28
08C18:  MOVLB  2
08C1A:  MOVLW  7C
08C1C:  MOVWF  FF6
08C1E:  MOVLW  08
08C20:  MOVWF  FF7
08C22:  MOVLB  0
08C24:  CALL   2F62
08C28:  MOVLB  2
.................... } 
.................... lcd_gotoxy(1,3); 
08C2A:  MOVLW  01
08C2C:  MOVWF  x0E
08C2E:  MOVLW  03
08C30:  MOVWF  x0F
08C32:  MOVLB  0
08C34:  CALL   2E90
.................... printf(lcd_putc, "%s-%s-%s-%s-%s",Lun,Mar,Mie,Jue,Vie); 
08C38:  MOVLW  01
08C3A:  MOVWF  FEA
08C3C:  MOVLW  EB
08C3E:  MOVWF  FE9
08C40:  CALL   34BE
08C44:  MOVLW  2D
08C46:  MOVLB  2
08C48:  MOVWF  x0D
08C4A:  MOVLB  0
08C4C:  CALL   2EFA
08C50:  MOVLW  01
08C52:  MOVWF  FEA
08C54:  MOVLW  EF
08C56:  MOVWF  FE9
08C58:  CALL   34BE
08C5C:  MOVLW  2D
08C5E:  MOVLB  2
08C60:  MOVWF  x0D
08C62:  MOVLB  0
08C64:  CALL   2EFA
08C68:  MOVLW  01
08C6A:  MOVWF  FEA
08C6C:  MOVLW  F3
08C6E:  MOVWF  FE9
08C70:  CALL   34BE
08C74:  MOVLW  2D
08C76:  MOVLB  2
08C78:  MOVWF  x0D
08C7A:  MOVLB  0
08C7C:  CALL   2EFA
08C80:  MOVLW  01
08C82:  MOVWF  FEA
08C84:  MOVLW  F8
08C86:  MOVWF  FE9
08C88:  CALL   34BE
08C8C:  MOVLW  2D
08C8E:  MOVLB  2
08C90:  MOVWF  x0D
08C92:  MOVLB  0
08C94:  CALL   2EFA
08C98:  MOVLW  01
08C9A:  MOVWF  FEA
08C9C:  MOVLW  FC
08C9E:  MOVWF  FE9
08CA0:  CALL   34BE
.................... lcd_gotoxy(1,4); 
08CA4:  MOVLW  01
08CA6:  MOVLB  2
08CA8:  MOVWF  x0E
08CAA:  MOVLW  04
08CAC:  MOVWF  x0F
08CAE:  MOVLB  0
08CB0:  CALL   2E90
.................... printf(lcd_putc, "      %s-%s       ",Sab,Dom); 
08CB4:  MOVLW  92
08CB6:  MOVWF  FF6
08CB8:  MOVLW  08
08CBA:  MOVWF  FF7
08CBC:  MOVLW  06
08CBE:  MOVLB  2
08CC0:  MOVWF  x0A
08CC2:  MOVLB  0
08CC4:  CALL   3496
08CC8:  MOVLW  02
08CCA:  MOVWF  FEA
08CCC:  CLRF   FE9
08CCE:  CALL   34BE
08CD2:  MOVLW  2D
08CD4:  MOVLB  2
08CD6:  MOVWF  x0D
08CD8:  MOVLB  0
08CDA:  CALL   2EFA
08CDE:  MOVLW  02
08CE0:  MOVWF  FEA
08CE2:  MOVLW  04
08CE4:  MOVWF  FE9
08CE6:  CALL   34BE
08CEA:  MOVLW  9D
08CEC:  MOVWF  FF6
08CEE:  MOVLW  08
08CF0:  MOVWF  FF7
08CF2:  MOVLW  07
08CF4:  MOVLB  2
08CF6:  MOVWF  x0A
08CF8:  MOVLB  0
08CFA:  CALL   3496
.................... restart_wdt(); 
08CFE:  CLRWDT
08D00:  MOVLB  2
08D02:  BRA    850E
.................... } // while 
08D04:  MOVLB  0
08D06:  GOTO   BA1A (RETURN)
.................... } // fn 
....................  
....................  
....................  
.................... void LuzGrupo(){ 
....................  
.................... LIMPIARLCD; 
*
05D2A:  MOVLW  A6
05D2C:  MOVWF  FF6
05D2E:  MOVLW  08
05D30:  MOVWF  FF7
05D32:  CALL   2F62
.................... int submenu = 1; 
.................... //short editar = false; 
.................... //int ON[8]; 
.................... //ON[1] = ON[2] = ON[3] = ON[4] = ON[5] = ON[6] = ON[7] = 0; 
.................... int kk; 
05D36:  MOVLW  01
05D38:  MOVLB  1
05D3A:  MOVWF  xEB
....................  
.................... //submenu = 2; 
.................... //ON[2] = 1; 
....................  
.................... while (submenu < 50){ // hasta llenar todas las luces 
05D3C:  MOVF   xEB,W
05D3E:  SUBLW  31
05D40:  BTFSS  FD8.0
05D42:  GOTO   7396
....................  
.................... restart_wdt(); 
05D46:  CLRWDT
....................  
.................... if (input(ARRIBA)==1 && input(ABAJO)==1 && input(OOKK)==1 && input(CANCEL)==1) Rebote = false; // Soltamos las teclas 
05D48:  BSF    F93.0
05D4A:  BTFSS  F81.0
05D4C:  BRA    5D62
05D4E:  BSF    F93.1
05D50:  BTFSS  F81.1
05D52:  BRA    5D62
05D54:  BSF    F93.2
05D56:  BTFSS  F81.2
05D58:  BRA    5D62
05D5A:  BSF    F93.3
05D5C:  BTFSS  F81.3
05D5E:  BRA    5D62
05D60:  BCF    35.0
....................  
.................... if (Rebote == false){ 
05D62:  BTFSC  35.0
05D64:  GOTO   6C58
.................... if (input(OOKK) == 0){  
05D68:  BSF    F93.2
05D6A:  BTFSC  F81.2
05D6C:  GOTO   6C58
.................... switch (submenu){ 
05D70:  MOVLW  0B
05D72:  SUBWF  xEB,W
05D74:  ADDLW  EE
05D76:  BTFSC  FD8.0
05D78:  GOTO   6C4C
05D7C:  ADDLW  12
05D7E:  MOVLB  0
05D80:  GOTO   739C
....................     
....................    case 11:  // Grupo APAGAR TODOS 
....................       for (kk=32;kk<94;kk++) { 
05D84:  MOVLW  20
05D86:  MOVLB  1
05D88:  MOVWF  xEC
05D8A:  MOVF   xEC,W
05D8C:  SUBLW  5D
05D8E:  BNC   5E2C
....................       if (IntLuz[kk] > 99){ // estaba apagado 
05D90:  CLRF   03
05D92:  MOVF   xEC,W
05D94:  ADDLW  49
05D96:  MOVWF  FE9
05D98:  MOVLW  00
05D9A:  ADDWFC 03,W
05D9C:  MOVWF  FEA
05D9E:  MOVF   FEF,W
05DA0:  SUBLW  63
05DA2:  BC    5E28
....................          IntLuz[kk] = IntLuz[kk] - 100; // prendo en el arreglo 
05DA4:  CLRF   03
05DA6:  MOVF   xEC,W
05DA8:  ADDLW  49
05DAA:  MOVWF  01
05DAC:  MOVLW  00
05DAE:  ADDWFC 03,F
05DB0:  MOVFF  03,1EE
05DB4:  CLRF   03
05DB6:  MOVF   xEC,W
05DB8:  ADDLW  49
05DBA:  MOVWF  FE9
05DBC:  MOVLW  00
05DBE:  ADDWFC 03,W
05DC0:  MOVWF  FEA
05DC2:  MOVLW  64
05DC4:  SUBWF  FEF,W
05DC6:  MOVFF  1EE,FEA
05DCA:  MOVFF  01,FE9
05DCE:  MOVWF  FEF
....................          write_eeprom(kk,IntLuz[kk]); 
05DD0:  CLRF   03
05DD2:  MOVF   xEC,W
05DD4:  ADDLW  49
05DD6:  MOVWF  FE9
05DD8:  MOVLW  00
05DDA:  ADDWFC 03,W
05DDC:  MOVWF  FEA
05DDE:  MOVFF  FEF,1ED
05DE2:  MOVF   FF2,W
05DE4:  MOVWF  00
05DE6:  BCF    FF2.7
05DE8:  CLRF   FAA
05DEA:  MOVFF  1EC,FA9
05DEE:  MOVFF  1ED,FA8
05DF2:  BCF    FA6.6
05DF4:  BCF    FA6.7
05DF6:  BSF    FA6.2
05DF8:  MOVLB  F
05DFA:  MOVLW  55
05DFC:  MOVWF  FA7
05DFE:  MOVLW  AA
05E00:  MOVWF  FA7
05E02:  BSF    FA6.1
05E04:  BTFSC  FA6.1
05E06:  BRA    5E04
05E08:  BCF    FA6.2
05E0A:  MOVF   00,W
05E0C:  IORWF  FF2,F
05E0E:  CLRF   19
05E10:  BTFSC  FF2.7
05E12:  BSF    19.7
05E14:  BCF    FF2.7
....................          delay_ms(1); 
05E16:  MOVLW  01
05E18:  MOVLB  2
05E1A:  MOVWF  x20
05E1C:  MOVLB  0
05E1E:  CALL   1386
05E22:  BTFSC  19.7
05E24:  BSF    FF2.7
05E26:  MOVLB  1
....................       } // si estaba apagado.. 
05E28:  INCF   xEC,F
05E2A:  BRA    5D8A
....................       } // for... 
....................       printf("%c%c%c%c", 250, 100, 80, 180); // Apagamos todo en la red 
05E2C:  MOVLW  FA
05E2E:  MOVWF  xFB
05E30:  MOVLB  0
05E32:  CALL   2F82
05E36:  MOVLW  64
05E38:  MOVLB  1
05E3A:  MOVWF  xFB
05E3C:  MOVLB  0
05E3E:  CALL   2F82
05E42:  MOVLW  50
05E44:  MOVLB  1
05E46:  MOVWF  xFB
05E48:  MOVLB  0
05E4A:  CALL   2F82
05E4E:  MOVLW  B4
05E50:  MOVLB  1
05E52:  MOVWF  xFB
05E54:  MOVLB  0
05E56:  CALL   2F82
....................    break; 
05E5A:  MOVLB  1
05E5C:  GOTO   6C4C
....................  
....................    case 12:  // Grupo APAGAR INTERIOR  
....................       for (kk=32;kk<94;kk++) { 
05E60:  MOVLW  20
05E62:  MOVLB  1
05E64:  MOVWF  xEC
05E66:  MOVF   xEC,W
05E68:  SUBLW  5D
05E6A:  BNC   5F4C
....................       if (bit_test(LGrupo[kk],1)){ // si pertenece al grupo 
05E6C:  CLRF   03
05E6E:  MOVF   xEC,W
05E70:  ADDLW  AC
05E72:  MOVWF  FE9
05E74:  MOVLW  00
05E76:  ADDWFC 03,W
05E78:  MOVWF  FEA
05E7A:  MOVFF  FEF,1ED
05E7E:  BTFSS  xED.1
05E80:  BRA    5F48
....................       if (IntLuz[kk] > 99){ // estaba prendido 
05E82:  CLRF   03
05E84:  MOVF   xEC,W
05E86:  ADDLW  49
05E88:  MOVWF  FE9
05E8A:  MOVLW  00
05E8C:  ADDWFC 03,W
05E8E:  MOVWF  FEA
05E90:  MOVF   FEF,W
05E92:  SUBLW  63
05E94:  BC    5F48
....................          IntLuz[kk] = IntLuz[kk] - 100; // apago en el arreglo en RAM 
05E96:  CLRF   03
05E98:  MOVF   xEC,W
05E9A:  ADDLW  49
05E9C:  MOVWF  01
05E9E:  MOVLW  00
05EA0:  ADDWFC 03,F
05EA2:  MOVFF  03,1EE
05EA6:  CLRF   03
05EA8:  MOVF   xEC,W
05EAA:  ADDLW  49
05EAC:  MOVWF  FE9
05EAE:  MOVLW  00
05EB0:  ADDWFC 03,W
05EB2:  MOVWF  FEA
05EB4:  MOVLW  64
05EB6:  SUBWF  FEF,W
05EB8:  MOVFF  1EE,FEA
05EBC:  MOVFF  01,FE9
05EC0:  MOVWF  FEF
....................          write_eeprom(kk,IntLuz[kk]); // apago en el arreglo en ROM 
05EC2:  CLRF   03
05EC4:  MOVF   xEC,W
05EC6:  ADDLW  49
05EC8:  MOVWF  FE9
05ECA:  MOVLW  00
05ECC:  ADDWFC 03,W
05ECE:  MOVWF  FEA
05ED0:  MOVFF  FEF,1ED
05ED4:  MOVF   FF2,W
05ED6:  MOVWF  00
05ED8:  BCF    FF2.7
05EDA:  CLRF   FAA
05EDC:  MOVFF  1EC,FA9
05EE0:  MOVFF  1ED,FA8
05EE4:  BCF    FA6.6
05EE6:  BCF    FA6.7
05EE8:  BSF    FA6.2
05EEA:  MOVLB  F
05EEC:  MOVLW  55
05EEE:  MOVWF  FA7
05EF0:  MOVLW  AA
05EF2:  MOVWF  FA7
05EF4:  BSF    FA6.1
05EF6:  BTFSC  FA6.1
05EF8:  BRA    5EF6
05EFA:  BCF    FA6.2
05EFC:  MOVF   00,W
05EFE:  IORWF  FF2,F
05F00:  CLRF   19
05F02:  BTFSC  FF2.7
05F04:  BSF    19.7
05F06:  BCF    FF2.7
....................          delay_ms(5); 
05F08:  MOVLW  05
05F0A:  MOVLB  2
05F0C:  MOVWF  x20
05F0E:  MOVLB  0
05F10:  CALL   1386
05F14:  BTFSC  19.7
05F16:  BSF    FF2.7
....................          printf("%c%c%c%c", 250, kk, 80, kk+80); // Apagamos  en la red 
05F18:  MOVLW  50
05F1A:  MOVLB  1
05F1C:  ADDWF  xEC,W
05F1E:  MOVWF  xED
05F20:  MOVLW  FA
05F22:  MOVWF  xFB
05F24:  MOVLB  0
05F26:  CALL   2F82
05F2A:  MOVFF  1EC,1FB
05F2E:  CALL   2F82
05F32:  MOVLW  50
05F34:  MOVLB  1
05F36:  MOVWF  xFB
05F38:  MOVLB  0
05F3A:  CALL   2F82
05F3E:  MOVFF  1ED,1FB
05F42:  CALL   2F82
05F46:  MOVLB  1
....................       } // si estaba prendido.. 
....................       } // si pertenece al grupo 
05F48:  INCF   xEC,F
05F4A:  BRA    5E66
....................       } // for... 
....................    break; 
05F4C:  GOTO   6C4C
....................  
....................    case 13: // Grupo APAGAR EXTERIOR  
....................       for (kk=32;kk<94;kk++) { 
05F50:  MOVLW  20
05F52:  MOVLB  1
05F54:  MOVWF  xEC
05F56:  MOVF   xEC,W
05F58:  SUBLW  5D
05F5A:  BNC   603C
....................       if (bit_test(LGrupo[kk],2)){ // si pertenece al grupo 
05F5C:  CLRF   03
05F5E:  MOVF   xEC,W
05F60:  ADDLW  AC
05F62:  MOVWF  FE9
05F64:  MOVLW  00
05F66:  ADDWFC 03,W
05F68:  MOVWF  FEA
05F6A:  MOVFF  FEF,1ED
05F6E:  BTFSS  xED.2
05F70:  BRA    6038
....................       if (IntLuz[kk] > 99){ // estaba prendido 
05F72:  CLRF   03
05F74:  MOVF   xEC,W
05F76:  ADDLW  49
05F78:  MOVWF  FE9
05F7A:  MOVLW  00
05F7C:  ADDWFC 03,W
05F7E:  MOVWF  FEA
05F80:  MOVF   FEF,W
05F82:  SUBLW  63
05F84:  BC    6038
....................          IntLuz[kk] = IntLuz[kk] - 100; // apago en el arreglo en RAM 
05F86:  CLRF   03
05F88:  MOVF   xEC,W
05F8A:  ADDLW  49
05F8C:  MOVWF  01
05F8E:  MOVLW  00
05F90:  ADDWFC 03,F
05F92:  MOVFF  03,1EE
05F96:  CLRF   03
05F98:  MOVF   xEC,W
05F9A:  ADDLW  49
05F9C:  MOVWF  FE9
05F9E:  MOVLW  00
05FA0:  ADDWFC 03,W
05FA2:  MOVWF  FEA
05FA4:  MOVLW  64
05FA6:  SUBWF  FEF,W
05FA8:  MOVFF  1EE,FEA
05FAC:  MOVFF  01,FE9
05FB0:  MOVWF  FEF
....................          write_eeprom(kk,IntLuz[kk]); // apago en el arreglo en ROM 
05FB2:  CLRF   03
05FB4:  MOVF   xEC,W
05FB6:  ADDLW  49
05FB8:  MOVWF  FE9
05FBA:  MOVLW  00
05FBC:  ADDWFC 03,W
05FBE:  MOVWF  FEA
05FC0:  MOVFF  FEF,1ED
05FC4:  MOVF   FF2,W
05FC6:  MOVWF  00
05FC8:  BCF    FF2.7
05FCA:  CLRF   FAA
05FCC:  MOVFF  1EC,FA9
05FD0:  MOVFF  1ED,FA8
05FD4:  BCF    FA6.6
05FD6:  BCF    FA6.7
05FD8:  BSF    FA6.2
05FDA:  MOVLB  F
05FDC:  MOVLW  55
05FDE:  MOVWF  FA7
05FE0:  MOVLW  AA
05FE2:  MOVWF  FA7
05FE4:  BSF    FA6.1
05FE6:  BTFSC  FA6.1
05FE8:  BRA    5FE6
05FEA:  BCF    FA6.2
05FEC:  MOVF   00,W
05FEE:  IORWF  FF2,F
05FF0:  CLRF   19
05FF2:  BTFSC  FF2.7
05FF4:  BSF    19.7
05FF6:  BCF    FF2.7
....................          delay_ms(5); 
05FF8:  MOVLW  05
05FFA:  MOVLB  2
05FFC:  MOVWF  x20
05FFE:  MOVLB  0
06000:  CALL   1386
06004:  BTFSC  19.7
06006:  BSF    FF2.7
....................          printf("%c%c%c%c", 250, kk, 80, kk+80); // Apagamos  en la red 
06008:  MOVLW  50
0600A:  MOVLB  1
0600C:  ADDWF  xEC,W
0600E:  MOVWF  xED
06010:  MOVLW  FA
06012:  MOVWF  xFB
06014:  MOVLB  0
06016:  CALL   2F82
0601A:  MOVFF  1EC,1FB
0601E:  CALL   2F82
06022:  MOVLW  50
06024:  MOVLB  1
06026:  MOVWF  xFB
06028:  MOVLB  0
0602A:  CALL   2F82
0602E:  MOVFF  1ED,1FB
06032:  CALL   2F82
06036:  MOVLB  1
....................       } // si estaba prendido.. 
....................       } // si pertenece al grupo 
06038:  INCF   xEC,F
0603A:  BRA    5F56
....................       } // for... 
....................    break; 
0603C:  GOTO   6C4C
....................  
....................    case 14: // Grupo APAGAR JARDIN  
....................       for (kk=32;kk<94;kk++) { 
06040:  MOVLW  20
06042:  MOVLB  1
06044:  MOVWF  xEC
06046:  MOVF   xEC,W
06048:  SUBLW  5D
0604A:  BNC   612C
....................       if (bit_test(LGrupo[kk],3)){ // si pertenece al grupo 
0604C:  CLRF   03
0604E:  MOVF   xEC,W
06050:  ADDLW  AC
06052:  MOVWF  FE9
06054:  MOVLW  00
06056:  ADDWFC 03,W
06058:  MOVWF  FEA
0605A:  MOVFF  FEF,1ED
0605E:  BTFSS  xED.3
06060:  BRA    6128
....................       if (IntLuz[kk] > 99){ // estaba prendido 
06062:  CLRF   03
06064:  MOVF   xEC,W
06066:  ADDLW  49
06068:  MOVWF  FE9
0606A:  MOVLW  00
0606C:  ADDWFC 03,W
0606E:  MOVWF  FEA
06070:  MOVF   FEF,W
06072:  SUBLW  63
06074:  BC    6128
....................          IntLuz[kk] = IntLuz[kk] - 100; // apago en el arreglo en RAM 
06076:  CLRF   03
06078:  MOVF   xEC,W
0607A:  ADDLW  49
0607C:  MOVWF  01
0607E:  MOVLW  00
06080:  ADDWFC 03,F
06082:  MOVFF  03,1EE
06086:  CLRF   03
06088:  MOVF   xEC,W
0608A:  ADDLW  49
0608C:  MOVWF  FE9
0608E:  MOVLW  00
06090:  ADDWFC 03,W
06092:  MOVWF  FEA
06094:  MOVLW  64
06096:  SUBWF  FEF,W
06098:  MOVFF  1EE,FEA
0609C:  MOVFF  01,FE9
060A0:  MOVWF  FEF
....................          write_eeprom(kk,IntLuz[kk]); // apago en el arreglo en ROM 
060A2:  CLRF   03
060A4:  MOVF   xEC,W
060A6:  ADDLW  49
060A8:  MOVWF  FE9
060AA:  MOVLW  00
060AC:  ADDWFC 03,W
060AE:  MOVWF  FEA
060B0:  MOVFF  FEF,1ED
060B4:  MOVF   FF2,W
060B6:  MOVWF  00
060B8:  BCF    FF2.7
060BA:  CLRF   FAA
060BC:  MOVFF  1EC,FA9
060C0:  MOVFF  1ED,FA8
060C4:  BCF    FA6.6
060C6:  BCF    FA6.7
060C8:  BSF    FA6.2
060CA:  MOVLB  F
060CC:  MOVLW  55
060CE:  MOVWF  FA7
060D0:  MOVLW  AA
060D2:  MOVWF  FA7
060D4:  BSF    FA6.1
060D6:  BTFSC  FA6.1
060D8:  BRA    60D6
060DA:  BCF    FA6.2
060DC:  MOVF   00,W
060DE:  IORWF  FF2,F
060E0:  CLRF   19
060E2:  BTFSC  FF2.7
060E4:  BSF    19.7
060E6:  BCF    FF2.7
....................          delay_ms(5); 
060E8:  MOVLW  05
060EA:  MOVLB  2
060EC:  MOVWF  x20
060EE:  MOVLB  0
060F0:  CALL   1386
060F4:  BTFSC  19.7
060F6:  BSF    FF2.7
....................          printf("%c%c%c%c", 250, kk, 80, kk+80); // Apagamos  en la red 
060F8:  MOVLW  50
060FA:  MOVLB  1
060FC:  ADDWF  xEC,W
060FE:  MOVWF  xED
06100:  MOVLW  FA
06102:  MOVWF  xFB
06104:  MOVLB  0
06106:  CALL   2F82
0610A:  MOVFF  1EC,1FB
0610E:  CALL   2F82
06112:  MOVLW  50
06114:  MOVLB  1
06116:  MOVWF  xFB
06118:  MOVLB  0
0611A:  CALL   2F82
0611E:  MOVFF  1ED,1FB
06122:  CALL   2F82
06126:  MOVLB  1
....................       } // si estaba prendido.. 
....................       } // si pertenece al grupo 
06128:  INCF   xEC,F
0612A:  BRA    6046
....................       } // for... 
....................    break; 
0612C:  GOTO   6C4C
....................  
....................    case 15: // Grupo APAGAR FRENTE  
....................       for (kk=32;kk<94;kk++) { 
06130:  MOVLW  20
06132:  MOVLB  1
06134:  MOVWF  xEC
06136:  MOVF   xEC,W
06138:  SUBLW  5D
0613A:  BNC   621C
....................       if (bit_test(LGrupo[kk],4)){ // si pertenece al grupo 
0613C:  CLRF   03
0613E:  MOVF   xEC,W
06140:  ADDLW  AC
06142:  MOVWF  FE9
06144:  MOVLW  00
06146:  ADDWFC 03,W
06148:  MOVWF  FEA
0614A:  MOVFF  FEF,1ED
0614E:  BTFSS  xED.4
06150:  BRA    6218
....................       if (IntLuz[kk] > 99){ // estaba prendido 
06152:  CLRF   03
06154:  MOVF   xEC,W
06156:  ADDLW  49
06158:  MOVWF  FE9
0615A:  MOVLW  00
0615C:  ADDWFC 03,W
0615E:  MOVWF  FEA
06160:  MOVF   FEF,W
06162:  SUBLW  63
06164:  BC    6218
....................          IntLuz[kk] = IntLuz[kk] - 100; // apago en el arreglo en RAM 
06166:  CLRF   03
06168:  MOVF   xEC,W
0616A:  ADDLW  49
0616C:  MOVWF  01
0616E:  MOVLW  00
06170:  ADDWFC 03,F
06172:  MOVFF  03,1EE
06176:  CLRF   03
06178:  MOVF   xEC,W
0617A:  ADDLW  49
0617C:  MOVWF  FE9
0617E:  MOVLW  00
06180:  ADDWFC 03,W
06182:  MOVWF  FEA
06184:  MOVLW  64
06186:  SUBWF  FEF,W
06188:  MOVFF  1EE,FEA
0618C:  MOVFF  01,FE9
06190:  MOVWF  FEF
....................          write_eeprom(kk,IntLuz[kk]); // apago en el arreglo en ROM 
06192:  CLRF   03
06194:  MOVF   xEC,W
06196:  ADDLW  49
06198:  MOVWF  FE9
0619A:  MOVLW  00
0619C:  ADDWFC 03,W
0619E:  MOVWF  FEA
061A0:  MOVFF  FEF,1ED
061A4:  MOVF   FF2,W
061A6:  MOVWF  00
061A8:  BCF    FF2.7
061AA:  CLRF   FAA
061AC:  MOVFF  1EC,FA9
061B0:  MOVFF  1ED,FA8
061B4:  BCF    FA6.6
061B6:  BCF    FA6.7
061B8:  BSF    FA6.2
061BA:  MOVLB  F
061BC:  MOVLW  55
061BE:  MOVWF  FA7
061C0:  MOVLW  AA
061C2:  MOVWF  FA7
061C4:  BSF    FA6.1
061C6:  BTFSC  FA6.1
061C8:  BRA    61C6
061CA:  BCF    FA6.2
061CC:  MOVF   00,W
061CE:  IORWF  FF2,F
061D0:  CLRF   19
061D2:  BTFSC  FF2.7
061D4:  BSF    19.7
061D6:  BCF    FF2.7
....................          delay_ms(5); 
061D8:  MOVLW  05
061DA:  MOVLB  2
061DC:  MOVWF  x20
061DE:  MOVLB  0
061E0:  CALL   1386
061E4:  BTFSC  19.7
061E6:  BSF    FF2.7
....................          printf("%c%c%c%c", 250, kk, 80, kk+80); // Apagamos  en la red 
061E8:  MOVLW  50
061EA:  MOVLB  1
061EC:  ADDWF  xEC,W
061EE:  MOVWF  xED
061F0:  MOVLW  FA
061F2:  MOVWF  xFB
061F4:  MOVLB  0
061F6:  CALL   2F82
061FA:  MOVFF  1EC,1FB
061FE:  CALL   2F82
06202:  MOVLW  50
06204:  MOVLB  1
06206:  MOVWF  xFB
06208:  MOVLB  0
0620A:  CALL   2F82
0620E:  MOVFF  1ED,1FB
06212:  CALL   2F82
06216:  MOVLB  1
....................       } // si estaba prendido.. 
....................       } // si pertenece al grupo 
06218:  INCF   xEC,F
0621A:  BRA    6136
....................       } // for... 
....................    break; 
0621C:  GOTO   6C4C
....................  
....................    case 16: // Grupo APAGAR PASILLOS  
....................       for (kk=32;kk<94;kk++) { 
06220:  MOVLW  20
06222:  MOVLB  1
06224:  MOVWF  xEC
06226:  MOVF   xEC,W
06228:  SUBLW  5D
0622A:  BNC   630C
....................       if (bit_test(LGrupo[kk],5)){ // si pertenece al grupo 
0622C:  CLRF   03
0622E:  MOVF   xEC,W
06230:  ADDLW  AC
06232:  MOVWF  FE9
06234:  MOVLW  00
06236:  ADDWFC 03,W
06238:  MOVWF  FEA
0623A:  MOVFF  FEF,1ED
0623E:  BTFSS  xED.5
06240:  BRA    6308
....................       if (IntLuz[kk] > 99){ // estaba prendido 
06242:  CLRF   03
06244:  MOVF   xEC,W
06246:  ADDLW  49
06248:  MOVWF  FE9
0624A:  MOVLW  00
0624C:  ADDWFC 03,W
0624E:  MOVWF  FEA
06250:  MOVF   FEF,W
06252:  SUBLW  63
06254:  BC    6308
....................          IntLuz[kk] = IntLuz[kk] - 100; // apago en el arreglo en RAM 
06256:  CLRF   03
06258:  MOVF   xEC,W
0625A:  ADDLW  49
0625C:  MOVWF  01
0625E:  MOVLW  00
06260:  ADDWFC 03,F
06262:  MOVFF  03,1EE
06266:  CLRF   03
06268:  MOVF   xEC,W
0626A:  ADDLW  49
0626C:  MOVWF  FE9
0626E:  MOVLW  00
06270:  ADDWFC 03,W
06272:  MOVWF  FEA
06274:  MOVLW  64
06276:  SUBWF  FEF,W
06278:  MOVFF  1EE,FEA
0627C:  MOVFF  01,FE9
06280:  MOVWF  FEF
....................          write_eeprom(kk,IntLuz[kk]); // apago en el arreglo en ROM 
06282:  CLRF   03
06284:  MOVF   xEC,W
06286:  ADDLW  49
06288:  MOVWF  FE9
0628A:  MOVLW  00
0628C:  ADDWFC 03,W
0628E:  MOVWF  FEA
06290:  MOVFF  FEF,1ED
06294:  MOVF   FF2,W
06296:  MOVWF  00
06298:  BCF    FF2.7
0629A:  CLRF   FAA
0629C:  MOVFF  1EC,FA9
062A0:  MOVFF  1ED,FA8
062A4:  BCF    FA6.6
062A6:  BCF    FA6.7
062A8:  BSF    FA6.2
062AA:  MOVLB  F
062AC:  MOVLW  55
062AE:  MOVWF  FA7
062B0:  MOVLW  AA
062B2:  MOVWF  FA7
062B4:  BSF    FA6.1
062B6:  BTFSC  FA6.1
062B8:  BRA    62B6
062BA:  BCF    FA6.2
062BC:  MOVF   00,W
062BE:  IORWF  FF2,F
062C0:  CLRF   19
062C2:  BTFSC  FF2.7
062C4:  BSF    19.7
062C6:  BCF    FF2.7
....................          delay_ms(5); 
062C8:  MOVLW  05
062CA:  MOVLB  2
062CC:  MOVWF  x20
062CE:  MOVLB  0
062D0:  CALL   1386
062D4:  BTFSC  19.7
062D6:  BSF    FF2.7
....................          printf("%c%c%c%c", 250, kk, 80, kk+80); // Apagamos  en la red 
062D8:  MOVLW  50
062DA:  MOVLB  1
062DC:  ADDWF  xEC,W
062DE:  MOVWF  xED
062E0:  MOVLW  FA
062E2:  MOVWF  xFB
062E4:  MOVLB  0
062E6:  CALL   2F82
062EA:  MOVFF  1EC,1FB
062EE:  CALL   2F82
062F2:  MOVLW  50
062F4:  MOVLB  1
062F6:  MOVWF  xFB
062F8:  MOVLB  0
062FA:  CALL   2F82
062FE:  MOVFF  1ED,1FB
06302:  CALL   2F82
06306:  MOVLB  1
....................       } // si estaba prendido.. 
....................       } // si pertenece al grupo 
06308:  INCF   xEC,F
0630A:  BRA    6226
....................       } // for... 
....................    break; 
0630C:  GOTO   6C4C
....................  
....................    case 17: // Grupo APAGAR AUTO1  
....................       for (kk=32;kk<94;kk++) { 
06310:  MOVLW  20
06312:  MOVLB  1
06314:  MOVWF  xEC
06316:  MOVF   xEC,W
06318:  SUBLW  5D
0631A:  BNC   63FC
....................       if (bit_test(LGrupo[kk],6)){ // si pertenece al grupo 
0631C:  CLRF   03
0631E:  MOVF   xEC,W
06320:  ADDLW  AC
06322:  MOVWF  FE9
06324:  MOVLW  00
06326:  ADDWFC 03,W
06328:  MOVWF  FEA
0632A:  MOVFF  FEF,1ED
0632E:  BTFSS  xED.6
06330:  BRA    63F8
....................       if (IntLuz[kk] > 99){ // estaba prendido 
06332:  CLRF   03
06334:  MOVF   xEC,W
06336:  ADDLW  49
06338:  MOVWF  FE9
0633A:  MOVLW  00
0633C:  ADDWFC 03,W
0633E:  MOVWF  FEA
06340:  MOVF   FEF,W
06342:  SUBLW  63
06344:  BC    63F8
....................          IntLuz[kk] = IntLuz[kk] - 100; // apago en el arreglo en RAM 
06346:  CLRF   03
06348:  MOVF   xEC,W
0634A:  ADDLW  49
0634C:  MOVWF  01
0634E:  MOVLW  00
06350:  ADDWFC 03,F
06352:  MOVFF  03,1EE
06356:  CLRF   03
06358:  MOVF   xEC,W
0635A:  ADDLW  49
0635C:  MOVWF  FE9
0635E:  MOVLW  00
06360:  ADDWFC 03,W
06362:  MOVWF  FEA
06364:  MOVLW  64
06366:  SUBWF  FEF,W
06368:  MOVFF  1EE,FEA
0636C:  MOVFF  01,FE9
06370:  MOVWF  FEF
....................          write_eeprom(kk,IntLuz[kk]); // apago en el arreglo en ROM 
06372:  CLRF   03
06374:  MOVF   xEC,W
06376:  ADDLW  49
06378:  MOVWF  FE9
0637A:  MOVLW  00
0637C:  ADDWFC 03,W
0637E:  MOVWF  FEA
06380:  MOVFF  FEF,1ED
06384:  MOVF   FF2,W
06386:  MOVWF  00
06388:  BCF    FF2.7
0638A:  CLRF   FAA
0638C:  MOVFF  1EC,FA9
06390:  MOVFF  1ED,FA8
06394:  BCF    FA6.6
06396:  BCF    FA6.7
06398:  BSF    FA6.2
0639A:  MOVLB  F
0639C:  MOVLW  55
0639E:  MOVWF  FA7
063A0:  MOVLW  AA
063A2:  MOVWF  FA7
063A4:  BSF    FA6.1
063A6:  BTFSC  FA6.1
063A8:  BRA    63A6
063AA:  BCF    FA6.2
063AC:  MOVF   00,W
063AE:  IORWF  FF2,F
063B0:  CLRF   19
063B2:  BTFSC  FF2.7
063B4:  BSF    19.7
063B6:  BCF    FF2.7
....................          delay_ms(5); 
063B8:  MOVLW  05
063BA:  MOVLB  2
063BC:  MOVWF  x20
063BE:  MOVLB  0
063C0:  CALL   1386
063C4:  BTFSC  19.7
063C6:  BSF    FF2.7
....................          printf("%c%c%c%c", 250, kk, 80, kk+80); // Apagamos  en la red 
063C8:  MOVLW  50
063CA:  MOVLB  1
063CC:  ADDWF  xEC,W
063CE:  MOVWF  xED
063D0:  MOVLW  FA
063D2:  MOVWF  xFB
063D4:  MOVLB  0
063D6:  CALL   2F82
063DA:  MOVFF  1EC,1FB
063DE:  CALL   2F82
063E2:  MOVLW  50
063E4:  MOVLB  1
063E6:  MOVWF  xFB
063E8:  MOVLB  0
063EA:  CALL   2F82
063EE:  MOVFF  1ED,1FB
063F2:  CALL   2F82
063F6:  MOVLB  1
....................       } // si estaba prendido.. 
....................       } // si pertenece al grupo 
063F8:  INCF   xEC,F
063FA:  BRA    6316
....................       } // for... 
....................    break; 
063FC:  GOTO   6C4C
....................  
....................    case 18: // Grupo APAGAR AUTO2  
....................       for (kk=32;kk<94;kk++) { 
06400:  MOVLW  20
06402:  MOVLB  1
06404:  MOVWF  xEC
06406:  MOVF   xEC,W
06408:  SUBLW  5D
0640A:  BNC   64EC
....................       if (bit_test(LGrupo[kk],7)){ // si pertenece al grupo 
0640C:  CLRF   03
0640E:  MOVF   xEC,W
06410:  ADDLW  AC
06412:  MOVWF  FE9
06414:  MOVLW  00
06416:  ADDWFC 03,W
06418:  MOVWF  FEA
0641A:  MOVFF  FEF,1ED
0641E:  BTFSS  xED.7
06420:  BRA    64E8
....................       if (IntLuz[kk] > 99){ // estaba prendido 
06422:  CLRF   03
06424:  MOVF   xEC,W
06426:  ADDLW  49
06428:  MOVWF  FE9
0642A:  MOVLW  00
0642C:  ADDWFC 03,W
0642E:  MOVWF  FEA
06430:  MOVF   FEF,W
06432:  SUBLW  63
06434:  BC    64E8
....................          IntLuz[kk] = IntLuz[kk] - 100; // apago en el arreglo en RAM 
06436:  CLRF   03
06438:  MOVF   xEC,W
0643A:  ADDLW  49
0643C:  MOVWF  01
0643E:  MOVLW  00
06440:  ADDWFC 03,F
06442:  MOVFF  03,1EE
06446:  CLRF   03
06448:  MOVF   xEC,W
0644A:  ADDLW  49
0644C:  MOVWF  FE9
0644E:  MOVLW  00
06450:  ADDWFC 03,W
06452:  MOVWF  FEA
06454:  MOVLW  64
06456:  SUBWF  FEF,W
06458:  MOVFF  1EE,FEA
0645C:  MOVFF  01,FE9
06460:  MOVWF  FEF
....................          write_eeprom(kk,IntLuz[kk]); // apago en el arreglo en ROM 
06462:  CLRF   03
06464:  MOVF   xEC,W
06466:  ADDLW  49
06468:  MOVWF  FE9
0646A:  MOVLW  00
0646C:  ADDWFC 03,W
0646E:  MOVWF  FEA
06470:  MOVFF  FEF,1ED
06474:  MOVF   FF2,W
06476:  MOVWF  00
06478:  BCF    FF2.7
0647A:  CLRF   FAA
0647C:  MOVFF  1EC,FA9
06480:  MOVFF  1ED,FA8
06484:  BCF    FA6.6
06486:  BCF    FA6.7
06488:  BSF    FA6.2
0648A:  MOVLB  F
0648C:  MOVLW  55
0648E:  MOVWF  FA7
06490:  MOVLW  AA
06492:  MOVWF  FA7
06494:  BSF    FA6.1
06496:  BTFSC  FA6.1
06498:  BRA    6496
0649A:  BCF    FA6.2
0649C:  MOVF   00,W
0649E:  IORWF  FF2,F
064A0:  CLRF   19
064A2:  BTFSC  FF2.7
064A4:  BSF    19.7
064A6:  BCF    FF2.7
....................          delay_ms(5); 
064A8:  MOVLW  05
064AA:  MOVLB  2
064AC:  MOVWF  x20
064AE:  MOVLB  0
064B0:  CALL   1386
064B4:  BTFSC  19.7
064B6:  BSF    FF2.7
....................          printf("%c%c%c%c", 250, kk, 80, kk+80); // Apagamos  en la red 
064B8:  MOVLW  50
064BA:  MOVLB  1
064BC:  ADDWF  xEC,W
064BE:  MOVWF  xED
064C0:  MOVLW  FA
064C2:  MOVWF  xFB
064C4:  MOVLB  0
064C6:  CALL   2F82
064CA:  MOVFF  1EC,1FB
064CE:  CALL   2F82
064D2:  MOVLW  50
064D4:  MOVLB  1
064D6:  MOVWF  xFB
064D8:  MOVLB  0
064DA:  CALL   2F82
064DE:  MOVFF  1ED,1FB
064E2:  CALL   2F82
064E6:  MOVLB  1
....................       } // si estaba prendido.. 
....................       } // si pertenece al grupo 
064E8:  INCF   xEC,F
064EA:  BRA    6406
....................       } // for... 
....................    break; 
064EC:  BRA    6C4C
....................  
....................  
....................    case 21:  // Grupo PRENDER TODOS 
....................       for (kk=32;kk<94;kk++) { 
064EE:  MOVLW  20
064F0:  MOVLB  1
064F2:  MOVWF  xEC
064F4:  MOVF   xEC,W
064F6:  SUBLW  5D
064F8:  BNC   6596
....................       if (IntLuz[kk] < 99){ // estaba apagado 
064FA:  CLRF   03
064FC:  MOVF   xEC,W
064FE:  ADDLW  49
06500:  MOVWF  FE9
06502:  MOVLW  00
06504:  ADDWFC 03,W
06506:  MOVWF  FEA
06508:  MOVF   FEF,W
0650A:  SUBLW  62
0650C:  BNC   6592
....................          IntLuz[kk] = IntLuz[kk] + 100; // prendo en el arreglo 
0650E:  CLRF   03
06510:  MOVF   xEC,W
06512:  ADDLW  49
06514:  MOVWF  01
06516:  MOVLW  00
06518:  ADDWFC 03,F
0651A:  MOVFF  03,1EE
0651E:  CLRF   03
06520:  MOVF   xEC,W
06522:  ADDLW  49
06524:  MOVWF  FE9
06526:  MOVLW  00
06528:  ADDWFC 03,W
0652A:  MOVWF  FEA
0652C:  MOVLW  64
0652E:  ADDWF  FEF,W
06530:  MOVFF  1EE,FEA
06534:  MOVFF  01,FE9
06538:  MOVWF  FEF
....................          write_eeprom(kk,IntLuz[kk]); 
0653A:  CLRF   03
0653C:  MOVF   xEC,W
0653E:  ADDLW  49
06540:  MOVWF  FE9
06542:  MOVLW  00
06544:  ADDWFC 03,W
06546:  MOVWF  FEA
06548:  MOVFF  FEF,1ED
0654C:  MOVF   FF2,W
0654E:  MOVWF  00
06550:  BCF    FF2.7
06552:  CLRF   FAA
06554:  MOVFF  1EC,FA9
06558:  MOVFF  1ED,FA8
0655C:  BCF    FA6.6
0655E:  BCF    FA6.7
06560:  BSF    FA6.2
06562:  MOVLB  F
06564:  MOVLW  55
06566:  MOVWF  FA7
06568:  MOVLW  AA
0656A:  MOVWF  FA7
0656C:  BSF    FA6.1
0656E:  BTFSC  FA6.1
06570:  BRA    656E
06572:  BCF    FA6.2
06574:  MOVF   00,W
06576:  IORWF  FF2,F
06578:  CLRF   19
0657A:  BTFSC  FF2.7
0657C:  BSF    19.7
0657E:  BCF    FF2.7
....................          delay_ms(5); 
06580:  MOVLW  05
06582:  MOVLB  2
06584:  MOVWF  x20
06586:  MOVLB  0
06588:  CALL   1386
0658C:  BTFSC  19.7
0658E:  BSF    FF2.7
06590:  MOVLB  1
....................       } // si estaba apagado.. 
06592:  INCF   xEC,F
06594:  BRA    64F4
....................       } // for... 
....................       printf("%c%c%c%c", 250, 100, 90, 190); // Apagamos todo en la red 
06596:  MOVLW  FA
06598:  MOVWF  xFB
0659A:  MOVLB  0
0659C:  CALL   2F82
065A0:  MOVLW  64
065A2:  MOVLB  1
065A4:  MOVWF  xFB
065A6:  MOVLB  0
065A8:  CALL   2F82
065AC:  MOVLW  5A
065AE:  MOVLB  1
065B0:  MOVWF  xFB
065B2:  MOVLB  0
065B4:  CALL   2F82
065B8:  MOVLW  BE
065BA:  MOVLB  1
065BC:  MOVWF  xFB
065BE:  MOVLB  0
065C0:  CALL   2F82
....................    break; 
065C4:  MOVLB  1
065C6:  BRA    6C4C
....................  
....................    case 22:  // Grupo PRENDER INTERIOR  
....................       for (kk=32;kk<94;kk++) { 
065C8:  MOVLW  20
065CA:  MOVLB  1
065CC:  MOVWF  xEC
065CE:  MOVF   xEC,W
065D0:  SUBLW  5D
065D2:  BNC   66B4
....................       if (bit_test(LGrupo[kk],1)){ // si pertenece al grupo 
065D4:  CLRF   03
065D6:  MOVF   xEC,W
065D8:  ADDLW  AC
065DA:  MOVWF  FE9
065DC:  MOVLW  00
065DE:  ADDWFC 03,W
065E0:  MOVWF  FEA
065E2:  MOVFF  FEF,1ED
065E6:  BTFSS  xED.1
065E8:  BRA    66B0
....................       if (IntLuz[kk] < 99){ // estaba prendido 
065EA:  CLRF   03
065EC:  MOVF   xEC,W
065EE:  ADDLW  49
065F0:  MOVWF  FE9
065F2:  MOVLW  00
065F4:  ADDWFC 03,W
065F6:  MOVWF  FEA
065F8:  MOVF   FEF,W
065FA:  SUBLW  62
065FC:  BNC   66B0
....................          IntLuz[kk] = IntLuz[kk] + 100; // apago en el arreglo en RAM 
065FE:  CLRF   03
06600:  MOVF   xEC,W
06602:  ADDLW  49
06604:  MOVWF  01
06606:  MOVLW  00
06608:  ADDWFC 03,F
0660A:  MOVFF  03,1EE
0660E:  CLRF   03
06610:  MOVF   xEC,W
06612:  ADDLW  49
06614:  MOVWF  FE9
06616:  MOVLW  00
06618:  ADDWFC 03,W
0661A:  MOVWF  FEA
0661C:  MOVLW  64
0661E:  ADDWF  FEF,W
06620:  MOVFF  1EE,FEA
06624:  MOVFF  01,FE9
06628:  MOVWF  FEF
....................          write_eeprom(kk,IntLuz[kk]); // apago en el arreglo en ROM 
0662A:  CLRF   03
0662C:  MOVF   xEC,W
0662E:  ADDLW  49
06630:  MOVWF  FE9
06632:  MOVLW  00
06634:  ADDWFC 03,W
06636:  MOVWF  FEA
06638:  MOVFF  FEF,1ED
0663C:  MOVF   FF2,W
0663E:  MOVWF  00
06640:  BCF    FF2.7
06642:  CLRF   FAA
06644:  MOVFF  1EC,FA9
06648:  MOVFF  1ED,FA8
0664C:  BCF    FA6.6
0664E:  BCF    FA6.7
06650:  BSF    FA6.2
06652:  MOVLB  F
06654:  MOVLW  55
06656:  MOVWF  FA7
06658:  MOVLW  AA
0665A:  MOVWF  FA7
0665C:  BSF    FA6.1
0665E:  BTFSC  FA6.1
06660:  BRA    665E
06662:  BCF    FA6.2
06664:  MOVF   00,W
06666:  IORWF  FF2,F
06668:  CLRF   19
0666A:  BTFSC  FF2.7
0666C:  BSF    19.7
0666E:  BCF    FF2.7
....................          delay_ms(5); 
06670:  MOVLW  05
06672:  MOVLB  2
06674:  MOVWF  x20
06676:  MOVLB  0
06678:  CALL   1386
0667C:  BTFSC  19.7
0667E:  BSF    FF2.7
....................          printf("%c%c%c%c", 250, kk, 90, kk+90); // Apagamos  en la red 
06680:  MOVLW  5A
06682:  MOVLB  1
06684:  ADDWF  xEC,W
06686:  MOVWF  xED
06688:  MOVLW  FA
0668A:  MOVWF  xFB
0668C:  MOVLB  0
0668E:  CALL   2F82
06692:  MOVFF  1EC,1FB
06696:  CALL   2F82
0669A:  MOVLW  5A
0669C:  MOVLB  1
0669E:  MOVWF  xFB
066A0:  MOVLB  0
066A2:  CALL   2F82
066A6:  MOVFF  1ED,1FB
066AA:  CALL   2F82
066AE:  MOVLB  1
....................       } // si estaba prendido.. 
....................       } // si pertenece al grupo 
066B0:  INCF   xEC,F
066B2:  BRA    65CE
....................       } // for... 
....................    break; 
066B4:  BRA    6C4C
....................  
....................    case 23: // Grupo PRENDER EXTERIOR  
....................       for (kk=32;kk<94;kk++) { 
066B6:  MOVLW  20
066B8:  MOVLB  1
066BA:  MOVWF  xEC
066BC:  MOVF   xEC,W
066BE:  SUBLW  5D
066C0:  BNC   67A2
....................       if (bit_test(LGrupo[kk],2)){ // si pertenece al grupo 
066C2:  CLRF   03
066C4:  MOVF   xEC,W
066C6:  ADDLW  AC
066C8:  MOVWF  FE9
066CA:  MOVLW  00
066CC:  ADDWFC 03,W
066CE:  MOVWF  FEA
066D0:  MOVFF  FEF,1ED
066D4:  BTFSS  xED.2
066D6:  BRA    679E
....................       if (IntLuz[kk] < 99){ // estaba prendido 
066D8:  CLRF   03
066DA:  MOVF   xEC,W
066DC:  ADDLW  49
066DE:  MOVWF  FE9
066E0:  MOVLW  00
066E2:  ADDWFC 03,W
066E4:  MOVWF  FEA
066E6:  MOVF   FEF,W
066E8:  SUBLW  62
066EA:  BNC   679E
....................          IntLuz[kk] = IntLuz[kk] + 100; // apago en el arreglo en RAM 
066EC:  CLRF   03
066EE:  MOVF   xEC,W
066F0:  ADDLW  49
066F2:  MOVWF  01
066F4:  MOVLW  00
066F6:  ADDWFC 03,F
066F8:  MOVFF  03,1EE
066FC:  CLRF   03
066FE:  MOVF   xEC,W
06700:  ADDLW  49
06702:  MOVWF  FE9
06704:  MOVLW  00
06706:  ADDWFC 03,W
06708:  MOVWF  FEA
0670A:  MOVLW  64
0670C:  ADDWF  FEF,W
0670E:  MOVFF  1EE,FEA
06712:  MOVFF  01,FE9
06716:  MOVWF  FEF
....................          write_eeprom(kk,IntLuz[kk]); // apago en el arreglo en ROM 
06718:  CLRF   03
0671A:  MOVF   xEC,W
0671C:  ADDLW  49
0671E:  MOVWF  FE9
06720:  MOVLW  00
06722:  ADDWFC 03,W
06724:  MOVWF  FEA
06726:  MOVFF  FEF,1ED
0672A:  MOVF   FF2,W
0672C:  MOVWF  00
0672E:  BCF    FF2.7
06730:  CLRF   FAA
06732:  MOVFF  1EC,FA9
06736:  MOVFF  1ED,FA8
0673A:  BCF    FA6.6
0673C:  BCF    FA6.7
0673E:  BSF    FA6.2
06740:  MOVLB  F
06742:  MOVLW  55
06744:  MOVWF  FA7
06746:  MOVLW  AA
06748:  MOVWF  FA7
0674A:  BSF    FA6.1
0674C:  BTFSC  FA6.1
0674E:  BRA    674C
06750:  BCF    FA6.2
06752:  MOVF   00,W
06754:  IORWF  FF2,F
06756:  CLRF   19
06758:  BTFSC  FF2.7
0675A:  BSF    19.7
0675C:  BCF    FF2.7
....................          delay_ms(5); 
0675E:  MOVLW  05
06760:  MOVLB  2
06762:  MOVWF  x20
06764:  MOVLB  0
06766:  CALL   1386
0676A:  BTFSC  19.7
0676C:  BSF    FF2.7
....................          printf("%c%c%c%c", 250, kk, 90, kk+90); // Apagamos  en la red 
0676E:  MOVLW  5A
06770:  MOVLB  1
06772:  ADDWF  xEC,W
06774:  MOVWF  xED
06776:  MOVLW  FA
06778:  MOVWF  xFB
0677A:  MOVLB  0
0677C:  CALL   2F82
06780:  MOVFF  1EC,1FB
06784:  CALL   2F82
06788:  MOVLW  5A
0678A:  MOVLB  1
0678C:  MOVWF  xFB
0678E:  MOVLB  0
06790:  CALL   2F82
06794:  MOVFF  1ED,1FB
06798:  CALL   2F82
0679C:  MOVLB  1
....................       } // si estaba prendido.. 
....................       } // si pertenece al grupo 
0679E:  INCF   xEC,F
067A0:  BRA    66BC
....................       } // for... 
....................    break; 
067A2:  BRA    6C4C
....................  
....................    case 24: // Grupo PREDNER JARDIN  
....................       for (kk=32;kk<94;kk++) { 
067A4:  MOVLW  20
067A6:  MOVLB  1
067A8:  MOVWF  xEC
067AA:  MOVF   xEC,W
067AC:  SUBLW  5D
067AE:  BNC   6890
....................       if (bit_test(LGrupo[kk],3)){ // si pertenece al grupo 
067B0:  CLRF   03
067B2:  MOVF   xEC,W
067B4:  ADDLW  AC
067B6:  MOVWF  FE9
067B8:  MOVLW  00
067BA:  ADDWFC 03,W
067BC:  MOVWF  FEA
067BE:  MOVFF  FEF,1ED
067C2:  BTFSS  xED.3
067C4:  BRA    688C
....................       if (IntLuz[kk] < 99){ // estaba prendido 
067C6:  CLRF   03
067C8:  MOVF   xEC,W
067CA:  ADDLW  49
067CC:  MOVWF  FE9
067CE:  MOVLW  00
067D0:  ADDWFC 03,W
067D2:  MOVWF  FEA
067D4:  MOVF   FEF,W
067D6:  SUBLW  62
067D8:  BNC   688C
....................          IntLuz[kk] = IntLuz[kk] + 100; // apago en el arreglo en RAM 
067DA:  CLRF   03
067DC:  MOVF   xEC,W
067DE:  ADDLW  49
067E0:  MOVWF  01
067E2:  MOVLW  00
067E4:  ADDWFC 03,F
067E6:  MOVFF  03,1EE
067EA:  CLRF   03
067EC:  MOVF   xEC,W
067EE:  ADDLW  49
067F0:  MOVWF  FE9
067F2:  MOVLW  00
067F4:  ADDWFC 03,W
067F6:  MOVWF  FEA
067F8:  MOVLW  64
067FA:  ADDWF  FEF,W
067FC:  MOVFF  1EE,FEA
06800:  MOVFF  01,FE9
06804:  MOVWF  FEF
....................          write_eeprom(kk,IntLuz[kk]); // apago en el arreglo en ROM 
06806:  CLRF   03
06808:  MOVF   xEC,W
0680A:  ADDLW  49
0680C:  MOVWF  FE9
0680E:  MOVLW  00
06810:  ADDWFC 03,W
06812:  MOVWF  FEA
06814:  MOVFF  FEF,1ED
06818:  MOVF   FF2,W
0681A:  MOVWF  00
0681C:  BCF    FF2.7
0681E:  CLRF   FAA
06820:  MOVFF  1EC,FA9
06824:  MOVFF  1ED,FA8
06828:  BCF    FA6.6
0682A:  BCF    FA6.7
0682C:  BSF    FA6.2
0682E:  MOVLB  F
06830:  MOVLW  55
06832:  MOVWF  FA7
06834:  MOVLW  AA
06836:  MOVWF  FA7
06838:  BSF    FA6.1
0683A:  BTFSC  FA6.1
0683C:  BRA    683A
0683E:  BCF    FA6.2
06840:  MOVF   00,W
06842:  IORWF  FF2,F
06844:  CLRF   19
06846:  BTFSC  FF2.7
06848:  BSF    19.7
0684A:  BCF    FF2.7
....................          delay_ms(5); 
0684C:  MOVLW  05
0684E:  MOVLB  2
06850:  MOVWF  x20
06852:  MOVLB  0
06854:  CALL   1386
06858:  BTFSC  19.7
0685A:  BSF    FF2.7
....................          printf("%c%c%c%c", 250, kk, 90, kk+90); // Apagamos  en la red 
0685C:  MOVLW  5A
0685E:  MOVLB  1
06860:  ADDWF  xEC,W
06862:  MOVWF  xED
06864:  MOVLW  FA
06866:  MOVWF  xFB
06868:  MOVLB  0
0686A:  CALL   2F82
0686E:  MOVFF  1EC,1FB
06872:  CALL   2F82
06876:  MOVLW  5A
06878:  MOVLB  1
0687A:  MOVWF  xFB
0687C:  MOVLB  0
0687E:  CALL   2F82
06882:  MOVFF  1ED,1FB
06886:  CALL   2F82
0688A:  MOVLB  1
....................       } // si estaba prendido.. 
....................       } // si pertenece al grupo 
0688C:  INCF   xEC,F
0688E:  BRA    67AA
....................       } // for... 
....................    break; 
06890:  BRA    6C4C
....................  
....................    case 25: // Grupo PRENDER FRENTE  
....................       for (kk=32;kk<94;kk++) { 
06892:  MOVLW  20
06894:  MOVLB  1
06896:  MOVWF  xEC
06898:  MOVF   xEC,W
0689A:  SUBLW  5D
0689C:  BNC   697E
....................       if (bit_test(LGrupo[kk],4)){ // si pertenece al grupo 
0689E:  CLRF   03
068A0:  MOVF   xEC,W
068A2:  ADDLW  AC
068A4:  MOVWF  FE9
068A6:  MOVLW  00
068A8:  ADDWFC 03,W
068AA:  MOVWF  FEA
068AC:  MOVFF  FEF,1ED
068B0:  BTFSS  xED.4
068B2:  BRA    697A
....................       if (IntLuz[kk] < 99){ // estaba prendido 
068B4:  CLRF   03
068B6:  MOVF   xEC,W
068B8:  ADDLW  49
068BA:  MOVWF  FE9
068BC:  MOVLW  00
068BE:  ADDWFC 03,W
068C0:  MOVWF  FEA
068C2:  MOVF   FEF,W
068C4:  SUBLW  62
068C6:  BNC   697A
....................          IntLuz[kk] = IntLuz[kk] + 100; // apago en el arreglo en RAM 
068C8:  CLRF   03
068CA:  MOVF   xEC,W
068CC:  ADDLW  49
068CE:  MOVWF  01
068D0:  MOVLW  00
068D2:  ADDWFC 03,F
068D4:  MOVFF  03,1EE
068D8:  CLRF   03
068DA:  MOVF   xEC,W
068DC:  ADDLW  49
068DE:  MOVWF  FE9
068E0:  MOVLW  00
068E2:  ADDWFC 03,W
068E4:  MOVWF  FEA
068E6:  MOVLW  64
068E8:  ADDWF  FEF,W
068EA:  MOVFF  1EE,FEA
068EE:  MOVFF  01,FE9
068F2:  MOVWF  FEF
....................          write_eeprom(kk,IntLuz[kk]); // apago en el arreglo en ROM 
068F4:  CLRF   03
068F6:  MOVF   xEC,W
068F8:  ADDLW  49
068FA:  MOVWF  FE9
068FC:  MOVLW  00
068FE:  ADDWFC 03,W
06900:  MOVWF  FEA
06902:  MOVFF  FEF,1ED
06906:  MOVF   FF2,W
06908:  MOVWF  00
0690A:  BCF    FF2.7
0690C:  CLRF   FAA
0690E:  MOVFF  1EC,FA9
06912:  MOVFF  1ED,FA8
06916:  BCF    FA6.6
06918:  BCF    FA6.7
0691A:  BSF    FA6.2
0691C:  MOVLB  F
0691E:  MOVLW  55
06920:  MOVWF  FA7
06922:  MOVLW  AA
06924:  MOVWF  FA7
06926:  BSF    FA6.1
06928:  BTFSC  FA6.1
0692A:  BRA    6928
0692C:  BCF    FA6.2
0692E:  MOVF   00,W
06930:  IORWF  FF2,F
06932:  CLRF   19
06934:  BTFSC  FF2.7
06936:  BSF    19.7
06938:  BCF    FF2.7
....................          delay_ms(5); 
0693A:  MOVLW  05
0693C:  MOVLB  2
0693E:  MOVWF  x20
06940:  MOVLB  0
06942:  CALL   1386
06946:  BTFSC  19.7
06948:  BSF    FF2.7
....................          printf("%c%c%c%c", 250, kk, 90, kk+90); // Apagamos  en la red 
0694A:  MOVLW  5A
0694C:  MOVLB  1
0694E:  ADDWF  xEC,W
06950:  MOVWF  xED
06952:  MOVLW  FA
06954:  MOVWF  xFB
06956:  MOVLB  0
06958:  CALL   2F82
0695C:  MOVFF  1EC,1FB
06960:  CALL   2F82
06964:  MOVLW  5A
06966:  MOVLB  1
06968:  MOVWF  xFB
0696A:  MOVLB  0
0696C:  CALL   2F82
06970:  MOVFF  1ED,1FB
06974:  CALL   2F82
06978:  MOVLB  1
....................       } // si estaba prendido.. 
....................       } // si pertenece al grupo 
0697A:  INCF   xEC,F
0697C:  BRA    6898
....................       } // for... 
....................    break; 
0697E:  BRA    6C4C
....................  
....................    case 26: // Grupo APAGAR PASILLOS  
....................       for (kk=32;kk<94;kk++) { 
06980:  MOVLW  20
06982:  MOVLB  1
06984:  MOVWF  xEC
06986:  MOVF   xEC,W
06988:  SUBLW  5D
0698A:  BNC   6A6C
....................       if (bit_test(LGrupo[kk],5)){ // si pertenece al grupo 
0698C:  CLRF   03
0698E:  MOVF   xEC,W
06990:  ADDLW  AC
06992:  MOVWF  FE9
06994:  MOVLW  00
06996:  ADDWFC 03,W
06998:  MOVWF  FEA
0699A:  MOVFF  FEF,1ED
0699E:  BTFSS  xED.5
069A0:  BRA    6A68
....................       if (IntLuz[kk] < 99){ // estaba prendido 
069A2:  CLRF   03
069A4:  MOVF   xEC,W
069A6:  ADDLW  49
069A8:  MOVWF  FE9
069AA:  MOVLW  00
069AC:  ADDWFC 03,W
069AE:  MOVWF  FEA
069B0:  MOVF   FEF,W
069B2:  SUBLW  62
069B4:  BNC   6A68
....................          IntLuz[kk] = IntLuz[kk] + 100; // apago en el arreglo en RAM 
069B6:  CLRF   03
069B8:  MOVF   xEC,W
069BA:  ADDLW  49
069BC:  MOVWF  01
069BE:  MOVLW  00
069C0:  ADDWFC 03,F
069C2:  MOVFF  03,1EE
069C6:  CLRF   03
069C8:  MOVF   xEC,W
069CA:  ADDLW  49
069CC:  MOVWF  FE9
069CE:  MOVLW  00
069D0:  ADDWFC 03,W
069D2:  MOVWF  FEA
069D4:  MOVLW  64
069D6:  ADDWF  FEF,W
069D8:  MOVFF  1EE,FEA
069DC:  MOVFF  01,FE9
069E0:  MOVWF  FEF
....................          write_eeprom(kk,IntLuz[kk]); // apago en el arreglo en ROM 
069E2:  CLRF   03
069E4:  MOVF   xEC,W
069E6:  ADDLW  49
069E8:  MOVWF  FE9
069EA:  MOVLW  00
069EC:  ADDWFC 03,W
069EE:  MOVWF  FEA
069F0:  MOVFF  FEF,1ED
069F4:  MOVF   FF2,W
069F6:  MOVWF  00
069F8:  BCF    FF2.7
069FA:  CLRF   FAA
069FC:  MOVFF  1EC,FA9
06A00:  MOVFF  1ED,FA8
06A04:  BCF    FA6.6
06A06:  BCF    FA6.7
06A08:  BSF    FA6.2
06A0A:  MOVLB  F
06A0C:  MOVLW  55
06A0E:  MOVWF  FA7
06A10:  MOVLW  AA
06A12:  MOVWF  FA7
06A14:  BSF    FA6.1
06A16:  BTFSC  FA6.1
06A18:  BRA    6A16
06A1A:  BCF    FA6.2
06A1C:  MOVF   00,W
06A1E:  IORWF  FF2,F
06A20:  CLRF   19
06A22:  BTFSC  FF2.7
06A24:  BSF    19.7
06A26:  BCF    FF2.7
....................          delay_ms(5); 
06A28:  MOVLW  05
06A2A:  MOVLB  2
06A2C:  MOVWF  x20
06A2E:  MOVLB  0
06A30:  CALL   1386
06A34:  BTFSC  19.7
06A36:  BSF    FF2.7
....................          printf("%c%c%c%c", 250, kk, 90, kk+90); // Apagamos  en la red 
06A38:  MOVLW  5A
06A3A:  MOVLB  1
06A3C:  ADDWF  xEC,W
06A3E:  MOVWF  xED
06A40:  MOVLW  FA
06A42:  MOVWF  xFB
06A44:  MOVLB  0
06A46:  CALL   2F82
06A4A:  MOVFF  1EC,1FB
06A4E:  CALL   2F82
06A52:  MOVLW  5A
06A54:  MOVLB  1
06A56:  MOVWF  xFB
06A58:  MOVLB  0
06A5A:  CALL   2F82
06A5E:  MOVFF  1ED,1FB
06A62:  CALL   2F82
06A66:  MOVLB  1
....................       } // si estaba prendido.. 
....................       } // si pertenece al grupo 
06A68:  INCF   xEC,F
06A6A:  BRA    6986
....................       } // for... 
....................    break; 
06A6C:  BRA    6C4C
....................  
....................    case 27: // Grupo APAGAR AUTO1  
....................       for (kk=32;kk<94;kk++) { 
06A6E:  MOVLW  20
06A70:  MOVLB  1
06A72:  MOVWF  xEC
06A74:  MOVF   xEC,W
06A76:  SUBLW  5D
06A78:  BNC   6B5A
....................       if (bit_test(LGrupo[kk],6)){ // si pertenece al grupo 
06A7A:  CLRF   03
06A7C:  MOVF   xEC,W
06A7E:  ADDLW  AC
06A80:  MOVWF  FE9
06A82:  MOVLW  00
06A84:  ADDWFC 03,W
06A86:  MOVWF  FEA
06A88:  MOVFF  FEF,1ED
06A8C:  BTFSS  xED.6
06A8E:  BRA    6B56
....................       if (IntLuz[kk] < 99){ // estaba prendido 
06A90:  CLRF   03
06A92:  MOVF   xEC,W
06A94:  ADDLW  49
06A96:  MOVWF  FE9
06A98:  MOVLW  00
06A9A:  ADDWFC 03,W
06A9C:  MOVWF  FEA
06A9E:  MOVF   FEF,W
06AA0:  SUBLW  62
06AA2:  BNC   6B56
....................          IntLuz[kk] = IntLuz[kk] + 100; // apago en el arreglo en RAM 
06AA4:  CLRF   03
06AA6:  MOVF   xEC,W
06AA8:  ADDLW  49
06AAA:  MOVWF  01
06AAC:  MOVLW  00
06AAE:  ADDWFC 03,F
06AB0:  MOVFF  03,1EE
06AB4:  CLRF   03
06AB6:  MOVF   xEC,W
06AB8:  ADDLW  49
06ABA:  MOVWF  FE9
06ABC:  MOVLW  00
06ABE:  ADDWFC 03,W
06AC0:  MOVWF  FEA
06AC2:  MOVLW  64
06AC4:  ADDWF  FEF,W
06AC6:  MOVFF  1EE,FEA
06ACA:  MOVFF  01,FE9
06ACE:  MOVWF  FEF
....................          write_eeprom(kk,IntLuz[kk]); // apago en el arreglo en ROM 
06AD0:  CLRF   03
06AD2:  MOVF   xEC,W
06AD4:  ADDLW  49
06AD6:  MOVWF  FE9
06AD8:  MOVLW  00
06ADA:  ADDWFC 03,W
06ADC:  MOVWF  FEA
06ADE:  MOVFF  FEF,1ED
06AE2:  MOVF   FF2,W
06AE4:  MOVWF  00
06AE6:  BCF    FF2.7
06AE8:  CLRF   FAA
06AEA:  MOVFF  1EC,FA9
06AEE:  MOVFF  1ED,FA8
06AF2:  BCF    FA6.6
06AF4:  BCF    FA6.7
06AF6:  BSF    FA6.2
06AF8:  MOVLB  F
06AFA:  MOVLW  55
06AFC:  MOVWF  FA7
06AFE:  MOVLW  AA
06B00:  MOVWF  FA7
06B02:  BSF    FA6.1
06B04:  BTFSC  FA6.1
06B06:  BRA    6B04
06B08:  BCF    FA6.2
06B0A:  MOVF   00,W
06B0C:  IORWF  FF2,F
06B0E:  CLRF   19
06B10:  BTFSC  FF2.7
06B12:  BSF    19.7
06B14:  BCF    FF2.7
....................          delay_ms(5); 
06B16:  MOVLW  05
06B18:  MOVLB  2
06B1A:  MOVWF  x20
06B1C:  MOVLB  0
06B1E:  CALL   1386
06B22:  BTFSC  19.7
06B24:  BSF    FF2.7
....................          printf("%c%c%c%c", 250, kk, 90, kk+90); // Apagamos  en la red 
06B26:  MOVLW  5A
06B28:  MOVLB  1
06B2A:  ADDWF  xEC,W
06B2C:  MOVWF  xED
06B2E:  MOVLW  FA
06B30:  MOVWF  xFB
06B32:  MOVLB  0
06B34:  CALL   2F82
06B38:  MOVFF  1EC,1FB
06B3C:  CALL   2F82
06B40:  MOVLW  5A
06B42:  MOVLB  1
06B44:  MOVWF  xFB
06B46:  MOVLB  0
06B48:  CALL   2F82
06B4C:  MOVFF  1ED,1FB
06B50:  CALL   2F82
06B54:  MOVLB  1
....................       } // si estaba prendido.. 
....................       } // si pertenece al grupo 
06B56:  INCF   xEC,F
06B58:  BRA    6A74
....................       } // for... 
....................    break; 
06B5A:  BRA    6C4C
....................  
....................    case 28: // Grupo APAGAR AUTO2  
....................       for (kk=32;kk<94;kk++) { 
06B5C:  MOVLW  20
06B5E:  MOVLB  1
06B60:  MOVWF  xEC
06B62:  MOVF   xEC,W
06B64:  SUBLW  5D
06B66:  BNC   6C48
....................       if (bit_test(LGrupo[kk],7)){ // si pertenece al grupo 
06B68:  CLRF   03
06B6A:  MOVF   xEC,W
06B6C:  ADDLW  AC
06B6E:  MOVWF  FE9
06B70:  MOVLW  00
06B72:  ADDWFC 03,W
06B74:  MOVWF  FEA
06B76:  MOVFF  FEF,1ED
06B7A:  BTFSS  xED.7
06B7C:  BRA    6C44
....................       if (IntLuz[kk] < 99){ // estaba prendido 
06B7E:  CLRF   03
06B80:  MOVF   xEC,W
06B82:  ADDLW  49
06B84:  MOVWF  FE9
06B86:  MOVLW  00
06B88:  ADDWFC 03,W
06B8A:  MOVWF  FEA
06B8C:  MOVF   FEF,W
06B8E:  SUBLW  62
06B90:  BNC   6C44
....................          IntLuz[kk] = IntLuz[kk] + 100; // apago en el arreglo en RAM 
06B92:  CLRF   03
06B94:  MOVF   xEC,W
06B96:  ADDLW  49
06B98:  MOVWF  01
06B9A:  MOVLW  00
06B9C:  ADDWFC 03,F
06B9E:  MOVFF  03,1EE
06BA2:  CLRF   03
06BA4:  MOVF   xEC,W
06BA6:  ADDLW  49
06BA8:  MOVWF  FE9
06BAA:  MOVLW  00
06BAC:  ADDWFC 03,W
06BAE:  MOVWF  FEA
06BB0:  MOVLW  64
06BB2:  ADDWF  FEF,W
06BB4:  MOVFF  1EE,FEA
06BB8:  MOVFF  01,FE9
06BBC:  MOVWF  FEF
....................          write_eeprom(kk,IntLuz[kk]); // apago en el arreglo en ROM 
06BBE:  CLRF   03
06BC0:  MOVF   xEC,W
06BC2:  ADDLW  49
06BC4:  MOVWF  FE9
06BC6:  MOVLW  00
06BC8:  ADDWFC 03,W
06BCA:  MOVWF  FEA
06BCC:  MOVFF  FEF,1ED
06BD0:  MOVF   FF2,W
06BD2:  MOVWF  00
06BD4:  BCF    FF2.7
06BD6:  CLRF   FAA
06BD8:  MOVFF  1EC,FA9
06BDC:  MOVFF  1ED,FA8
06BE0:  BCF    FA6.6
06BE2:  BCF    FA6.7
06BE4:  BSF    FA6.2
06BE6:  MOVLB  F
06BE8:  MOVLW  55
06BEA:  MOVWF  FA7
06BEC:  MOVLW  AA
06BEE:  MOVWF  FA7
06BF0:  BSF    FA6.1
06BF2:  BTFSC  FA6.1
06BF4:  BRA    6BF2
06BF6:  BCF    FA6.2
06BF8:  MOVF   00,W
06BFA:  IORWF  FF2,F
06BFC:  CLRF   19
06BFE:  BTFSC  FF2.7
06C00:  BSF    19.7
06C02:  BCF    FF2.7
....................          delay_ms(5); 
06C04:  MOVLW  05
06C06:  MOVLB  2
06C08:  MOVWF  x20
06C0A:  MOVLB  0
06C0C:  CALL   1386
06C10:  BTFSC  19.7
06C12:  BSF    FF2.7
....................          printf("%c%c%c%c", 250, kk, 90, kk+90); // Apagamos  en la red 
06C14:  MOVLW  5A
06C16:  MOVLB  1
06C18:  ADDWF  xEC,W
06C1A:  MOVWF  xED
06C1C:  MOVLW  FA
06C1E:  MOVWF  xFB
06C20:  MOVLB  0
06C22:  CALL   2F82
06C26:  MOVFF  1EC,1FB
06C2A:  CALL   2F82
06C2E:  MOVLW  5A
06C30:  MOVLB  1
06C32:  MOVWF  xFB
06C34:  MOVLB  0
06C36:  CALL   2F82
06C3A:  MOVFF  1ED,1FB
06C3E:  CALL   2F82
06C42:  MOVLB  1
....................       } // si estaba prendido.. 
....................       } // si pertenece al grupo 
06C44:  INCF   xEC,F
06C46:  BRA    6B62
....................       } // for... 
....................    break; 
06C48:  BRA    6C4C
06C4A:  MOVLB  1
.................... } // switch 
.................... if (submenu < 10) submenu = submenu + 10; 
06C4C:  MOVF   xEB,W
06C4E:  SUBLW  09
06C50:  BNC   6C56
06C52:  MOVLW  0A
06C54:  ADDWF  xEB,F
.................... Rebote = true; 
06C56:  BSF    35.0
.................... } // si ok 
.................... } //rebote falso 
....................  
.................... if (Rebote == false){ 
06C58:  BTFSC  35.0
06C5A:  BRA    6C86
.................... if (input(CANCEL) == 0){ // salgo al toque con cancel 
06C5C:  BSF    F93.3
06C5E:  BTFSC  F81.3
06C60:  BRA    6C86
.................... if (submenu < 10) { 
06C62:  MOVF   xEB,W
06C64:  SUBLW  09
06C66:  BNC   6C70
.................... Menu = 32; 
06C68:  MOVLW  20
06C6A:  MOVWF  28
.................... submenu = 100; 
06C6C:  MOVLW  64
06C6E:  MOVWF  xEB
.................... }  
.................... if (submenu > 10) submenu = submenu - 10; 
06C70:  MOVF   xEB,W
06C72:  SUBLW  0A
06C74:  BC    6C7A
06C76:  MOVLW  0A
06C78:  SUBWF  xEB,F
.................... if (submenu > 10) submenu = submenu - 10; 
06C7A:  MOVF   xEB,W
06C7C:  SUBLW  0A
06C7E:  BC    6C84
06C80:  MOVLW  0A
06C82:  SUBWF  xEB,F
.................... Rebote = true; 
06C84:  BSF    35.0
.................... } // si cancel 
.................... } 
....................  
....................  
.................... if (Rebote == false){ 
06C86:  BTFSC  35.0
06C88:  BRA    6CB6
.................... if (input(ARRIBA) == 0){ // aprieto arriba 
06C8A:  BSF    F93.0
06C8C:  BTFSC  F81.0
06C8E:  BRA    6CB6
.................... if (submenu < 10) { // es menor que 10 
06C90:  MOVF   xEB,W
06C92:  SUBLW  09
06C94:  BNC   6CA4
.................... submenu = submenu - 1; 
06C96:  MOVLW  01
06C98:  SUBWF  xEB,F
.................... if (submenu == 0) submenu = 1; 
06C9A:  MOVF   xEB,F
06C9C:  BNZ   6CA2
06C9E:  MOVLW  01
06CA0:  MOVWF  xEB
.................... } else { // submenu es mayor que 10 
06CA2:  BRA    6CB4
.................... if (submenu > 20){ 
06CA4:  MOVF   xEB,W
06CA6:  SUBLW  14
06CA8:  BC    6CB0
.................... submenu = submenu - 10; 
06CAA:  MOVLW  0A
06CAC:  SUBWF  xEB,F
.................... } else submenu = submenu + 10; 
06CAE:  BRA    6CB4
06CB0:  MOVLW  0A
06CB2:  ADDWF  xEB,F
.................... } 
.................... Rebote = true; 
06CB4:  BSF    35.0
.................... } // si Arriba 
.................... } // rebote falso 
....................  
....................  
....................  
.................... if (Rebote == false){ 
06CB6:  BTFSC  35.0
06CB8:  BRA    6CE8
.................... if (input(ABAJO) == 0){ // aprieto abajo 
06CBA:  BSF    F93.1
06CBC:  BTFSC  F81.1
06CBE:  BRA    6CE8
.................... if (submenu < 10) { // es menor que 10 
06CC0:  MOVF   xEB,W
06CC2:  SUBLW  09
06CC4:  BNC   6CD6
.................... submenu = submenu + 1; 
06CC6:  MOVLW  01
06CC8:  ADDWF  xEB,F
.................... if (submenu == 9) submenu = 8; 
06CCA:  MOVF   xEB,W
06CCC:  SUBLW  09
06CCE:  BNZ   6CD4
06CD0:  MOVLW  08
06CD2:  MOVWF  xEB
.................... } else { // submenu es mayor que 10 
06CD4:  BRA    6CE6
.................... if (submenu > 20){ 
06CD6:  MOVF   xEB,W
06CD8:  SUBLW  14
06CDA:  BC    6CE2
.................... submenu = submenu - 10; 
06CDC:  MOVLW  0A
06CDE:  SUBWF  xEB,F
.................... } else submenu = submenu + 10; 
06CE0:  BRA    6CE6
06CE2:  MOVLW  0A
06CE4:  ADDWF  xEB,F
.................... } 
.................... Rebote = true; 
06CE6:  BSF    35.0
.................... } // si Arriba 
.................... } // rebote falso 
....................  
.................... ////////////////////////////////// GRAFICA //////////////////////////////////////// 
.................... lcd_gotoxy(1,1); 
06CE8:  MOVLW  01
06CEA:  MOVLB  2
06CEC:  MOVWF  x0E
06CEE:  MOVWF  x0F
06CF0:  MOVLB  0
06CF2:  CALL   2E90
.................... printf(lcd_putc, "== Control Grupal =="); 
06CF6:  MOVLW  A8
06CF8:  MOVWF  FF6
06CFA:  MOVLW  08
06CFC:  MOVWF  FF7
06CFE:  CALL   2F62
.................... lcd_gotoxy(1,2); 
06D02:  MOVLW  01
06D04:  MOVLB  2
06D06:  MOVWF  x0E
06D08:  MOVLW  02
06D0A:  MOVWF  x0F
06D0C:  MOVLB  0
06D0E:  CALL   2E90
.................... if ((submenu == 11) || (submenu == 21)) printf(lcd_putc, "   %cGrupo? TODAS    ",143); 
06D12:  MOVLB  1
06D14:  MOVF   xEB,W
06D16:  SUBLW  0B
06D18:  BZ    6D20
06D1A:  MOVF   xEB,W
06D1C:  SUBLW  15
06D1E:  BNZ   6D56
06D20:  MOVLW  BE
06D22:  MOVWF  FF6
06D24:  MOVLW  08
06D26:  MOVWF  FF7
06D28:  MOVLW  03
06D2A:  MOVLB  2
06D2C:  MOVWF  x0A
06D2E:  MOVLB  0
06D30:  CALL   3496
06D34:  MOVLW  8F
06D36:  MOVLB  2
06D38:  MOVWF  x0D
06D3A:  MOVLB  0
06D3C:  CALL   2EFA
06D40:  MOVLW  C3
06D42:  MOVWF  FF6
06D44:  MOVLW  08
06D46:  MOVWF  FF7
06D48:  MOVLW  10
06D4A:  MOVLB  2
06D4C:  MOVWF  x0A
06D4E:  MOVLB  0
06D50:  CALL   3496
06D54:  MOVLB  1
.................... if ((submenu == 12) || (submenu == 22)) printf(lcd_putc, "   %cGrupo? INTERIOR ",143); 
06D56:  MOVF   xEB,W
06D58:  SUBLW  0C
06D5A:  BZ    6D62
06D5C:  MOVF   xEB,W
06D5E:  SUBLW  16
06D60:  BNZ   6D98
06D62:  MOVLW  D4
06D64:  MOVWF  FF6
06D66:  MOVLW  08
06D68:  MOVWF  FF7
06D6A:  MOVLW  03
06D6C:  MOVLB  2
06D6E:  MOVWF  x0A
06D70:  MOVLB  0
06D72:  CALL   3496
06D76:  MOVLW  8F
06D78:  MOVLB  2
06D7A:  MOVWF  x0D
06D7C:  MOVLB  0
06D7E:  CALL   2EFA
06D82:  MOVLW  D9
06D84:  MOVWF  FF6
06D86:  MOVLW  08
06D88:  MOVWF  FF7
06D8A:  MOVLW  10
06D8C:  MOVLB  2
06D8E:  MOVWF  x0A
06D90:  MOVLB  0
06D92:  CALL   3496
06D96:  MOVLB  1
.................... if ((submenu == 13) || (submenu == 23)) printf(lcd_putc, "   %cGrupo? EXTERIOR ",143); 
06D98:  MOVF   xEB,W
06D9A:  SUBLW  0D
06D9C:  BZ    6DA4
06D9E:  MOVF   xEB,W
06DA0:  SUBLW  17
06DA2:  BNZ   6DDA
06DA4:  MOVLW  EA
06DA6:  MOVWF  FF6
06DA8:  MOVLW  08
06DAA:  MOVWF  FF7
06DAC:  MOVLW  03
06DAE:  MOVLB  2
06DB0:  MOVWF  x0A
06DB2:  MOVLB  0
06DB4:  CALL   3496
06DB8:  MOVLW  8F
06DBA:  MOVLB  2
06DBC:  MOVWF  x0D
06DBE:  MOVLB  0
06DC0:  CALL   2EFA
06DC4:  MOVLW  EF
06DC6:  MOVWF  FF6
06DC8:  MOVLW  08
06DCA:  MOVWF  FF7
06DCC:  MOVLW  10
06DCE:  MOVLB  2
06DD0:  MOVWF  x0A
06DD2:  MOVLB  0
06DD4:  CALL   3496
06DD8:  MOVLB  1
.................... if ((submenu == 14) || (submenu == 24)) printf(lcd_putc, "   %cGrupo? JARDIN   ",143); 
06DDA:  MOVF   xEB,W
06DDC:  SUBLW  0E
06DDE:  BZ    6DE6
06DE0:  MOVF   xEB,W
06DE2:  SUBLW  18
06DE4:  BNZ   6E1C
06DE6:  MOVLW  00
06DE8:  MOVWF  FF6
06DEA:  MOVLW  09
06DEC:  MOVWF  FF7
06DEE:  MOVLW  03
06DF0:  MOVLB  2
06DF2:  MOVWF  x0A
06DF4:  MOVLB  0
06DF6:  CALL   3496
06DFA:  MOVLW  8F
06DFC:  MOVLB  2
06DFE:  MOVWF  x0D
06E00:  MOVLB  0
06E02:  CALL   2EFA
06E06:  MOVLW  05
06E08:  MOVWF  FF6
06E0A:  MOVLW  09
06E0C:  MOVWF  FF7
06E0E:  MOVLW  10
06E10:  MOVLB  2
06E12:  MOVWF  x0A
06E14:  MOVLB  0
06E16:  CALL   3496
06E1A:  MOVLB  1
.................... if ((submenu == 15) || (submenu == 25)) printf(lcd_putc, "   %cGrupo? FRENTE   ",143); 
06E1C:  MOVF   xEB,W
06E1E:  SUBLW  0F
06E20:  BZ    6E28
06E22:  MOVF   xEB,W
06E24:  SUBLW  19
06E26:  BNZ   6E5E
06E28:  MOVLW  16
06E2A:  MOVWF  FF6
06E2C:  MOVLW  09
06E2E:  MOVWF  FF7
06E30:  MOVLW  03
06E32:  MOVLB  2
06E34:  MOVWF  x0A
06E36:  MOVLB  0
06E38:  CALL   3496
06E3C:  MOVLW  8F
06E3E:  MOVLB  2
06E40:  MOVWF  x0D
06E42:  MOVLB  0
06E44:  CALL   2EFA
06E48:  MOVLW  1B
06E4A:  MOVWF  FF6
06E4C:  MOVLW  09
06E4E:  MOVWF  FF7
06E50:  MOVLW  10
06E52:  MOVLB  2
06E54:  MOVWF  x0A
06E56:  MOVLB  0
06E58:  CALL   3496
06E5C:  MOVLB  1
.................... if ((submenu == 16) || (submenu == 26)) printf(lcd_putc, "   %cGrupo? PASILLOS ",143); 
06E5E:  MOVF   xEB,W
06E60:  SUBLW  10
06E62:  BZ    6E6A
06E64:  MOVF   xEB,W
06E66:  SUBLW  1A
06E68:  BNZ   6EA0
06E6A:  MOVLW  2C
06E6C:  MOVWF  FF6
06E6E:  MOVLW  09
06E70:  MOVWF  FF7
06E72:  MOVLW  03
06E74:  MOVLB  2
06E76:  MOVWF  x0A
06E78:  MOVLB  0
06E7A:  CALL   3496
06E7E:  MOVLW  8F
06E80:  MOVLB  2
06E82:  MOVWF  x0D
06E84:  MOVLB  0
06E86:  CALL   2EFA
06E8A:  MOVLW  31
06E8C:  MOVWF  FF6
06E8E:  MOVLW  09
06E90:  MOVWF  FF7
06E92:  MOVLW  10
06E94:  MOVLB  2
06E96:  MOVWF  x0A
06E98:  MOVLB  0
06E9A:  CALL   3496
06E9E:  MOVLB  1
.................... if ((submenu == 17) || (submenu == 27)) printf(lcd_putc, "   %cGrupo? AUTO (1) ",143); 
06EA0:  MOVF   xEB,W
06EA2:  SUBLW  11
06EA4:  BZ    6EAC
06EA6:  MOVF   xEB,W
06EA8:  SUBLW  1B
06EAA:  BNZ   6EE2
06EAC:  MOVLW  42
06EAE:  MOVWF  FF6
06EB0:  MOVLW  09
06EB2:  MOVWF  FF7
06EB4:  MOVLW  03
06EB6:  MOVLB  2
06EB8:  MOVWF  x0A
06EBA:  MOVLB  0
06EBC:  CALL   3496
06EC0:  MOVLW  8F
06EC2:  MOVLB  2
06EC4:  MOVWF  x0D
06EC6:  MOVLB  0
06EC8:  CALL   2EFA
06ECC:  MOVLW  47
06ECE:  MOVWF  FF6
06ED0:  MOVLW  09
06ED2:  MOVWF  FF7
06ED4:  MOVLW  10
06ED6:  MOVLB  2
06ED8:  MOVWF  x0A
06EDA:  MOVLB  0
06EDC:  CALL   3496
06EE0:  MOVLB  1
.................... if ((submenu == 18) || (submenu == 28)) printf(lcd_putc, "   %cGrupo? AUTO (2) ",143); 
06EE2:  MOVF   xEB,W
06EE4:  SUBLW  12
06EE6:  BZ    6EEE
06EE8:  MOVF   xEB,W
06EEA:  SUBLW  1C
06EEC:  BNZ   6F24
06EEE:  MOVLW  58
06EF0:  MOVWF  FF6
06EF2:  MOVLW  09
06EF4:  MOVWF  FF7
06EF6:  MOVLW  03
06EF8:  MOVLB  2
06EFA:  MOVWF  x0A
06EFC:  MOVLB  0
06EFE:  CALL   3496
06F02:  MOVLW  8F
06F04:  MOVLB  2
06F06:  MOVWF  x0D
06F08:  MOVLB  0
06F0A:  CALL   2EFA
06F0E:  MOVLW  5D
06F10:  MOVWF  FF6
06F12:  MOVLW  09
06F14:  MOVWF  FF7
06F16:  MOVLW  10
06F18:  MOVLB  2
06F1A:  MOVWF  x0A
06F1C:  MOVLB  0
06F1E:  CALL   3496
06F22:  MOVLB  1
.................... if (submenu == 1) { 
06F24:  DECFSZ xEB,W
06F26:  BRA    6F9A
.................... if (bit_test(tiempo1,0)) printf(lcd_putc, " ~ %cGrupo? TODAS    ",143); 
06F28:  BTFSS  48.0
06F2A:  BRA    6F64
06F2C:  MOVLW  6E
06F2E:  MOVWF  FF6
06F30:  MOVLW  09
06F32:  MOVWF  FF7
06F34:  MOVLW  03
06F36:  MOVLB  2
06F38:  MOVWF  x0A
06F3A:  MOVLB  0
06F3C:  CALL   3496
06F40:  MOVLW  8F
06F42:  MOVLB  2
06F44:  MOVWF  x0D
06F46:  MOVLB  0
06F48:  CALL   2EFA
06F4C:  MOVLW  73
06F4E:  MOVWF  FF6
06F50:  MOVLW  09
06F52:  MOVWF  FF7
06F54:  MOVLW  10
06F56:  MOVLB  2
06F58:  MOVWF  x0A
06F5A:  MOVLB  0
06F5C:  CALL   3496
06F60:  BRA    6F98
06F62:  MOVLB  1
.................... else printf(lcd_putc, " ~ %cGrupo?          ",143); 
06F64:  MOVLW  84
06F66:  MOVWF  FF6
06F68:  MOVLW  09
06F6A:  MOVWF  FF7
06F6C:  MOVLW  03
06F6E:  MOVLB  2
06F70:  MOVWF  x0A
06F72:  MOVLB  0
06F74:  CALL   3496
06F78:  MOVLW  8F
06F7A:  MOVLB  2
06F7C:  MOVWF  x0D
06F7E:  MOVLB  0
06F80:  CALL   2EFA
06F84:  MOVLW  89
06F86:  MOVWF  FF6
06F88:  MOVLW  09
06F8A:  MOVWF  FF7
06F8C:  MOVLW  10
06F8E:  MOVLB  2
06F90:  MOVWF  x0A
06F92:  MOVLB  0
06F94:  CALL   3496
06F98:  MOVLB  1
.................... } 
.................... if (submenu == 2) { 
06F9A:  MOVF   xEB,W
06F9C:  SUBLW  02
06F9E:  BNZ   7012
.................... if (bit_test(tiempo1,0)) printf(lcd_putc, " ~ %cGrupo? INTERIOR ",143); 
06FA0:  BTFSS  48.0
06FA2:  BRA    6FDC
06FA4:  MOVLW  9A
06FA6:  MOVWF  FF6
06FA8:  MOVLW  09
06FAA:  MOVWF  FF7
06FAC:  MOVLW  03
06FAE:  MOVLB  2
06FB0:  MOVWF  x0A
06FB2:  MOVLB  0
06FB4:  CALL   3496
06FB8:  MOVLW  8F
06FBA:  MOVLB  2
06FBC:  MOVWF  x0D
06FBE:  MOVLB  0
06FC0:  CALL   2EFA
06FC4:  MOVLW  9F
06FC6:  MOVWF  FF6
06FC8:  MOVLW  09
06FCA:  MOVWF  FF7
06FCC:  MOVLW  10
06FCE:  MOVLB  2
06FD0:  MOVWF  x0A
06FD2:  MOVLB  0
06FD4:  CALL   3496
06FD8:  BRA    7010
06FDA:  MOVLB  1
.................... else printf(lcd_putc, " ~ %cGrupo?          ",143); 
06FDC:  MOVLW  B0
06FDE:  MOVWF  FF6
06FE0:  MOVLW  09
06FE2:  MOVWF  FF7
06FE4:  MOVLW  03
06FE6:  MOVLB  2
06FE8:  MOVWF  x0A
06FEA:  MOVLB  0
06FEC:  CALL   3496
06FF0:  MOVLW  8F
06FF2:  MOVLB  2
06FF4:  MOVWF  x0D
06FF6:  MOVLB  0
06FF8:  CALL   2EFA
06FFC:  MOVLW  B5
06FFE:  MOVWF  FF6
07000:  MOVLW  09
07002:  MOVWF  FF7
07004:  MOVLW  10
07006:  MOVLB  2
07008:  MOVWF  x0A
0700A:  MOVLB  0
0700C:  CALL   3496
07010:  MOVLB  1
.................... } 
.................... if (submenu == 3) { 
07012:  MOVF   xEB,W
07014:  SUBLW  03
07016:  BNZ   708A
.................... if (bit_test(tiempo1,0)) printf(lcd_putc, " ~ %cGrupo? EXTERIOR ",143); 
07018:  BTFSS  48.0
0701A:  BRA    7054
0701C:  MOVLW  C6
0701E:  MOVWF  FF6
07020:  MOVLW  09
07022:  MOVWF  FF7
07024:  MOVLW  03
07026:  MOVLB  2
07028:  MOVWF  x0A
0702A:  MOVLB  0
0702C:  CALL   3496
07030:  MOVLW  8F
07032:  MOVLB  2
07034:  MOVWF  x0D
07036:  MOVLB  0
07038:  CALL   2EFA
0703C:  MOVLW  CB
0703E:  MOVWF  FF6
07040:  MOVLW  09
07042:  MOVWF  FF7
07044:  MOVLW  10
07046:  MOVLB  2
07048:  MOVWF  x0A
0704A:  MOVLB  0
0704C:  CALL   3496
07050:  BRA    7088
07052:  MOVLB  1
.................... else printf(lcd_putc, " ~ %cGrupo?          ",143); 
07054:  MOVLW  DC
07056:  MOVWF  FF6
07058:  MOVLW  09
0705A:  MOVWF  FF7
0705C:  MOVLW  03
0705E:  MOVLB  2
07060:  MOVWF  x0A
07062:  MOVLB  0
07064:  CALL   3496
07068:  MOVLW  8F
0706A:  MOVLB  2
0706C:  MOVWF  x0D
0706E:  MOVLB  0
07070:  CALL   2EFA
07074:  MOVLW  E1
07076:  MOVWF  FF6
07078:  MOVLW  09
0707A:  MOVWF  FF7
0707C:  MOVLW  10
0707E:  MOVLB  2
07080:  MOVWF  x0A
07082:  MOVLB  0
07084:  CALL   3496
07088:  MOVLB  1
.................... } 
.................... if (submenu == 4) { 
0708A:  MOVF   xEB,W
0708C:  SUBLW  04
0708E:  BNZ   7102
.................... if (bit_test(tiempo1,0)) printf(lcd_putc, " ~ %cGrupo? JARDIN   ",143); 
07090:  BTFSS  48.0
07092:  BRA    70CC
07094:  MOVLW  F2
07096:  MOVWF  FF6
07098:  MOVLW  09
0709A:  MOVWF  FF7
0709C:  MOVLW  03
0709E:  MOVLB  2
070A0:  MOVWF  x0A
070A2:  MOVLB  0
070A4:  CALL   3496
070A8:  MOVLW  8F
070AA:  MOVLB  2
070AC:  MOVWF  x0D
070AE:  MOVLB  0
070B0:  CALL   2EFA
070B4:  MOVLW  F7
070B6:  MOVWF  FF6
070B8:  MOVLW  09
070BA:  MOVWF  FF7
070BC:  MOVLW  10
070BE:  MOVLB  2
070C0:  MOVWF  x0A
070C2:  MOVLB  0
070C4:  CALL   3496
070C8:  BRA    7100
070CA:  MOVLB  1
.................... else printf(lcd_putc, " ~ %cGrupo?          ",143); 
070CC:  MOVLW  08
070CE:  MOVWF  FF6
070D0:  MOVLW  0A
070D2:  MOVWF  FF7
070D4:  MOVLW  03
070D6:  MOVLB  2
070D8:  MOVWF  x0A
070DA:  MOVLB  0
070DC:  CALL   3496
070E0:  MOVLW  8F
070E2:  MOVLB  2
070E4:  MOVWF  x0D
070E6:  MOVLB  0
070E8:  CALL   2EFA
070EC:  MOVLW  0D
070EE:  MOVWF  FF6
070F0:  MOVLW  0A
070F2:  MOVWF  FF7
070F4:  MOVLW  10
070F6:  MOVLB  2
070F8:  MOVWF  x0A
070FA:  MOVLB  0
070FC:  CALL   3496
07100:  MOVLB  1
.................... } 
.................... if (submenu == 5) { 
07102:  MOVF   xEB,W
07104:  SUBLW  05
07106:  BNZ   717A
.................... if (bit_test(tiempo1,0)) printf(lcd_putc, " ~ %cGrupo? FRENTE   ",143); 
07108:  BTFSS  48.0
0710A:  BRA    7144
0710C:  MOVLW  1E
0710E:  MOVWF  FF6
07110:  MOVLW  0A
07112:  MOVWF  FF7
07114:  MOVLW  03
07116:  MOVLB  2
07118:  MOVWF  x0A
0711A:  MOVLB  0
0711C:  CALL   3496
07120:  MOVLW  8F
07122:  MOVLB  2
07124:  MOVWF  x0D
07126:  MOVLB  0
07128:  CALL   2EFA
0712C:  MOVLW  23
0712E:  MOVWF  FF6
07130:  MOVLW  0A
07132:  MOVWF  FF7
07134:  MOVLW  10
07136:  MOVLB  2
07138:  MOVWF  x0A
0713A:  MOVLB  0
0713C:  CALL   3496
07140:  BRA    7178
07142:  MOVLB  1
.................... else printf(lcd_putc, " ~ %cGrupo?          ",143); 
07144:  MOVLW  34
07146:  MOVWF  FF6
07148:  MOVLW  0A
0714A:  MOVWF  FF7
0714C:  MOVLW  03
0714E:  MOVLB  2
07150:  MOVWF  x0A
07152:  MOVLB  0
07154:  CALL   3496
07158:  MOVLW  8F
0715A:  MOVLB  2
0715C:  MOVWF  x0D
0715E:  MOVLB  0
07160:  CALL   2EFA
07164:  MOVLW  39
07166:  MOVWF  FF6
07168:  MOVLW  0A
0716A:  MOVWF  FF7
0716C:  MOVLW  10
0716E:  MOVLB  2
07170:  MOVWF  x0A
07172:  MOVLB  0
07174:  CALL   3496
07178:  MOVLB  1
.................... } 
.................... if (submenu == 6) { 
0717A:  MOVF   xEB,W
0717C:  SUBLW  06
0717E:  BNZ   71F2
.................... if (bit_test(tiempo1,0)) printf(lcd_putc, " ~ %cGrupo? PASILLOS ",143); 
07180:  BTFSS  48.0
07182:  BRA    71BC
07184:  MOVLW  4A
07186:  MOVWF  FF6
07188:  MOVLW  0A
0718A:  MOVWF  FF7
0718C:  MOVLW  03
0718E:  MOVLB  2
07190:  MOVWF  x0A
07192:  MOVLB  0
07194:  CALL   3496
07198:  MOVLW  8F
0719A:  MOVLB  2
0719C:  MOVWF  x0D
0719E:  MOVLB  0
071A0:  CALL   2EFA
071A4:  MOVLW  4F
071A6:  MOVWF  FF6
071A8:  MOVLW  0A
071AA:  MOVWF  FF7
071AC:  MOVLW  10
071AE:  MOVLB  2
071B0:  MOVWF  x0A
071B2:  MOVLB  0
071B4:  CALL   3496
071B8:  BRA    71F0
071BA:  MOVLB  1
.................... else printf(lcd_putc, " ~ %cGrupo?          ",143); 
071BC:  MOVLW  60
071BE:  MOVWF  FF6
071C0:  MOVLW  0A
071C2:  MOVWF  FF7
071C4:  MOVLW  03
071C6:  MOVLB  2
071C8:  MOVWF  x0A
071CA:  MOVLB  0
071CC:  CALL   3496
071D0:  MOVLW  8F
071D2:  MOVLB  2
071D4:  MOVWF  x0D
071D6:  MOVLB  0
071D8:  CALL   2EFA
071DC:  MOVLW  65
071DE:  MOVWF  FF6
071E0:  MOVLW  0A
071E2:  MOVWF  FF7
071E4:  MOVLW  10
071E6:  MOVLB  2
071E8:  MOVWF  x0A
071EA:  MOVLB  0
071EC:  CALL   3496
071F0:  MOVLB  1
.................... } 
.................... if (submenu == 7) { 
071F2:  MOVF   xEB,W
071F4:  SUBLW  07
071F6:  BNZ   726A
.................... if (bit_test(tiempo1,0)) printf(lcd_putc, " ~ %cGrupo? AUTO (1) ",143); 
071F8:  BTFSS  48.0
071FA:  BRA    7234
071FC:  MOVLW  76
071FE:  MOVWF  FF6
07200:  MOVLW  0A
07202:  MOVWF  FF7
07204:  MOVLW  03
07206:  MOVLB  2
07208:  MOVWF  x0A
0720A:  MOVLB  0
0720C:  CALL   3496
07210:  MOVLW  8F
07212:  MOVLB  2
07214:  MOVWF  x0D
07216:  MOVLB  0
07218:  CALL   2EFA
0721C:  MOVLW  7B
0721E:  MOVWF  FF6
07220:  MOVLW  0A
07222:  MOVWF  FF7
07224:  MOVLW  10
07226:  MOVLB  2
07228:  MOVWF  x0A
0722A:  MOVLB  0
0722C:  CALL   3496
07230:  BRA    7268
07232:  MOVLB  1
.................... else printf(lcd_putc, " ~ %cGrupo?          ",143); 
07234:  MOVLW  8C
07236:  MOVWF  FF6
07238:  MOVLW  0A
0723A:  MOVWF  FF7
0723C:  MOVLW  03
0723E:  MOVLB  2
07240:  MOVWF  x0A
07242:  MOVLB  0
07244:  CALL   3496
07248:  MOVLW  8F
0724A:  MOVLB  2
0724C:  MOVWF  x0D
0724E:  MOVLB  0
07250:  CALL   2EFA
07254:  MOVLW  91
07256:  MOVWF  FF6
07258:  MOVLW  0A
0725A:  MOVWF  FF7
0725C:  MOVLW  10
0725E:  MOVLB  2
07260:  MOVWF  x0A
07262:  MOVLB  0
07264:  CALL   3496
07268:  MOVLB  1
.................... } 
.................... if (submenu == 8) { 
0726A:  MOVF   xEB,W
0726C:  SUBLW  08
0726E:  BNZ   72E2
.................... if (bit_test(tiempo1,0)) printf(lcd_putc, " ~ %cGrupo? AUTO (2) ",143); 
07270:  BTFSS  48.0
07272:  BRA    72AC
07274:  MOVLW  A2
07276:  MOVWF  FF6
07278:  MOVLW  0A
0727A:  MOVWF  FF7
0727C:  MOVLW  03
0727E:  MOVLB  2
07280:  MOVWF  x0A
07282:  MOVLB  0
07284:  CALL   3496
07288:  MOVLW  8F
0728A:  MOVLB  2
0728C:  MOVWF  x0D
0728E:  MOVLB  0
07290:  CALL   2EFA
07294:  MOVLW  A7
07296:  MOVWF  FF6
07298:  MOVLW  0A
0729A:  MOVWF  FF7
0729C:  MOVLW  10
0729E:  MOVLB  2
072A0:  MOVWF  x0A
072A2:  MOVLB  0
072A4:  CALL   3496
072A8:  BRA    72E0
072AA:  MOVLB  1
.................... else printf(lcd_putc, " ~ %cGrupo?          ",143); 
072AC:  MOVLW  B8
072AE:  MOVWF  FF6
072B0:  MOVLW  0A
072B2:  MOVWF  FF7
072B4:  MOVLW  03
072B6:  MOVLB  2
072B8:  MOVWF  x0A
072BA:  MOVLB  0
072BC:  CALL   3496
072C0:  MOVLW  8F
072C2:  MOVLB  2
072C4:  MOVWF  x0D
072C6:  MOVLB  0
072C8:  CALL   2EFA
072CC:  MOVLW  BD
072CE:  MOVWF  FF6
072D0:  MOVLW  0A
072D2:  MOVWF  FF7
072D4:  MOVLW  10
072D6:  MOVLB  2
072D8:  MOVWF  x0A
072DA:  MOVLB  0
072DC:  CALL   3496
072E0:  MOVLB  1
.................... } 
.................... lcd_gotoxy(1,3); 
072E2:  MOVLW  01
072E4:  MOVLB  2
072E6:  MOVWF  x0E
072E8:  MOVLW  03
072EA:  MOVWF  x0F
072EC:  MOVLB  0
072EE:  CALL   2E90
.................... if ((submenu > 10) && (submenu < 20)) printf(lcd_putc, " ~ "); 
072F2:  MOVLB  1
072F4:  MOVF   xEB,W
072F6:  SUBLW  0A
072F8:  BC    7312
072FA:  MOVF   xEB,W
072FC:  SUBLW  13
072FE:  BNC   7312
07300:  MOVLW  CE
07302:  MOVWF  FF6
07304:  MOVLW  0A
07306:  MOVWF  FF7
07308:  MOVLB  0
0730A:  CALL   2F62
0730E:  BRA    7320
07310:  MOVLB  1
.................... else printf(lcd_putc, "   "); 
07312:  MOVLW  D2
07314:  MOVWF  FF6
07316:  MOVLW  0A
07318:  MOVWF  FF7
0731A:  MOVLB  0
0731C:  CALL   2F62
.................... lcd_gotoxy(4,3); 
07320:  MOVLW  04
07322:  MOVLB  2
07324:  MOVWF  x0E
07326:  MOVLW  03
07328:  MOVWF  x0F
0732A:  MOVLB  0
0732C:  CALL   2E90
.................... printf(lcd_putc, "Apagar           "); 
07330:  MOVLW  D6
07332:  MOVWF  FF6
07334:  MOVLW  0A
07336:  MOVWF  FF7
07338:  CALL   2F62
....................  
.................... lcd_gotoxy(1,4); 
0733C:  MOVLW  01
0733E:  MOVLB  2
07340:  MOVWF  x0E
07342:  MOVLW  04
07344:  MOVWF  x0F
07346:  MOVLB  0
07348:  CALL   2E90
.................... if (submenu > 20) printf(lcd_putc, " ~ "); 
0734C:  MOVLB  1
0734E:  MOVF   xEB,W
07350:  SUBLW  14
07352:  BC    7366
07354:  MOVLW  E8
07356:  MOVWF  FF6
07358:  MOVLW  0A
0735A:  MOVWF  FF7
0735C:  MOVLB  0
0735E:  CALL   2F62
07362:  BRA    7374
07364:  MOVLB  1
.................... else printf(lcd_putc, "   "); 
07366:  MOVLW  EC
07368:  MOVWF  FF6
0736A:  MOVLW  0A
0736C:  MOVWF  FF7
0736E:  MOVLB  0
07370:  CALL   2F62
.................... lcd_gotoxy(4,4); 
07374:  MOVLW  04
07376:  MOVLB  2
07378:  MOVWF  x0E
0737A:  MOVWF  x0F
0737C:  MOVLB  0
0737E:  CALL   2E90
.................... printf(lcd_putc, "Encender         "); 
07382:  MOVLW  F0
07384:  MOVWF  FF6
07386:  MOVLW  0A
07388:  MOVWF  FF7
0738A:  CALL   2F62
.................... restart_wdt(); 
0738E:  CLRWDT
07390:  MOVLB  1
07392:  GOTO   5D3C
.................... } // dentro de while 
07396:  MOVLB  0
07398:  GOTO   B9FC (RETURN)
....................  
.................... } // fn 
....................  
....................  
.................... void LuzInt(){  // Configura la intensidad de las luces 
....................  
.................... LIMPIARLCD; 
*
073DA:  MOVLW  02
073DC:  MOVWF  FF6
073DE:  MOVLW  0B
073E0:  MOVWF  FF7
073E2:  CALL   2F62
.................... int submenu = 33; 
.................... short editar = false; 
073E6:  MOVLW  21
073E8:  MOVLB  1
073EA:  MOVWF  xEB
073EC:  BCF    xEC.0
.................... //short ON[99]; 
....................  
.................... while (submenu < 94){ // hasta llenar todas las luces 
073EE:  MOVF   xEB,W
073F0:  SUBLW  5D
073F2:  BTFSS  FD8.0
073F4:  BRA    7A68
....................  
.................... restart_wdt(); 
073F6:  CLRWDT
....................  
.................... if (input(ARRIBA)==1 && input(ABAJO)==1 && input(OOKK)==1 && input(CANCEL)==1) Rebote = false; // Soltamos las teclas 
073F8:  BSF    F93.0
073FA:  BTFSS  F81.0
073FC:  BRA    7412
073FE:  BSF    F93.1
07400:  BTFSS  F81.1
07402:  BRA    7412
07404:  BSF    F93.2
07406:  BTFSS  F81.2
07408:  BRA    7412
0740A:  BSF    F93.3
0740C:  BTFSS  F81.3
0740E:  BRA    7412
07410:  BCF    35.0
....................  
.................... if (Rebote == false){ 
07412:  BTFSC  35.0
07414:  BRA    7428
.................... if (input(OOKK) == 0){  
07416:  BSF    F93.2
07418:  BTFSC  F81.2
0741A:  BRA    7428
.................... if (editar == false) editar = true; 
0741C:  BTFSC  xEC.0
0741E:  BRA    7424
07420:  BSF    xEC.0
07422:  BRA    7426
.................... else editar = false; 
07424:  BCF    xEC.0
.................... Rebote = true; 
07426:  BSF    35.0
.................... } // si ok 
.................... } 
....................  
.................... if (Rebote == false){ 
07428:  BTFSC  35.0
0742A:  BRA    7444
.................... if (input(CANCEL) == 0){ // salgo al toque con cancel 
0742C:  BSF    F93.3
0742E:  BTFSC  F81.3
07430:  BRA    7444
.................... if (editar == true) editar = false; 
07432:  BTFSS  xEC.0
07434:  BRA    743A
07436:  BCF    xEC.0
07438:  BRA    7442
.................... else { 
.................... Menu = 33; 
0743A:  MOVLW  21
0743C:  MOVWF  28
.................... submenu = 95; 
0743E:  MOVLW  5F
07440:  MOVWF  xEB
.................... } 
.................... Rebote = true; 
07442:  BSF    35.0
.................... } // si cancel 
.................... } 
....................  
.................... if (Rebote == false){ 
07444:  BTFSC  35.0
07446:  BRA    75BA
.................... if (input(ABAJO) == 0){ // si abajo 
07448:  BSF    F93.1
0744A:  BTFSC  F81.1
0744C:  BRA    75BA
.................... if (editar){ // editar habilitado 
0744E:  BTFSS  xEC.0
07450:  BRA    75A8
.................... if ((IntLuz[submenu] != 27) && (IntLuz[submenu] != 127)) IntLuz[submenu] = IntLuz[submenu] + 3; 
07452:  CLRF   03
07454:  MOVF   xEB,W
07456:  ADDLW  49
07458:  MOVWF  FE9
0745A:  MOVLW  00
0745C:  ADDWFC 03,W
0745E:  MOVWF  FEA
07460:  MOVF   FEF,W
07462:  SUBLW  1B
07464:  BZ    74A6
07466:  CLRF   03
07468:  MOVF   xEB,W
0746A:  ADDLW  49
0746C:  MOVWF  FE9
0746E:  MOVLW  00
07470:  ADDWFC 03,W
07472:  MOVWF  FEA
07474:  MOVF   FEF,W
07476:  SUBLW  7F
07478:  BZ    74A6
0747A:  CLRF   03
0747C:  MOVF   xEB,W
0747E:  ADDLW  49
07480:  MOVWF  01
07482:  MOVLW  00
07484:  ADDWFC 03,F
07486:  MOVFF  03,1EE
0748A:  CLRF   03
0748C:  MOVF   xEB,W
0748E:  ADDLW  49
07490:  MOVWF  FE9
07492:  MOVLW  00
07494:  ADDWFC 03,W
07496:  MOVWF  FEA
07498:  MOVLW  03
0749A:  ADDWF  FEF,W
0749C:  MOVFF  1EE,FEA
074A0:  MOVFF  01,FE9
074A4:  MOVWF  FEF
.................... if (IntLuz[submenu] > 99) printf("%c%c%c%c", 250, submenu, IntLuz[submenu]-100, submenu + IntLuz[submenu]-100); // enviamos la intensidad sin el 100 
074A6:  CLRF   03
074A8:  MOVF   xEB,W
074AA:  ADDLW  49
074AC:  MOVWF  FE9
074AE:  MOVLW  00
074B0:  ADDWFC 03,W
074B2:  MOVWF  FEA
074B4:  MOVF   FEF,W
074B6:  SUBLW  63
074B8:  BC    7508
074BA:  CLRF   03
074BC:  MOVF   xEB,W
074BE:  ADDLW  49
074C0:  MOVWF  FE9
074C2:  MOVLW  00
074C4:  ADDWFC 03,W
074C6:  MOVWF  FEA
074C8:  MOVLW  64
074CA:  SUBWF  FEF,W
074CC:  MOVWF  xED
074CE:  CLRF   03
074D0:  MOVF   xEB,W
074D2:  ADDLW  49
074D4:  MOVWF  FE9
074D6:  MOVLW  00
074D8:  ADDWFC 03,W
074DA:  MOVWF  FEA
074DC:  MOVF   FEF,W
074DE:  ADDWF  xEB,W
074E0:  ADDLW  9C
074E2:  MOVWF  xEE
074E4:  MOVLW  FA
074E6:  MOVWF  xFB
074E8:  MOVLB  0
074EA:  CALL   2F82
074EE:  MOVFF  1EB,1FB
074F2:  CALL   2F82
074F6:  MOVFF  1ED,1FB
074FA:  CALL   2F82
074FE:  MOVFF  1EE,1FB
07502:  CALL   2F82
07506:  MOVLB  1
.................... if (IntLuz[submenu] < 99) printf("%c%c%c%c", 250, submenu, IntLuz[submenu], submenu + IntLuz[submenu]); // enviamos la intensidad apagada 
07508:  CLRF   03
0750A:  MOVF   xEB,W
0750C:  ADDLW  49
0750E:  MOVWF  FE9
07510:  MOVLW  00
07512:  ADDWFC 03,W
07514:  MOVWF  FEA
07516:  MOVF   FEF,W
07518:  SUBLW  62
0751A:  BNC   7566
0751C:  CLRF   03
0751E:  MOVF   xEB,W
07520:  ADDLW  49
07522:  MOVWF  FE9
07524:  MOVLW  00
07526:  ADDWFC 03,W
07528:  MOVWF  FEA
0752A:  MOVFF  FEF,1ED
0752E:  CLRF   03
07530:  MOVF   xEB,W
07532:  ADDLW  49
07534:  MOVWF  FE9
07536:  MOVLW  00
07538:  ADDWFC 03,W
0753A:  MOVWF  FEA
0753C:  MOVF   FEF,W
0753E:  ADDWF  xEB,W
07540:  MOVWF  xEE
07542:  MOVLW  FA
07544:  MOVWF  xFB
07546:  MOVLB  0
07548:  CALL   2F82
0754C:  MOVFF  1EB,1FB
07550:  CALL   2F82
07554:  MOVFF  1ED,1FB
07558:  CALL   2F82
0755C:  MOVFF  1EE,1FB
07560:  CALL   2F82
07564:  MOVLB  1
.................... write_eeprom(submenu,IntLuz[submenu]); 
07566:  CLRF   03
07568:  MOVF   xEB,W
0756A:  ADDLW  49
0756C:  MOVWF  FE9
0756E:  MOVLW  00
07570:  ADDWFC 03,W
07572:  MOVWF  FEA
07574:  MOVFF  FEF,1ED
07578:  MOVF   FF2,W
0757A:  MOVWF  00
0757C:  BCF    FF2.7
0757E:  CLRF   FAA
07580:  MOVFF  1EB,FA9
07584:  MOVFF  1ED,FA8
07588:  BCF    FA6.6
0758A:  BCF    FA6.7
0758C:  BSF    FA6.2
0758E:  MOVLB  F
07590:  MOVLW  55
07592:  MOVWF  FA7
07594:  MOVLW  AA
07596:  MOVWF  FA7
07598:  BSF    FA6.1
0759A:  BTFSC  FA6.1
0759C:  BRA    759A
0759E:  BCF    FA6.2
075A0:  MOVF   00,W
075A2:  IORWF  FF2,F
.................... } else { // editar no habilitado 
075A4:  BRA    75B6
075A6:  MOVLB  1
.................... ++submenu; 
075A8:  INCF   xEB,F
.................... if (submenu == 94) submenu = 33; 
075AA:  MOVF   xEB,W
075AC:  SUBLW  5E
075AE:  BNZ   75B4
075B0:  MOVLW  21
075B2:  MOVWF  xEB
075B4:  MOVLB  F
.................... } 
.................... Rebote = true; 
075B6:  BSF    35.0
075B8:  MOVLB  1
.................... } // si Abajo 
.................... } // si rebote 
....................  
....................  
.................... if (Rebote == false){ 
075BA:  BTFSC  35.0
075BC:  BRA    772E
.................... if (input(ARRIBA) == 0){ // si arriba 
075BE:  BSF    F93.0
075C0:  BTFSC  F81.0
075C2:  BRA    772E
.................... if (editar){ // editar habilitado 
075C4:  BTFSS  xEC.0
075C6:  BRA    771C
.................... if ((IntLuz[submenu] != 0 ) && (IntLuz[submenu] != 100 )) IntLuz[submenu] = IntLuz[submenu] - 3; 
075C8:  CLRF   03
075CA:  MOVF   xEB,W
075CC:  ADDLW  49
075CE:  MOVWF  FE9
075D0:  MOVLW  00
075D2:  ADDWFC 03,W
075D4:  MOVWF  FEA
075D6:  MOVF   FEF,F
075D8:  BZ    761A
075DA:  CLRF   03
075DC:  MOVF   xEB,W
075DE:  ADDLW  49
075E0:  MOVWF  FE9
075E2:  MOVLW  00
075E4:  ADDWFC 03,W
075E6:  MOVWF  FEA
075E8:  MOVF   FEF,W
075EA:  SUBLW  64
075EC:  BZ    761A
075EE:  CLRF   03
075F0:  MOVF   xEB,W
075F2:  ADDLW  49
075F4:  MOVWF  01
075F6:  MOVLW  00
075F8:  ADDWFC 03,F
075FA:  MOVFF  03,1EE
075FE:  CLRF   03
07600:  MOVF   xEB,W
07602:  ADDLW  49
07604:  MOVWF  FE9
07606:  MOVLW  00
07608:  ADDWFC 03,W
0760A:  MOVWF  FEA
0760C:  MOVLW  03
0760E:  SUBWF  FEF,W
07610:  MOVFF  1EE,FEA
07614:  MOVFF  01,FE9
07618:  MOVWF  FEF
.................... if (IntLuz[submenu] > 99) printf("%c%c%c%c", 250, submenu, IntLuz[submenu]-100, submenu + IntLuz[submenu]-100); // enviamos la intensidad sin el 100 
0761A:  CLRF   03
0761C:  MOVF   xEB,W
0761E:  ADDLW  49
07620:  MOVWF  FE9
07622:  MOVLW  00
07624:  ADDWFC 03,W
07626:  MOVWF  FEA
07628:  MOVF   FEF,W
0762A:  SUBLW  63
0762C:  BC    767C
0762E:  CLRF   03
07630:  MOVF   xEB,W
07632:  ADDLW  49
07634:  MOVWF  FE9
07636:  MOVLW  00
07638:  ADDWFC 03,W
0763A:  MOVWF  FEA
0763C:  MOVLW  64
0763E:  SUBWF  FEF,W
07640:  MOVWF  xED
07642:  CLRF   03
07644:  MOVF   xEB,W
07646:  ADDLW  49
07648:  MOVWF  FE9
0764A:  MOVLW  00
0764C:  ADDWFC 03,W
0764E:  MOVWF  FEA
07650:  MOVF   FEF,W
07652:  ADDWF  xEB,W
07654:  ADDLW  9C
07656:  MOVWF  xEE
07658:  MOVLW  FA
0765A:  MOVWF  xFB
0765C:  MOVLB  0
0765E:  CALL   2F82
07662:  MOVFF  1EB,1FB
07666:  CALL   2F82
0766A:  MOVFF  1ED,1FB
0766E:  CALL   2F82
07672:  MOVFF  1EE,1FB
07676:  CALL   2F82
0767A:  MOVLB  1
.................... if (IntLuz[submenu] < 99) printf("%c%c%c%c", 250, submenu, IntLuz[submenu], submenu + IntLuz[submenu]); // enviamos la intensidad apagada 
0767C:  CLRF   03
0767E:  MOVF   xEB,W
07680:  ADDLW  49
07682:  MOVWF  FE9
07684:  MOVLW  00
07686:  ADDWFC 03,W
07688:  MOVWF  FEA
0768A:  MOVF   FEF,W
0768C:  SUBLW  62
0768E:  BNC   76DA
07690:  CLRF   03
07692:  MOVF   xEB,W
07694:  ADDLW  49
07696:  MOVWF  FE9
07698:  MOVLW  00
0769A:  ADDWFC 03,W
0769C:  MOVWF  FEA
0769E:  MOVFF  FEF,1ED
076A2:  CLRF   03
076A4:  MOVF   xEB,W
076A6:  ADDLW  49
076A8:  MOVWF  FE9
076AA:  MOVLW  00
076AC:  ADDWFC 03,W
076AE:  MOVWF  FEA
076B0:  MOVF   FEF,W
076B2:  ADDWF  xEB,W
076B4:  MOVWF  xEE
076B6:  MOVLW  FA
076B8:  MOVWF  xFB
076BA:  MOVLB  0
076BC:  CALL   2F82
076C0:  MOVFF  1EB,1FB
076C4:  CALL   2F82
076C8:  MOVFF  1ED,1FB
076CC:  CALL   2F82
076D0:  MOVFF  1EE,1FB
076D4:  CALL   2F82
076D8:  MOVLB  1
.................... write_eeprom(submenu,IntLuz[submenu]); 
076DA:  CLRF   03
076DC:  MOVF   xEB,W
076DE:  ADDLW  49
076E0:  MOVWF  FE9
076E2:  MOVLW  00
076E4:  ADDWFC 03,W
076E6:  MOVWF  FEA
076E8:  MOVFF  FEF,1ED
076EC:  MOVF   FF2,W
076EE:  MOVWF  00
076F0:  BCF    FF2.7
076F2:  CLRF   FAA
076F4:  MOVFF  1EB,FA9
076F8:  MOVFF  1ED,FA8
076FC:  BCF    FA6.6
076FE:  BCF    FA6.7
07700:  BSF    FA6.2
07702:  MOVLB  F
07704:  MOVLW  55
07706:  MOVWF  FA7
07708:  MOVLW  AA
0770A:  MOVWF  FA7
0770C:  BSF    FA6.1
0770E:  BTFSC  FA6.1
07710:  BRA    770E
07712:  BCF    FA6.2
07714:  MOVF   00,W
07716:  IORWF  FF2,F
.................... } else { // editar no habilitado 
07718:  BRA    772A
0771A:  MOVLB  1
.................... --submenu; 
0771C:  DECF   xEB,F
.................... if (submenu == 32) submenu = 93; 
0771E:  MOVF   xEB,W
07720:  SUBLW  20
07722:  BNZ   7728
07724:  MOVLW  5D
07726:  MOVWF  xEB
07728:  MOVLB  F
.................... } 
.................... Rebote = true; 
0772A:  BSF    35.0
0772C:  MOVLB  1
.................... } // si Abajo 
.................... } // si rebote 
....................  
.................... lcd_gotoxy(1,1); 
0772E:  MOVLW  01
07730:  MOVLB  2
07732:  MOVWF  x0E
07734:  MOVWF  x0F
07736:  MOVLB  0
07738:  CALL   2E90
.................... printf(lcd_putc, "= Control de luces ="); 
0773C:  MOVLW  04
0773E:  MOVWF  FF6
07740:  MOVLW  0B
07742:  MOVWF  FF7
07744:  CALL   2F62
.................... lcd_gotoxy(1,2); 
07748:  MOVLW  01
0774A:  MOVLB  2
0774C:  MOVWF  x0E
0774E:  MOVLW  02
07750:  MOVWF  x0F
07752:  MOVLB  0
07754:  CALL   2E90
.................... printf(lcd_putc, "   Configurar la    "); 
07758:  MOVLW  1A
0775A:  MOVWF  FF6
0775C:  MOVLW  0B
0775E:  MOVWF  FF7
07760:  CALL   2F62
.................... lcd_gotoxy(1,3); 
07764:  MOVLW  01
07766:  MOVLB  2
07768:  MOVWF  x0E
0776A:  MOVLW  03
0776C:  MOVWF  x0F
0776E:  MOVLB  0
07770:  CALL   2E90
.................... if (!editar){ // editar falso 
07774:  MOVLB  1
07776:  BTFSC  xEC.0
07778:  BRA    77CA
.................... if (bit_test(tiempo1,0)){ 
0777A:  BTFSS  48.0
0777C:  BRA    77B8
.................... printf(lcd_putc, " intensidad Luz #%02u ",(submenu-32)); 
0777E:  MOVLW  20
07780:  SUBWF  xEB,W
07782:  MOVWF  xED
07784:  MOVLW  30
07786:  MOVWF  FF6
07788:  MOVLW  0B
0778A:  MOVWF  FF7
0778C:  MOVLW  11
0778E:  MOVLB  2
07790:  MOVWF  x0A
07792:  MOVLB  0
07794:  CALL   3496
07798:  MOVFF  1ED,203
0779C:  MOVLW  01
0779E:  MOVLB  2
077A0:  MOVWF  x04
077A2:  MOVLB  0
077A4:  CALL   3692
077A8:  MOVLW  20
077AA:  MOVLB  2
077AC:  MOVWF  x0D
077AE:  MOVLB  0
077B0:  CALL   2EFA
.................... } else printf(lcd_putc, " intensidad Luz     "); 
077B4:  BRA    77C6
077B6:  MOVLB  1
077B8:  MOVLW  48
077BA:  MOVWF  FF6
077BC:  MOVLW  0B
077BE:  MOVWF  FF7
077C0:  MOVLB  0
077C2:  CALL   2F62
.................... }else { // editar verdadero 
077C6:  BRA    7800
077C8:  MOVLB  1
.................... printf(lcd_putc, " intensidad Luz #%02u ",(submenu-32)); 
077CA:  MOVLW  20
077CC:  SUBWF  xEB,W
077CE:  MOVWF  xED
077D0:  MOVLW  5E
077D2:  MOVWF  FF6
077D4:  MOVLW  0B
077D6:  MOVWF  FF7
077D8:  MOVLW  11
077DA:  MOVLB  2
077DC:  MOVWF  x0A
077DE:  MOVLB  0
077E0:  CALL   3496
077E4:  MOVFF  1ED,203
077E8:  MOVLW  01
077EA:  MOVLB  2
077EC:  MOVWF  x04
077EE:  MOVLB  0
077F0:  CALL   3692
077F4:  MOVLW  20
077F6:  MOVLB  2
077F8:  MOVWF  x0D
077FA:  MOVLB  0
077FC:  CALL   2EFA
.................... } 
.................... lcd_gotoxy(1,4); 
07800:  MOVLW  01
07802:  MOVLB  2
07804:  MOVWF  x0E
07806:  MOVLW  04
07808:  MOVWF  x0F
0780A:  MOVLB  0
0780C:  CALL   2E90
.................... if (editar) { // si editar prendido 
07810:  MOVLB  1
07812:  BTFSS  xEC.0
07814:  BRA    794A
.................... if (bit_test(tiempo1,0)){ 
07816:  BTFSS  48.0
07818:  BRA    7938
.................... if (IntLuz[submenu] > 80){ // La luz esta prendida 
0781A:  CLRF   03
0781C:  MOVF   xEB,W
0781E:  ADDLW  49
07820:  MOVWF  FE9
07822:  MOVLW  00
07824:  ADDWFC 03,W
07826:  MOVWF  FEA
07828:  MOVF   FEF,W
0782A:  SUBLW  50
0782C:  BC    78B4
.................... printf(lcd_putc, "         %u%%        ",( ( 30 - (IntLuz[submenu]-100) ) / 3 ) * 10); 
0782E:  CLRF   03
07830:  MOVF   xEB,W
07832:  ADDLW  49
07834:  MOVWF  FE9
07836:  MOVLW  00
07838:  ADDWFC 03,W
0783A:  MOVWF  FEA
0783C:  MOVLW  64
0783E:  SUBWF  FEF,W
07840:  XORLW  FF
07842:  ADDLW  1F
07844:  MOVWF  xEE
07846:  CLRF   19
07848:  BTFSC  FF2.7
0784A:  BSF    19.7
0784C:  BCF    FF2.7
0784E:  MOVFF  FE8,219
07852:  MOVLW  03
07854:  MOVLB  2
07856:  MOVWF  x1A
07858:  MOVLB  0
0785A:  CALL   11F0
0785E:  BTFSC  19.7
07860:  BSF    FF2.7
07862:  MOVF   01,W
07864:  MULLW  0A
07866:  MOVFF  FF3,1ED
0786A:  MOVLB  1
0786C:  MOVLW  76
0786E:  MOVWF  FF6
07870:  MOVLW  0B
07872:  MOVWF  FF7
07874:  MOVLW  09
07876:  MOVLB  2
07878:  MOVWF  x0A
0787A:  MOVLB  0
0787C:  CALL   3496
07880:  MOVFF  1ED,203
07884:  MOVLW  1B
07886:  MOVLB  2
07888:  MOVWF  x04
0788A:  MOVLB  0
0788C:  CALL   3692
07890:  MOVLW  25
07892:  MOVLB  2
07894:  MOVWF  x0D
07896:  MOVLB  0
07898:  CALL   2EFA
0789C:  MOVLW  83
0789E:  MOVWF  FF6
078A0:  MOVLW  0B
078A2:  MOVWF  FF7
078A4:  MOVLW  08
078A6:  MOVLB  2
078A8:  MOVWF  x0A
078AA:  MOVLB  0
078AC:  CALL   3496
.................... } else { // Luz apagada 
078B0:  BRA    7934
078B2:  MOVLB  1
.................... printf(lcd_putc, "         %u%%        ",( ( 30 - (IntLuz[submenu]) ) / 3 ) * 10); 
078B4:  CLRF   03
078B6:  MOVF   xEB,W
078B8:  ADDLW  49
078BA:  MOVWF  FE9
078BC:  MOVLW  00
078BE:  ADDWFC 03,W
078C0:  MOVWF  FEA
078C2:  MOVF   FEF,W
078C4:  XORLW  FF
078C6:  ADDLW  1F
078C8:  MOVWF  xEE
078CA:  CLRF   19
078CC:  BTFSC  FF2.7
078CE:  BSF    19.7
078D0:  BCF    FF2.7
078D2:  MOVFF  FE8,219
078D6:  MOVLW  03
078D8:  MOVLB  2
078DA:  MOVWF  x1A
078DC:  MOVLB  0
078DE:  CALL   11F0
078E2:  BTFSC  19.7
078E4:  BSF    FF2.7
078E6:  MOVF   01,W
078E8:  MULLW  0A
078EA:  MOVFF  FF3,1ED
078EE:  MOVLB  1
078F0:  MOVLW  8C
078F2:  MOVWF  FF6
078F4:  MOVLW  0B
078F6:  MOVWF  FF7
078F8:  MOVLW  09
078FA:  MOVLB  2
078FC:  MOVWF  x0A
078FE:  MOVLB  0
07900:  CALL   3496
07904:  MOVFF  1ED,203
07908:  MOVLW  1B
0790A:  MOVLB  2
0790C:  MOVWF  x04
0790E:  MOVLB  0
07910:  CALL   3692
07914:  MOVLW  25
07916:  MOVLB  2
07918:  MOVWF  x0D
0791A:  MOVLB  0
0791C:  CALL   2EFA
07920:  MOVLW  99
07922:  MOVWF  FF6
07924:  MOVLW  0B
07926:  MOVWF  FF7
07928:  MOVLW  08
0792A:  MOVLB  2
0792C:  MOVWF  x0A
0792E:  MOVLB  0
07930:  CALL   3496
.................... } 
.................... } else { // si bit si 
07934:  BRA    7946
07936:  MOVLB  1
.................... printf(lcd_putc, "                    "); 
07938:  MOVLW  A2
0793A:  MOVWF  FF6
0793C:  MOVLW  0B
0793E:  MOVWF  FF7
07940:  MOVLB  0
07942:  CALL   2F62
.................... } 
.................... } else {  // Editar apagado 
07946:  BRA    7A64
07948:  MOVLB  1
.................... if (IntLuz[submenu] > 80){ // La luz esta prendida 
0794A:  CLRF   03
0794C:  MOVF   xEB,W
0794E:  ADDLW  49
07950:  MOVWF  FE9
07952:  MOVLW  00
07954:  ADDWFC 03,W
07956:  MOVWF  FEA
07958:  MOVF   FEF,W
0795A:  SUBLW  50
0795C:  BC    79E4
.................... printf(lcd_putc, "         %u%%        ",( ( 30 - (IntLuz[submenu]-100) ) / 3 ) * 10); 
0795E:  CLRF   03
07960:  MOVF   xEB,W
07962:  ADDLW  49
07964:  MOVWF  FE9
07966:  MOVLW  00
07968:  ADDWFC 03,W
0796A:  MOVWF  FEA
0796C:  MOVLW  64
0796E:  SUBWF  FEF,W
07970:  XORLW  FF
07972:  ADDLW  1F
07974:  MOVWF  xEE
07976:  CLRF   19
07978:  BTFSC  FF2.7
0797A:  BSF    19.7
0797C:  BCF    FF2.7
0797E:  MOVFF  FE8,219
07982:  MOVLW  03
07984:  MOVLB  2
07986:  MOVWF  x1A
07988:  MOVLB  0
0798A:  CALL   11F0
0798E:  BTFSC  19.7
07990:  BSF    FF2.7
07992:  MOVF   01,W
07994:  MULLW  0A
07996:  MOVFF  FF3,1ED
0799A:  MOVLB  1
0799C:  MOVLW  B8
0799E:  MOVWF  FF6
079A0:  MOVLW  0B
079A2:  MOVWF  FF7
079A4:  MOVLW  09
079A6:  MOVLB  2
079A8:  MOVWF  x0A
079AA:  MOVLB  0
079AC:  CALL   3496
079B0:  MOVFF  1ED,203
079B4:  MOVLW  1B
079B6:  MOVLB  2
079B8:  MOVWF  x04
079BA:  MOVLB  0
079BC:  CALL   3692
079C0:  MOVLW  25
079C2:  MOVLB  2
079C4:  MOVWF  x0D
079C6:  MOVLB  0
079C8:  CALL   2EFA
079CC:  MOVLW  C5
079CE:  MOVWF  FF6
079D0:  MOVLW  0B
079D2:  MOVWF  FF7
079D4:  MOVLW  08
079D6:  MOVLB  2
079D8:  MOVWF  x0A
079DA:  MOVLB  0
079DC:  CALL   3496
.................... } else { // luz apagada 
079E0:  BRA    7A64
079E2:  MOVLB  1
.................... printf(lcd_putc, "         %u%%        ",( ( 30 - (IntLuz[submenu]) ) / 3 ) * 10); 
079E4:  CLRF   03
079E6:  MOVF   xEB,W
079E8:  ADDLW  49
079EA:  MOVWF  FE9
079EC:  MOVLW  00
079EE:  ADDWFC 03,W
079F0:  MOVWF  FEA
079F2:  MOVF   FEF,W
079F4:  XORLW  FF
079F6:  ADDLW  1F
079F8:  MOVWF  xEE
079FA:  CLRF   19
079FC:  BTFSC  FF2.7
079FE:  BSF    19.7
07A00:  BCF    FF2.7
07A02:  MOVFF  FE8,219
07A06:  MOVLW  03
07A08:  MOVLB  2
07A0A:  MOVWF  x1A
07A0C:  MOVLB  0
07A0E:  CALL   11F0
07A12:  BTFSC  19.7
07A14:  BSF    FF2.7
07A16:  MOVF   01,W
07A18:  MULLW  0A
07A1A:  MOVFF  FF3,1ED
07A1E:  MOVLB  1
07A20:  MOVLW  CE
07A22:  MOVWF  FF6
07A24:  MOVLW  0B
07A26:  MOVWF  FF7
07A28:  MOVLW  09
07A2A:  MOVLB  2
07A2C:  MOVWF  x0A
07A2E:  MOVLB  0
07A30:  CALL   3496
07A34:  MOVFF  1ED,203
07A38:  MOVLW  1B
07A3A:  MOVLB  2
07A3C:  MOVWF  x04
07A3E:  MOVLB  0
07A40:  CALL   3692
07A44:  MOVLW  25
07A46:  MOVLB  2
07A48:  MOVWF  x0D
07A4A:  MOVLB  0
07A4C:  CALL   2EFA
07A50:  MOVLW  DB
07A52:  MOVWF  FF6
07A54:  MOVLW  0B
07A56:  MOVWF  FF7
07A58:  MOVLW  08
07A5A:  MOVLB  2
07A5C:  MOVWF  x0A
07A5E:  MOVLB  0
07A60:  CALL   3496
.................... } 
.................... } // else editar (apagado) 
07A64:  MOVLB  1
07A66:  BRA    73EE
.................... } // dentro de while 
07A68:  MOVLB  0
07A6A:  GOTO   BA06 (RETURN)
.................... } // fn 
....................  
....................  
.................... void LuzOnOff(){ // prender y apagar las luces individualmente 
.................... LIMPIARLCD; 
*
05910:  MOVLW  E4
05912:  MOVWF  FF6
05914:  MOVLW  0B
05916:  MOVWF  FF7
05918:  CALL   2F62
.................... restart_wdt(); 
0591C:  CLRWDT
.................... int submenu = 33; 
0591E:  MOVLW  21
05920:  MOVLB  1
05922:  MOVWF  xEB
....................  
.................... while (submenu < 94){ // hasta llenar todas las luces 
05924:  MOVF   xEB,W
05926:  SUBLW  5D
05928:  BTFSS  FD8.0
0592A:  BRA    5D24
....................  
.................... restart_wdt(); 
0592C:  CLRWDT
....................  
.................... if (input(ARRIBA)==1 && input(ABAJO)==1 && input(OOKK)==1 && input(CANCEL)==1) Rebote = false; // Soltamos las teclas 
0592E:  BSF    F93.0
05930:  BTFSS  F81.0
05932:  BRA    5948
05934:  BSF    F93.1
05936:  BTFSS  F81.1
05938:  BRA    5948
0593A:  BSF    F93.2
0593C:  BTFSS  F81.2
0593E:  BRA    5948
05940:  BSF    F93.3
05942:  BTFSS  F81.3
05944:  BRA    5948
05946:  BCF    35.0
....................  
.................... if (Rebote == false){ 
05948:  BTFSC  35.0
0594A:  BRA    5ACE
.................... if (input(OOKK) == 0){ // si ok, solo sumo 
0594C:  BSF    F93.2
0594E:  BTFSC  F81.2
05950:  BRA    5ACE
.................... if (IntLuz[submenu] > 80){ // La luz esta prendida 
05952:  CLRF   03
05954:  MOVF   xEB,W
05956:  ADDLW  49
05958:  MOVWF  FE9
0595A:  MOVLW  00
0595C:  ADDWFC 03,W
0595E:  MOVWF  FEA
05960:  MOVF   FEF,W
05962:  SUBLW  50
05964:  BC    5A1A
.................... IntLuz[submenu] = IntLuz[submenu] - 100; // (la apagamos en ram) 
05966:  CLRF   03
05968:  MOVF   xEB,W
0596A:  ADDLW  49
0596C:  MOVWF  01
0596E:  MOVLW  00
05970:  ADDWFC 03,F
05972:  MOVFF  03,1ED
05976:  CLRF   03
05978:  MOVF   xEB,W
0597A:  ADDLW  49
0597C:  MOVWF  FE9
0597E:  MOVLW  00
05980:  ADDWFC 03,W
05982:  MOVWF  FEA
05984:  MOVLW  64
05986:  SUBWF  FEF,W
05988:  MOVFF  1ED,FEA
0598C:  MOVFF  01,FE9
05990:  MOVWF  FEF
.................... write_eeprom(submenu,IntLuz[submenu]); 
05992:  CLRF   03
05994:  MOVF   xEB,W
05996:  ADDLW  49
05998:  MOVWF  FE9
0599A:  MOVLW  00
0599C:  ADDWFC 03,W
0599E:  MOVWF  FEA
059A0:  MOVFF  FEF,1EC
059A4:  MOVF   FF2,W
059A6:  MOVWF  00
059A8:  BCF    FF2.7
059AA:  CLRF   FAA
059AC:  MOVFF  1EB,FA9
059B0:  MOVFF  1EC,FA8
059B4:  BCF    FA6.6
059B6:  BCF    FA6.7
059B8:  BSF    FA6.2
059BA:  MOVLB  F
059BC:  MOVLW  55
059BE:  MOVWF  FA7
059C0:  MOVLW  AA
059C2:  MOVWF  FA7
059C4:  BSF    FA6.1
059C6:  BTFSC  FA6.1
059C8:  BRA    59C6
059CA:  BCF    FA6.2
059CC:  MOVF   00,W
059CE:  IORWF  FF2,F
059D0:  CLRF   19
059D2:  BTFSC  FF2.7
059D4:  BSF    19.7
059D6:  BCF    FF2.7
.................... delay_ms(1); 
059D8:  MOVLW  01
059DA:  MOVLB  2
059DC:  MOVWF  x20
059DE:  MOVLB  0
059E0:  CALL   1386
059E4:  BTFSC  19.7
059E6:  BSF    FF2.7
.................... printf("%c%c%c%c", 250, submenu, 80, submenu + 80); // La apagamos en la red 
059E8:  MOVLW  50
059EA:  MOVLB  1
059EC:  ADDWF  xEB,W
059EE:  MOVWF  xEC
059F0:  MOVLW  FA
059F2:  MOVWF  xFB
059F4:  MOVLB  0
059F6:  CALL   2F82
059FA:  MOVFF  1EB,1FB
059FE:  CALL   2F82
05A02:  MOVLW  50
05A04:  MOVLB  1
05A06:  MOVWF  xFB
05A08:  MOVLB  0
05A0A:  CALL   2F82
05A0E:  MOVFF  1EC,1FB
05A12:  CALL   2F82
.................... } else { // La luz esta apagada 
05A16:  BRA    5ACA
05A18:  MOVLB  1
.................... IntLuz[submenu] = IntLuz[submenu] + 100; // (la prendemos en ram) 
05A1A:  CLRF   03
05A1C:  MOVF   xEB,W
05A1E:  ADDLW  49
05A20:  MOVWF  01
05A22:  MOVLW  00
05A24:  ADDWFC 03,F
05A26:  MOVFF  03,1ED
05A2A:  CLRF   03
05A2C:  MOVF   xEB,W
05A2E:  ADDLW  49
05A30:  MOVWF  FE9
05A32:  MOVLW  00
05A34:  ADDWFC 03,W
05A36:  MOVWF  FEA
05A38:  MOVLW  64
05A3A:  ADDWF  FEF,W
05A3C:  MOVFF  1ED,FEA
05A40:  MOVFF  01,FE9
05A44:  MOVWF  FEF
.................... write_eeprom(submenu,IntLuz[submenu]); 
05A46:  CLRF   03
05A48:  MOVF   xEB,W
05A4A:  ADDLW  49
05A4C:  MOVWF  FE9
05A4E:  MOVLW  00
05A50:  ADDWFC 03,W
05A52:  MOVWF  FEA
05A54:  MOVFF  FEF,1EC
05A58:  MOVF   FF2,W
05A5A:  MOVWF  00
05A5C:  BCF    FF2.7
05A5E:  CLRF   FAA
05A60:  MOVFF  1EB,FA9
05A64:  MOVFF  1EC,FA8
05A68:  BCF    FA6.6
05A6A:  BCF    FA6.7
05A6C:  BSF    FA6.2
05A6E:  MOVLB  F
05A70:  MOVLW  55
05A72:  MOVWF  FA7
05A74:  MOVLW  AA
05A76:  MOVWF  FA7
05A78:  BSF    FA6.1
05A7A:  BTFSC  FA6.1
05A7C:  BRA    5A7A
05A7E:  BCF    FA6.2
05A80:  MOVF   00,W
05A82:  IORWF  FF2,F
05A84:  CLRF   19
05A86:  BTFSC  FF2.7
05A88:  BSF    19.7
05A8A:  BCF    FF2.7
.................... delay_ms(1); 
05A8C:  MOVLW  01
05A8E:  MOVLB  2
05A90:  MOVWF  x20
05A92:  MOVLB  0
05A94:  CALL   1386
05A98:  BTFSC  19.7
05A9A:  BSF    FF2.7
.................... printf("%c%c%c%c", 250, submenu, 90, submenu + 90); // La prendemos en la red 
05A9C:  MOVLW  5A
05A9E:  MOVLB  1
05AA0:  ADDWF  xEB,W
05AA2:  MOVWF  xEC
05AA4:  MOVLW  FA
05AA6:  MOVWF  xFB
05AA8:  MOVLB  0
05AAA:  CALL   2F82
05AAE:  MOVFF  1EB,1FB
05AB2:  CALL   2F82
05AB6:  MOVLW  5A
05AB8:  MOVLB  1
05ABA:  MOVWF  xFB
05ABC:  MOVLB  0
05ABE:  CALL   2F82
05AC2:  MOVFF  1EC,1FB
05AC6:  CALL   2F82
.................... } 
.................... Rebote = true; 
05ACA:  BSF    35.0
05ACC:  MOVLB  1
.................... } // si ok 
.................... } 
....................  
.................... if (Rebote == false){ 
05ACE:  BTFSC  35.0
05AD0:  BRA    5AE2
.................... if (input(CANCEL) == 0){ // salgo al toque con cancel 
05AD2:  BSF    F93.3
05AD4:  BTFSC  F81.3
05AD6:  BRA    5AE2
.................... Rebote = true; 
05AD8:  BSF    35.0
.................... Menu = 31; 
05ADA:  MOVLW  1F
05ADC:  MOVWF  28
.................... submenu = 95; 
05ADE:  MOVLW  5F
05AE0:  MOVWF  xEB
.................... } // si cancel 
.................... } 
....................  
.................... if (Rebote == false){ 
05AE2:  BTFSC  35.0
05AE4:  BRA    5AFA
.................... if (input(ABAJO) == 0){ // si abajo 
05AE6:  BSF    F93.1
05AE8:  BTFSC  F81.1
05AEA:  BRA    5AFA
.................... Rebote = true; 
05AEC:  BSF    35.0
.................... ++submenu; 
05AEE:  INCF   xEB,F
.................... if (submenu == 94) submenu = 33; 
05AF0:  MOVF   xEB,W
05AF2:  SUBLW  5E
05AF4:  BNZ   5AFA
05AF6:  MOVLW  21
05AF8:  MOVWF  xEB
.................... } // si Abajo 
.................... } // si rebote 
....................  
.................... if (Rebote == false){ 
05AFA:  BTFSC  35.0
05AFC:  BRA    5B12
.................... if (input(ARRIBA) == 0){ // si abajo 
05AFE:  BSF    F93.0
05B00:  BTFSC  F81.0
05B02:  BRA    5B12
.................... Rebote = true; 
05B04:  BSF    35.0
.................... --submenu; 
05B06:  DECF   xEB,F
.................... if (submenu == 32) submenu = 93; 
05B08:  MOVF   xEB,W
05B0A:  SUBLW  20
05B0C:  BNZ   5B12
05B0E:  MOVLW  5D
05B10:  MOVWF  xEB
.................... } // si Abajo 
.................... } // si rebote 
....................  
....................  
.................... lcd_gotoxy(1,1); 
05B12:  MOVLW  01
05B14:  MOVLB  2
05B16:  MOVWF  x0E
05B18:  MOVWF  x0F
05B1A:  MOVLB  0
05B1C:  CALL   2E90
.................... printf(lcd_putc, "= Control de luces ="); 
05B20:  MOVLW  E6
05B22:  MOVWF  FF6
05B24:  MOVLW  0B
05B26:  MOVWF  FF7
05B28:  CALL   2F62
.................... lcd_gotoxy(1,2); 
05B2C:  MOVLW  01
05B2E:  MOVLB  2
05B30:  MOVWF  x0E
05B32:  MOVLW  02
05B34:  MOVWF  x0F
05B36:  MOVLB  0
05B38:  CALL   2E90
.................... printf(lcd_putc, " Estado de Luz #%02u: ",(submenu-32)); 
05B3C:  MOVLW  20
05B3E:  MOVLB  1
05B40:  SUBWF  xEB,W
05B42:  MOVWF  xEC
05B44:  MOVLW  FC
05B46:  MOVWF  FF6
05B48:  MOVLW  0B
05B4A:  MOVWF  FF7
05B4C:  MOVLW  10
05B4E:  MOVLB  2
05B50:  MOVWF  x0A
05B52:  MOVLB  0
05B54:  CALL   3496
05B58:  MOVFF  1EC,203
05B5C:  MOVLW  01
05B5E:  MOVLB  2
05B60:  MOVWF  x04
05B62:  MOVLB  0
05B64:  CALL   3692
05B68:  MOVLW  3A
05B6A:  MOVLB  2
05B6C:  MOVWF  x0D
05B6E:  MOVLB  0
05B70:  CALL   2EFA
05B74:  MOVLW  20
05B76:  MOVLB  2
05B78:  MOVWF  x0D
05B7A:  MOVLB  0
05B7C:  CALL   2EFA
.................... lcd_gotoxy(1,3); 
05B80:  MOVLW  01
05B82:  MOVLB  2
05B84:  MOVWF  x0E
05B86:  MOVLW  03
05B88:  MOVWF  x0F
05B8A:  MOVLB  0
05B8C:  CALL   2E90
.................... if (IntLuz[submenu] > 80){ // La luz esta prendida 
05B90:  CLRF   03
05B92:  MOVLB  1
05B94:  MOVF   xEB,W
05B96:  ADDLW  49
05B98:  MOVWF  FE9
05B9A:  MOVLW  00
05B9C:  ADDWFC 03,W
05B9E:  MOVWF  FEA
05BA0:  MOVF   FEF,W
05BA2:  SUBLW  50
05BA4:  BC    5C66
.................... if (bit_test(tiempo1,0)) printf(lcd_putc, "     ENCENDIDA      "); 
05BA6:  BTFSS  48.0
05BA8:  BRA    5BBC
05BAA:  MOVLW  14
05BAC:  MOVWF  FF6
05BAE:  MOVLW  0C
05BB0:  MOVWF  FF7
05BB2:  MOVLB  0
05BB4:  CALL   2F62
05BB8:  BRA    5BCA
05BBA:  MOVLB  1
.................... else printf(lcd_putc, "                    "); 
05BBC:  MOVLW  2A
05BBE:  MOVWF  FF6
05BC0:  MOVLW  0C
05BC2:  MOVWF  FF7
05BC4:  MOVLB  0
05BC6:  CALL   2F62
.................... lcd_gotoxy(1,4); 
05BCA:  MOVLW  01
05BCC:  MOVLB  2
05BCE:  MOVWF  x0E
05BD0:  MOVLW  04
05BD2:  MOVWF  x0F
05BD4:  MOVLB  0
05BD6:  CALL   2E90
.................... printf(lcd_putc, "  Intensidad: %u%%  ",( ( 30 - (IntLuz[submenu]-100) ) / 3 ) * 10); 
05BDA:  CLRF   03
05BDC:  MOVLB  1
05BDE:  MOVF   xEB,W
05BE0:  ADDLW  49
05BE2:  MOVWF  FE9
05BE4:  MOVLW  00
05BE6:  ADDWFC 03,W
05BE8:  MOVWF  FEA
05BEA:  MOVLW  64
05BEC:  SUBWF  FEF,W
05BEE:  XORLW  FF
05BF0:  ADDLW  1F
05BF2:  MOVWF  xED
05BF4:  CLRF   19
05BF6:  BTFSC  FF2.7
05BF8:  BSF    19.7
05BFA:  BCF    FF2.7
05BFC:  MOVFF  FE8,219
05C00:  MOVLW  03
05C02:  MOVLB  2
05C04:  MOVWF  x1A
05C06:  MOVLB  0
05C08:  CALL   11F0
05C0C:  BTFSC  19.7
05C0E:  BSF    FF2.7
05C10:  MOVF   01,W
05C12:  MULLW  0A
05C14:  MOVFF  FF3,1EC
05C18:  MOVLB  1
05C1A:  MOVLW  40
05C1C:  MOVWF  FF6
05C1E:  MOVLW  0C
05C20:  MOVWF  FF7
05C22:  MOVLW  0E
05C24:  MOVLB  2
05C26:  MOVWF  x0A
05C28:  MOVLB  0
05C2A:  CALL   3496
05C2E:  MOVFF  1EC,203
05C32:  MOVLW  1B
05C34:  MOVLB  2
05C36:  MOVWF  x04
05C38:  MOVLB  0
05C3A:  CALL   3692
05C3E:  MOVLW  25
05C40:  MOVLB  2
05C42:  MOVWF  x0D
05C44:  MOVLB  0
05C46:  CALL   2EFA
05C4A:  MOVLW  20
05C4C:  MOVLB  2
05C4E:  MOVWF  x0D
05C50:  MOVLB  0
05C52:  CALL   2EFA
05C56:  MOVLW  20
05C58:  MOVLB  2
05C5A:  MOVWF  x0D
05C5C:  MOVLB  0
05C5E:  CALL   2EFA
.................... } else { 
05C62:  BRA    5D20
05C64:  MOVLB  1
.................... if (bit_test(tiempo1,0)) printf(lcd_putc, "      APAGADA       "); 
05C66:  BTFSS  48.0
05C68:  BRA    5C7C
05C6A:  MOVLW  56
05C6C:  MOVWF  FF6
05C6E:  MOVLW  0C
05C70:  MOVWF  FF7
05C72:  MOVLB  0
05C74:  CALL   2F62
05C78:  BRA    5C8A
05C7A:  MOVLB  1
.................... else printf(lcd_putc, "                    "); 
05C7C:  MOVLW  6C
05C7E:  MOVWF  FF6
05C80:  MOVLW  0C
05C82:  MOVWF  FF7
05C84:  MOVLB  0
05C86:  CALL   2F62
.................... lcd_gotoxy(1,4); 
05C8A:  MOVLW  01
05C8C:  MOVLB  2
05C8E:  MOVWF  x0E
05C90:  MOVLW  04
05C92:  MOVWF  x0F
05C94:  MOVLB  0
05C96:  CALL   2E90
.................... printf(lcd_putc, "  Intensidad: %u%%  ",( ( 30 - (IntLuz[submenu]) ) / 3 ) * 10); 
05C9A:  CLRF   03
05C9C:  MOVLB  1
05C9E:  MOVF   xEB,W
05CA0:  ADDLW  49
05CA2:  MOVWF  FE9
05CA4:  MOVLW  00
05CA6:  ADDWFC 03,W
05CA8:  MOVWF  FEA
05CAA:  MOVF   FEF,W
05CAC:  XORLW  FF
05CAE:  ADDLW  1F
05CB0:  MOVWF  xED
05CB2:  CLRF   19
05CB4:  BTFSC  FF2.7
05CB6:  BSF    19.7
05CB8:  BCF    FF2.7
05CBA:  MOVFF  FE8,219
05CBE:  MOVLW  03
05CC0:  MOVLB  2
05CC2:  MOVWF  x1A
05CC4:  MOVLB  0
05CC6:  CALL   11F0
05CCA:  BTFSC  19.7
05CCC:  BSF    FF2.7
05CCE:  MOVF   01,W
05CD0:  MULLW  0A
05CD2:  MOVFF  FF3,1EC
05CD6:  MOVLB  1
05CD8:  MOVLW  82
05CDA:  MOVWF  FF6
05CDC:  MOVLW  0C
05CDE:  MOVWF  FF7
05CE0:  MOVLW  0E
05CE2:  MOVLB  2
05CE4:  MOVWF  x0A
05CE6:  MOVLB  0
05CE8:  CALL   3496
05CEC:  MOVFF  1EC,203
05CF0:  MOVLW  1B
05CF2:  MOVLB  2
05CF4:  MOVWF  x04
05CF6:  MOVLB  0
05CF8:  CALL   3692
05CFC:  MOVLW  25
05CFE:  MOVLB  2
05D00:  MOVWF  x0D
05D02:  MOVLB  0
05D04:  CALL   2EFA
05D08:  MOVLW  20
05D0A:  MOVLB  2
05D0C:  MOVWF  x0D
05D0E:  MOVLB  0
05D10:  CALL   2EFA
05D14:  MOVLW  20
05D16:  MOVLB  2
05D18:  MOVWF  x0D
05D1A:  MOVLB  0
05D1C:  CALL   2EFA
.................... } 
05D20:  MOVLB  1
05D22:  BRA    5924
....................  
.................... } // dentro de while 
05D24:  MOVLB  0
05D26:  GOTO   B9F2 (RETURN)
.................... } // fn 
....................  
....................  
.................... void ActAlarma(){ 
....................  
.................... LIMPIARLCD; 
*
050CC:  MOVLW  98
050CE:  MOVWF  FF6
050D0:  MOVLW  0C
050D2:  MOVWF  FF7
050D4:  CALL   2F62
.................... restart_wdt(); 
050D8:  CLRWDT
....................  
.................... int submenu = 1; 
.................... int segu; // Auxiliar para contar los segundos 
.................... int tpoo = (TpoSalida + 1); // tiempo para mostrar 
050DA:  MOVLW  01
050DC:  MOVLB  1
050DE:  MOVWF  xEB
050E0:  ADDWF  xD8,W
050E2:  MOVWF  xED
....................  
.................... while (submenu < 3){ // hasta llenar todo 
050E4:  MOVF   xEB,W
050E6:  SUBLW  02
050E8:  BTFSS  FD8.0
050EA:  BRA    5336
....................  
.................... if (input(ARRIBA)==1 && input(ABAJO)==1 && input(OOKK)==1 && input(CANCEL)==1) Rebote = false; // Soltamos las teclas 
050EC:  BSF    F93.0
050EE:  BTFSS  F81.0
050F0:  BRA    5106
050F2:  BSF    F93.1
050F4:  BTFSS  F81.1
050F6:  BRA    5106
050F8:  BSF    F93.2
050FA:  BTFSS  F81.2
050FC:  BRA    5106
050FE:  BSF    F93.3
05100:  BTFSS  F81.3
05102:  BRA    5106
05104:  BCF    35.0
....................  
.................... if (Rebote == false){ 
05106:  BTFSC  35.0
05108:  BRA    5118
.................... if (input(OOKK) == 0){ // si ok, solo sumo 
0510A:  BSF    F93.2
0510C:  BTFSC  F81.2
0510E:  BRA    5118
.................... if (submenu == 1) ++submenu; 
05110:  DECFSZ xEB,W
05112:  BRA    5116
05114:  INCF   xEB,F
.................... Rebote = true; 
05116:  BSF    35.0
.................... } // si ok 
.................... } 
....................  
.................... if (Rebote == false){ 
05118:  BTFSC  35.0
0511A:  BRA    5136
.................... if (input(CANCEL) == 0){ // si cancel solo resto o salgo con 10 
0511C:  BSF    F93.3
0511E:  BTFSC  F81.3
05120:  BRA    5136
.................... if (submenu == 1) --submenu; 
05122:  DECFSZ xEB,W
05124:  BRA    5128
05126:  DECF   xEB,F
.................... Rebote = true; 
05128:  BSF    35.0
.................... if (submenu == 0) { 
0512A:  MOVF   xEB,F
0512C:  BNZ   5136
.................... submenu=10; 
0512E:  MOVLW  0A
05130:  MOVWF  xEB
.................... Menu = 21; // para salir con el cancel o el error 
05132:  MOVLW  15
05134:  MOVWF  28
.................... } 
.................... } // si cancel 
.................... } 
....................  
.................... if (submenu == 1) { 
05136:  DECFSZ xEB,W
05138:  BRA    51C6
.................... lcd_gotoxy(1,2); 
0513A:  MOVLW  01
0513C:  MOVLB  2
0513E:  MOVWF  x0E
05140:  MOVLW  02
05142:  MOVWF  x0F
05144:  MOVLB  0
05146:  CALL   2E90
.................... printf(lcd_putc, "   %cDesea activar  ",143); 
0514A:  MOVLW  9A
0514C:  MOVWF  FF6
0514E:  MOVLW  0C
05150:  MOVWF  FF7
05152:  MOVLW  03
05154:  MOVLB  2
05156:  MOVWF  x0A
05158:  MOVLB  0
0515A:  CALL   3496
0515E:  MOVLW  8F
05160:  MOVLB  2
05162:  MOVWF  x0D
05164:  MOVLB  0
05166:  CALL   2EFA
0516A:  MOVLW  9F
0516C:  MOVWF  FF6
0516E:  MOVLW  0C
05170:  MOVWF  FF7
05172:  MOVLW  0F
05174:  MOVLB  2
05176:  MOVWF  x0A
05178:  MOVLB  0
0517A:  CALL   3496
.................... lcd_gotoxy(1,3); 
0517E:  MOVLW  01
05180:  MOVLB  2
05182:  MOVWF  x0E
05184:  MOVLW  03
05186:  MOVWF  x0F
05188:  MOVLB  0
0518A:  CALL   2E90
.................... if (Menu == 121) printf(lcd_putc, "   alarma TOTAL ?    "); 
0518E:  MOVF   28,W
05190:  SUBLW  79
05192:  BNZ   51A0
05194:  MOVLW  B0
05196:  MOVWF  FF6
05198:  MOVLW  0C
0519A:  MOVWF  FF7
0519C:  CALL   2F62
.................... if (Menu == 122) printf(lcd_putc, "  alarma NOCTURNA?  "); 
051A0:  MOVF   28,W
051A2:  SUBLW  7A
051A4:  BNZ   51B2
051A6:  MOVLW  C6
051A8:  MOVWF  FF6
051AA:  MOVLW  0C
051AC:  MOVWF  FF7
051AE:  CALL   2F62
.................... if (Menu == 123) printf(lcd_putc, "  alarma EXTERIOR?  "); 
051B2:  MOVF   28,W
051B4:  SUBLW  7B
051B6:  BNZ   51C4
051B8:  MOVLW  DC
051BA:  MOVWF  FF6
051BC:  MOVLW  0C
051BE:  MOVWF  FF7
051C0:  CALL   2F62
051C4:  MOVLB  1
.................... } // cuando submenu es 1 (antes de aceptar) 
....................  
.................... if (submenu == 2) { 
051C6:  MOVF   xEB,W
051C8:  SUBLW  02
051CA:  BTFSS  FD8.2
051CC:  BRA    532A
.................... //EstadoAl = 2; 
.................... lcd_gotoxy(1,2); 
051CE:  MOVLW  01
051D0:  MOVLB  2
051D2:  MOVWF  x0E
051D4:  MOVLW  02
051D6:  MOVWF  x0F
051D8:  MOVLB  0
051DA:  CALL   2E90
.................... printf(lcd_putc, "  Armado de alarma  "); 
051DE:  MOVLW  F2
051E0:  MOVWF  FF6
051E2:  MOVLW  0C
051E4:  MOVWF  FF7
051E6:  CALL   2F62
.................... lcd_gotoxy(1,3); 
051EA:  MOVLW  01
051EC:  MOVLB  2
051EE:  MOVWF  x0E
051F0:  MOVLW  03
051F2:  MOVWF  x0F
051F4:  MOVLB  0
051F6:  CALL   2E90
.................... printf(lcd_putc, "      en: %3u       ",tpoo); 
051FA:  MOVLW  08
051FC:  MOVWF  FF6
051FE:  MOVLW  0D
05200:  MOVWF  FF7
05202:  MOVLW  0A
05204:  MOVLB  2
05206:  MOVWF  x0A
05208:  MOVLB  0
0520A:  CALL   3496
0520E:  MOVFF  1ED,203
05212:  MOVLW  13
05214:  MOVLB  2
05216:  MOVWF  x04
05218:  MOVLB  0
0521A:  CALL   3692
0521E:  MOVLW  15
05220:  MOVWF  FF6
05222:  MOVLW  0D
05224:  MOVWF  FF7
05226:  MOVLW  07
05228:  MOVLB  2
0522A:  MOVWF  x0A
0522C:  MOVLB  0
0522E:  CALL   3496
....................  
.................... if (Menu == 121) { // TOTAL 
05232:  MOVF   28,W
05234:  SUBLW  79
05236:  BNZ   52A4
.................... if (tpoo > 10) printf("%c%c%c%c", 250, 100, 121, 221); // Todas oscilan durante activacion de alarma total 
05238:  MOVLB  1
0523A:  MOVF   xED,W
0523C:  SUBLW  0A
0523E:  BC    5270
05240:  MOVLW  FA
05242:  MOVWF  xFB
05244:  MOVLB  0
05246:  CALL   2F82
0524A:  MOVLW  64
0524C:  MOVLB  1
0524E:  MOVWF  xFB
05250:  MOVLB  0
05252:  CALL   2F82
05256:  MOVLW  79
05258:  MOVLB  1
0525A:  MOVWF  xFB
0525C:  MOVLB  0
0525E:  CALL   2F82
05262:  MOVLW  DD
05264:  MOVLB  1
05266:  MOVWF  xFB
05268:  MOVLB  0
0526A:  CALL   2F82
0526E:  MOVLB  1
.................... if (tpoo < 10) printf("%c%c%c%c", 250, 100, 122, 222); // Todas oscilan durante activacion de alarma total 
05270:  MOVF   xED,W
05272:  SUBLW  09
05274:  BNC   52A6
05276:  MOVLW  FA
05278:  MOVWF  xFB
0527A:  MOVLB  0
0527C:  CALL   2F82
05280:  MOVLW  64
05282:  MOVLB  1
05284:  MOVWF  xFB
05286:  MOVLB  0
05288:  CALL   2F82
0528C:  MOVLW  7A
0528E:  MOVLB  1
05290:  MOVWF  xFB
05292:  MOVLB  0
05294:  CALL   2F82
05298:  MOVLW  DE
0529A:  MOVLB  1
0529C:  MOVWF  xFB
0529E:  MOVLB  0
052A0:  CALL   2F82
052A4:  MOVLB  1
.................... } 
....................  
.................... if ((Menu == 122) || (Menu == 123)) { // Nocturna o Exterior 
052A6:  MOVF   28,W
052A8:  SUBLW  7A
052AA:  BZ    52B2
052AC:  MOVF   28,W
052AE:  SUBLW  7B
052B0:  BNZ   531E
.................... if (tpoo > 10) printf("%c%c%c%c", 250, LLHall, 121, LLHall+121); // Todas oscilan durante activacion de alarma total 
052B2:  MOVF   xED,W
052B4:  SUBLW  0A
052B6:  BC    52E8
052B8:  MOVLW  FA
052BA:  MOVWF  xFB
052BC:  MOVLB  0
052BE:  CALL   2F82
052C2:  MOVLW  3A
052C4:  MOVLB  1
052C6:  MOVWF  xFB
052C8:  MOVLB  0
052CA:  CALL   2F82
052CE:  MOVLW  79
052D0:  MOVLB  1
052D2:  MOVWF  xFB
052D4:  MOVLB  0
052D6:  CALL   2F82
052DA:  MOVLW  B3
052DC:  MOVLB  1
052DE:  MOVWF  xFB
052E0:  MOVLB  0
052E2:  CALL   2F82
052E6:  MOVLB  1
.................... if (tpoo < 10) printf("%c%c%c%c", 250, LLHall, 122, LLHall+122); // Todas oscilan durante activacion de alarma total 
052E8:  MOVF   xED,W
052EA:  SUBLW  09
052EC:  BNC   531E
052EE:  MOVLW  FA
052F0:  MOVWF  xFB
052F2:  MOVLB  0
052F4:  CALL   2F82
052F8:  MOVLW  3A
052FA:  MOVLB  1
052FC:  MOVWF  xFB
052FE:  MOVLB  0
05300:  CALL   2F82
05304:  MOVLW  7A
05306:  MOVLB  1
05308:  MOVWF  xFB
0530A:  MOVLB  0
0530C:  CALL   2F82
05310:  MOVLW  B4
05312:  MOVLB  1
05314:  MOVWF  xFB
05316:  MOVLB  0
05318:  CALL   2F82
0531C:  MOVLB  1
.................... } 
....................  
.................... if (sec != segu){ 
0531E:  MOVF   xEC,W
05320:  SUBWF  21,W
05322:  BZ    532A
.................... segu = sec; 
05324:  MOVFF  21,1EC
.................... --tpoo; 
05328:  DECF   xED,F
.................... } 
.................... } // cuando submenu es 2 (Alarma ya aceptada) 
....................  
....................  
.................... if (tpoo == 0) submenu = 3; 
0532A:  MOVF   xED,F
0532C:  BNZ   5332
0532E:  MOVLW  03
05330:  MOVWF  xEB
.................... restart_wdt(); 
05332:  CLRWDT
05334:  BRA    50E4
.................... } // dentro de while 
....................  
.................... if (submenu == 3){ // si es 3 es porque se activo, sino seria 10 
05336:  MOVF   xEB,W
05338:  SUBLW  03
0533A:  BTFSS  FD8.2
0533C:  BRA    550A
....................  
.................... if (Menu == 121) { // TOTAL 
0533E:  MOVF   28,W
05340:  SUBLW  79
05342:  BNZ   53BE
.................... EstadoAl = 3; 
05344:  MOVLW  03
05346:  MOVWF  45
.................... write_eeprom(EstAlarma,EstadoAl); 
05348:  MOVF   FF2,W
0534A:  MOVWF  00
0534C:  BCF    FF2.7
0534E:  CLRF   FAA
05350:  MOVLW  02
05352:  MOVWF  FA9
05354:  MOVFF  45,FA8
05358:  BCF    FA6.6
0535A:  BCF    FA6.7
0535C:  BSF    FA6.2
0535E:  MOVLB  F
05360:  MOVLW  55
05362:  MOVWF  FA7
05364:  MOVLW  AA
05366:  MOVWF  FA7
05368:  BSF    FA6.1
0536A:  BTFSC  FA6.1
0536C:  BRA    536A
0536E:  BCF    FA6.2
05370:  MOVF   00,W
05372:  IORWF  FF2,F
05374:  CLRF   19
05376:  BTFSC  FF2.7
05378:  BSF    19.7
0537A:  BCF    FF2.7
.................... delay_ms(1); 
0537C:  MOVLW  01
0537E:  MOVLB  2
05380:  MOVWF  x20
05382:  MOVLB  0
05384:  CALL   1386
05388:  BTFSC  19.7
0538A:  BSF    FF2.7
.................... printf("%c%c%c%c", 250, 100, 80, 180); // Apago todo 
0538C:  MOVLW  FA
0538E:  MOVLB  1
05390:  MOVWF  xFB
05392:  MOVLB  0
05394:  CALL   2F82
05398:  MOVLW  64
0539A:  MOVLB  1
0539C:  MOVWF  xFB
0539E:  MOVLB  0
053A0:  CALL   2F82
053A4:  MOVLW  50
053A6:  MOVLB  1
053A8:  MOVWF  xFB
053AA:  MOVLB  0
053AC:  CALL   2F82
053B0:  MOVLW  B4
053B2:  MOVLB  1
053B4:  MOVWF  xFB
053B6:  MOVLB  0
053B8:  CALL   2F82
053BC:  MOVLB  1
.................... } 
....................  
.................... if (Menu == 122) { // Nocturna 
053BE:  MOVF   28,W
053C0:  SUBLW  7A
053C2:  BNZ   5464
.................... EstadoAl = 4; 
053C4:  MOVLW  04
053C6:  MOVWF  45
.................... write_eeprom(EstAlarma,EstadoAl); 
053C8:  MOVF   FF2,W
053CA:  MOVWF  00
053CC:  BCF    FF2.7
053CE:  CLRF   FAA
053D0:  MOVLW  02
053D2:  MOVWF  FA9
053D4:  MOVFF  45,FA8
053D8:  BCF    FA6.6
053DA:  BCF    FA6.7
053DC:  BSF    FA6.2
053DE:  MOVLB  F
053E0:  MOVLW  55
053E2:  MOVWF  FA7
053E4:  MOVLW  AA
053E6:  MOVWF  FA7
053E8:  BSF    FA6.1
053EA:  BTFSC  FA6.1
053EC:  BRA    53EA
053EE:  BCF    FA6.2
053F0:  MOVF   00,W
053F2:  IORWF  FF2,F
053F4:  CLRF   19
053F6:  BTFSC  FF2.7
053F8:  BSF    19.7
053FA:  BCF    FF2.7
.................... delay_ms(1); 
053FC:  MOVLW  01
053FE:  MOVLB  2
05400:  MOVWF  x20
05402:  MOVLB  0
05404:  CALL   1386
05408:  BTFSC  19.7
0540A:  BSF    FF2.7
.................... int aux1; 
.................... for (aux1=57;aux1<95;aux1++){ // llena todo desde el 57 al 99 (luces de modulos 3, 4 y 5) 
0540C:  MOVLW  39
0540E:  MOVLB  1
05410:  MOVWF  xEE
05412:  MOVF   xEE,W
05414:  SUBLW  5E
05416:  BNC   5464
.................... printf("%c%c%c%c", 250, aux1, 80, aux1+80); // Apago todo del 57 al 99 
05418:  MOVLW  50
0541A:  ADDWF  xEE,W
0541C:  MOVWF  xF0
0541E:  MOVLW  FA
05420:  MOVWF  xFB
05422:  MOVLB  0
05424:  CALL   2F82
05428:  MOVFF  1EE,1FB
0542C:  CALL   2F82
05430:  MOVLW  50
05432:  MOVLB  1
05434:  MOVWF  xFB
05436:  MOVLB  0
05438:  CALL   2F82
0543C:  MOVFF  1F0,1FB
05440:  CALL   2F82
05444:  CLRF   19
05446:  BTFSC  FF2.7
05448:  BSF    19.7
0544A:  BCF    FF2.7
.................... delay_ms(2); 
0544C:  MOVLW  02
0544E:  MOVLB  2
05450:  MOVWF  x20
05452:  MOVLB  0
05454:  CALL   1386
05458:  BTFSC  19.7
0545A:  BSF    FF2.7
.................... restart_wdt(); 
0545C:  CLRWDT
0545E:  MOVLB  1
05460:  INCF   xEE,F
05462:  BRA    5412
.................... } 
.................... } 
....................  
.................... if (Menu == 123) { // Exterior 
05464:  MOVF   28,W
05466:  SUBLW  7B
05468:  BNZ   550A
.................... EstadoAl = 5; 
0546A:  MOVLW  05
0546C:  MOVWF  45
.................... write_eeprom(EstAlarma,EstadoAl); 
0546E:  MOVF   FF2,W
05470:  MOVWF  00
05472:  BCF    FF2.7
05474:  CLRF   FAA
05476:  MOVLW  02
05478:  MOVWF  FA9
0547A:  MOVFF  45,FA8
0547E:  BCF    FA6.6
05480:  BCF    FA6.7
05482:  BSF    FA6.2
05484:  MOVLB  F
05486:  MOVLW  55
05488:  MOVWF  FA7
0548A:  MOVLW  AA
0548C:  MOVWF  FA7
0548E:  BSF    FA6.1
05490:  BTFSC  FA6.1
05492:  BRA    5490
05494:  BCF    FA6.2
05496:  MOVF   00,W
05498:  IORWF  FF2,F
0549A:  CLRF   19
0549C:  BTFSC  FF2.7
0549E:  BSF    19.7
054A0:  BCF    FF2.7
.................... delay_ms(1); 
054A2:  MOVLW  01
054A4:  MOVLB  2
054A6:  MOVWF  x20
054A8:  MOVLB  0
054AA:  CALL   1386
054AE:  BTFSC  19.7
054B0:  BSF    FF2.7
.................... int aux1; 
.................... for (aux1=80;aux1<95;aux1++){ // llena todo desde el 80 al 99 (luces de modulo 5) 
054B2:  MOVLW  50
054B4:  MOVLB  1
054B6:  MOVWF  xEF
054B8:  MOVF   xEF,W
054BA:  SUBLW  5E
054BC:  BNC   550A
.................... printf("%c%c%c%c", 250, aux1, 80, aux1+80); // Apago todo de la galeria 
054BE:  MOVLW  50
054C0:  ADDWF  xEF,W
054C2:  MOVWF  xF0
054C4:  MOVLW  FA
054C6:  MOVWF  xFB
054C8:  MOVLB  0
054CA:  CALL   2F82
054CE:  MOVFF  1EF,1FB
054D2:  CALL   2F82
054D6:  MOVLW  50
054D8:  MOVLB  1
054DA:  MOVWF  xFB
054DC:  MOVLB  0
054DE:  CALL   2F82
054E2:  MOVFF  1F0,1FB
054E6:  CALL   2F82
054EA:  CLRF   19
054EC:  BTFSC  FF2.7
054EE:  BSF    19.7
054F0:  BCF    FF2.7
.................... delay_ms(2); 
054F2:  MOVLW  02
054F4:  MOVLB  2
054F6:  MOVWF  x20
054F8:  MOVLB  0
054FA:  CALL   1386
054FE:  BTFSC  19.7
05500:  BSF    FF2.7
.................... restart_wdt(); 
05502:  CLRWDT
05504:  MOVLB  1
05506:  INCF   xEF,F
05508:  BRA    54B8
.................... } 
.................... } 
.................... //Menu = 0; 
.................... } // resumen de activacion 
0550A:  MOVLB  0
0550C:  GOTO   B9DE (RETURN)
....................  
.................... } // Fn 
....................  
.................... void ConfAlarma(){ 
....................  
.................... LIMPIARLCD; 
05510:  MOVLW  1E
05512:  MOVWF  FF6
05514:  MOVLW  0D
05516:  MOVWF  FF7
05518:  CALL   2F62
.................... restart_wdt(); 
0551C:  CLRWDT
....................  
.................... int submenu = 1; 
.................... int TiemSal; 
.................... int TiemSil; 
.................... int tpoo; 
.................... int diff; 
.................... short prueba; 
.................... char test[6]; 
0551E:  MOVLW  01
05520:  MOVLB  1
05522:  MOVWF  xEB
....................  
.................... TiemSal = TpoSalida; 
05524:  MOVFF  1D8,1EC
.................... TiemSil = TpoSilencioso; 
05528:  MOVFF  1D7,1ED
.................... prueba = false; 
0552C:  BCF    xF0.0
....................  
....................  
.................... while (submenu < 4){ // hasta llenar todo 
0552E:  MOVF   xEB,W
05530:  SUBLW  03
05532:  BTFSS  FD8.0
05534:  BRA    58A0
....................  
....................  
.................... if (input(ARRIBA)==1 && input(ABAJO)==1 && input(OOKK)==1 && input(CANCEL)==1) Rebote = false; // Soltamos las teclas 
05536:  BSF    F93.0
05538:  BTFSS  F81.0
0553A:  BRA    5550
0553C:  BSF    F93.1
0553E:  BTFSS  F81.1
05540:  BRA    5550
05542:  BSF    F93.2
05544:  BTFSS  F81.2
05546:  BRA    5550
05548:  BSF    F93.3
0554A:  BTFSS  F81.3
0554C:  BRA    5550
0554E:  BCF    35.0
....................  
.................... if (Rebote == false){ 
05550:  BTFSC  35.0
05552:  BRA    555E
.................... if (input(OOKK) == 0){ // si ok, solo sumo 
05554:  BSF    F93.2
05556:  BTFSC  F81.2
05558:  BRA    555E
.................... ++submenu; 
0555A:  INCF   xEB,F
.................... Rebote = true; 
0555C:  BSF    35.0
.................... } // si ok 
.................... } 
....................  
.................... if (Rebote == false){ 
0555E:  BTFSC  35.0
05560:  BRA    5578
.................... if (input(CANCEL) == 0){ // si cancel solo resto o salgo con 10 
05562:  BSF    F93.3
05564:  BTFSC  F81.3
05566:  BRA    5578
.................... --submenu; 
05568:  DECF   xEB,F
.................... Rebote = true; 
0556A:  BSF    35.0
.................... if (submenu == 0) { 
0556C:  MOVF   xEB,F
0556E:  BNZ   5578
.................... submenu=10; 
05570:  MOVLW  0A
05572:  MOVWF  xEB
.................... Menu = 24; // para salir con el cancel o el error 
05574:  MOVLW  18
05576:  MOVWF  28
.................... } 
.................... } // si cancel 
.................... } 
....................  
.................... if (Rebote == false){ 
05578:  BTFSC  35.0
0557A:  BRA    5600
.................... if (input(ABAJO) == 0){ // si arriba 
0557C:  BSF    F93.1
0557E:  BTFSC  F81.1
05580:  BRA    5600
.................... Rebote = true; 
05582:  BSF    35.0
....................  
....................    if (submenu == 1) { // arriba dentro de dia de la semana 
05584:  DECFSZ xEB,W
05586:  BRA    5594
....................          ++TiemSal; 
05588:  INCF   xEC,F
....................          if (TiemSal == 181) TiemSal = 1; 
0558A:  MOVF   xEC,W
0558C:  SUBLW  B5
0558E:  BNZ   5594
05590:  MOVLW  01
05592:  MOVWF  xEC
....................    } // arriba dentro de mes 
....................  
....................    if (submenu == 2) { // arriba dentro de mes 
05594:  MOVF   xEB,W
05596:  SUBLW  02
05598:  BNZ   55A6
....................          ++TiemSil; 
0559A:  INCF   xED,F
....................          if (TiemSil == 181)  TiemSil= 1; 
0559C:  MOVF   xED,W
0559E:  SUBLW  B5
055A0:  BNZ   55A6
055A2:  MOVLW  01
055A4:  MOVWF  xED
....................    } // arriba dentro de mes 
....................  
....................    if (submenu == 3) { // arriba dentro de dia 
055A6:  MOVF   xEB,W
055A8:  SUBLW  03
055AA:  BNZ   5600
....................          prueba=True; 
055AC:  BSF    xF0.0
....................          tpoo = sec; 
055AE:  MOVFF  21,1EE
....................          test="ON"; 
055B2:  MOVLW  01
055B4:  MOVWF  FEA
055B6:  MOVLW  F1
055B8:  MOVWF  FE9
055BA:  MOVLW  00
055BC:  MOVLB  0
055BE:  CALL   0298
055C2:  TBLRD*-
055C4:  TBLRD*+
055C6:  MOVF   FF5,W
055C8:  MOVWF  FEE
055CA:  IORLW  00
055CC:  BNZ   55C4
....................          printf("%c%c%c%c", 250, 155, 3, 158); // Prendo la sirena por 3 segundos 
055CE:  MOVLW  FA
055D0:  MOVLB  1
055D2:  MOVWF  xFB
055D4:  MOVLB  0
055D6:  CALL   2F82
055DA:  MOVLW  9B
055DC:  MOVLB  1
055DE:  MOVWF  xFB
055E0:  MOVLB  0
055E2:  CALL   2F82
055E6:  MOVLW  03
055E8:  MOVLB  1
055EA:  MOVWF  xFB
055EC:  MOVLB  0
055EE:  CALL   2F82
055F2:  MOVLW  9E
055F4:  MOVLB  1
055F6:  MOVWF  xFB
055F8:  MOVLB  0
055FA:  CALL   2F82
055FE:  MOVLB  1
....................          } 
.................... } // si Abajo 
.................... } // si rebote 
....................  
.................... if (Rebote == false){ 
05600:  BTFSC  35.0
05602:  BRA    5684
.................... if (input(ARRIBA) == 0){ // si abajo 
05604:  BSF    F93.0
05606:  BTFSC  F81.0
05608:  BRA    5684
.................... Rebote = true; 
0560A:  BSF    35.0
....................  
....................    if (submenu == 1) { // arriba dentro de dia de la semana 
0560C:  DECFSZ xEB,W
0560E:  BRA    561A
....................          --TiemSal; 
05610:  DECF   xEC,F
....................          if (TiemSal == 255) TiemSal = 180; 
05612:  INCFSZ xEC,W
05614:  BRA    561A
05616:  MOVLW  B4
05618:  MOVWF  xEC
....................    } // arriba dentro de mes 
....................  
....................    if (submenu == 2) { // arriba dentro de mes 
0561A:  MOVF   xEB,W
0561C:  SUBLW  02
0561E:  BNZ   562A
....................          --TiemSil; 
05620:  DECF   xED,F
....................          if (TiemSil == 255)  TiemSil= 180; 
05622:  INCFSZ xED,W
05624:  BRA    562A
05626:  MOVLW  B4
05628:  MOVWF  xED
....................    } // arriba dentro de mes 
....................  
....................    if (submenu == 3) { // arriba dentro de dia 
0562A:  MOVF   xEB,W
0562C:  SUBLW  03
0562E:  BNZ   5684
....................          prueba=True; 
05630:  BSF    xF0.0
....................          tpoo = sec; 
05632:  MOVFF  21,1EE
....................          test="ON"; 
05636:  MOVLW  01
05638:  MOVWF  FEA
0563A:  MOVLW  F1
0563C:  MOVWF  FE9
0563E:  MOVLW  00
05640:  MOVLB  0
05642:  CALL   0298
05646:  TBLRD*-
05648:  TBLRD*+
0564A:  MOVF   FF5,W
0564C:  MOVWF  FEE
0564E:  IORLW  00
05650:  BNZ   5648
....................          printf("%c%c%c%c", 250, 155, 3, 158); // Prendo la sirena por 3 segundos 
05652:  MOVLW  FA
05654:  MOVLB  1
05656:  MOVWF  xFB
05658:  MOVLB  0
0565A:  CALL   2F82
0565E:  MOVLW  9B
05660:  MOVLB  1
05662:  MOVWF  xFB
05664:  MOVLB  0
05666:  CALL   2F82
0566A:  MOVLW  03
0566C:  MOVLB  1
0566E:  MOVWF  xFB
05670:  MOVLB  0
05672:  CALL   2F82
05676:  MOVLW  9E
05678:  MOVLB  1
0567A:  MOVWF  xFB
0567C:  MOVLB  0
0567E:  CALL   2F82
05682:  MOVLB  1
....................          } 
.................... } 
.................... } 
....................  
....................  
.................... lcd_gotoxy(1,1); 
05684:  MOVLW  01
05686:  MOVLB  2
05688:  MOVWF  x0E
0568A:  MOVWF  x0F
0568C:  MOVLB  0
0568E:  CALL   2E90
.................... printf(lcd_putc, "=== Conf. Alarma ==="); 
05692:  MOVLW  20
05694:  MOVWF  FF6
05696:  MOVLW  0D
05698:  MOVWF  FF7
0569A:  CALL   2F62
.................... lcd_gotoxy(1,2); 
0569E:  MOVLW  01
056A0:  MOVLB  2
056A2:  MOVWF  x0E
056A4:  MOVLW  02
056A6:  MOVWF  x0F
056A8:  MOVLB  0
056AA:  CALL   2E90
.................... if (submenu == 1){ 
056AE:  MOVLB  1
056B0:  DECFSZ xEB,W
056B2:  BRA    56FE
.................... if (bit_test(tiempo1,0)) printf(lcd_putc, "Tpo Salida: %3us", TiemSal); 
056B4:  BTFSS  48.0
056B6:  BRA    56EC
056B8:  MOVLW  36
056BA:  MOVWF  FF6
056BC:  MOVLW  0D
056BE:  MOVWF  FF7
056C0:  MOVLW  0C
056C2:  MOVLB  2
056C4:  MOVWF  x0A
056C6:  MOVLB  0
056C8:  CALL   3496
056CC:  MOVFF  1EC,203
056D0:  MOVLW  13
056D2:  MOVLB  2
056D4:  MOVWF  x04
056D6:  MOVLB  0
056D8:  CALL   3692
056DC:  MOVLW  73
056DE:  MOVLB  2
056E0:  MOVWF  x0D
056E2:  MOVLB  0
056E4:  CALL   2EFA
056E8:  BRA    56FA
056EA:  MOVLB  1
.................... else printf(lcd_putc, "Tpo Salida:      "); 
056EC:  MOVLW  48
056EE:  MOVWF  FF6
056F0:  MOVLW  0D
056F2:  MOVWF  FF7
056F4:  MOVLB  0
056F6:  CALL   2F62
.................... } else{ 
056FA:  BRA    5746
056FC:  MOVLB  1
.................... lcd_gotoxy(1,2); 
056FE:  MOVLW  01
05700:  MOVLB  2
05702:  MOVWF  x0E
05704:  MOVLW  02
05706:  MOVWF  x0F
05708:  MOVLB  0
0570A:  CALL   2E90
.................... printf(lcd_putc, "Tpo Salida: %3us  ", TiemSal); 
0570E:  MOVLW  5A
05710:  MOVWF  FF6
05712:  MOVLW  0D
05714:  MOVWF  FF7
05716:  MOVLW  0C
05718:  MOVLB  2
0571A:  MOVWF  x0A
0571C:  MOVLB  0
0571E:  CALL   3496
05722:  MOVFF  1EC,203
05726:  MOVLW  13
05728:  MOVLB  2
0572A:  MOVWF  x04
0572C:  MOVLB  0
0572E:  CALL   3692
05732:  MOVLW  69
05734:  MOVWF  FF6
05736:  MOVLW  0D
05738:  MOVWF  FF7
0573A:  MOVLW  03
0573C:  MOVLB  2
0573E:  MOVWF  x0A
05740:  MOVLB  0
05742:  CALL   3496
.................... } 
....................  
.................... lcd_gotoxy(1,3); 
05746:  MOVLW  01
05748:  MOVLB  2
0574A:  MOVWF  x0E
0574C:  MOVLW  03
0574E:  MOVWF  x0F
05750:  MOVLB  0
05752:  CALL   2E90
.................... if (submenu == 2){ 
05756:  MOVLB  1
05758:  MOVF   xEB,W
0575A:  SUBLW  02
0575C:  BNZ   57A8
.................... if (bit_test(tiempo1,0)) printf(lcd_putc, "Tpo Silencio: %3us",TiemSil); 
0575E:  BTFSS  48.0
05760:  BRA    5796
05762:  MOVLW  6E
05764:  MOVWF  FF6
05766:  MOVLW  0D
05768:  MOVWF  FF7
0576A:  MOVLW  0E
0576C:  MOVLB  2
0576E:  MOVWF  x0A
05770:  MOVLB  0
05772:  CALL   3496
05776:  MOVFF  1ED,203
0577A:  MOVLW  13
0577C:  MOVLB  2
0577E:  MOVWF  x04
05780:  MOVLB  0
05782:  CALL   3692
05786:  MOVLW  73
05788:  MOVLB  2
0578A:  MOVWF  x0D
0578C:  MOVLB  0
0578E:  CALL   2EFA
05792:  BRA    57A4
05794:  MOVLB  1
.................... else printf(lcd_putc, "Tpo Silencio:       "); 
05796:  MOVLW  82
05798:  MOVWF  FF6
0579A:  MOVLW  0D
0579C:  MOVWF  FF7
0579E:  MOVLB  0
057A0:  CALL   2F62
.................... } else{ 
057A4:  BRA    57E8
057A6:  MOVLB  1
.................... lcd_gotoxy(1,3); 
057A8:  MOVLW  01
057AA:  MOVLB  2
057AC:  MOVWF  x0E
057AE:  MOVLW  03
057B0:  MOVWF  x0F
057B2:  MOVLB  0
057B4:  CALL   2E90
.................... printf(lcd_putc, "Tpo Silencio: %3us",TiemSil); 
057B8:  MOVLW  98
057BA:  MOVWF  FF6
057BC:  MOVLW  0D
057BE:  MOVWF  FF7
057C0:  MOVLW  0E
057C2:  MOVLB  2
057C4:  MOVWF  x0A
057C6:  MOVLB  0
057C8:  CALL   3496
057CC:  MOVFF  1ED,203
057D0:  MOVLW  13
057D2:  MOVLB  2
057D4:  MOVWF  x04
057D6:  MOVLB  0
057D8:  CALL   3692
057DC:  MOVLW  73
057DE:  MOVLB  2
057E0:  MOVWF  x0D
057E2:  MOVLB  0
057E4:  CALL   2EFA
.................... } 
....................  
.................... lcd_gotoxy(1,4); 
057E8:  MOVLW  01
057EA:  MOVLB  2
057EC:  MOVWF  x0E
057EE:  MOVLW  04
057F0:  MOVWF  x0F
057F2:  MOVLB  0
057F4:  CALL   2E90
.................... if (submenu == 3){ 
057F8:  MOVLB  1
057FA:  MOVF   xEB,W
057FC:  SUBLW  03
057FE:  BNZ   583A
.................... if (bit_test(tiempo1,0)) printf(lcd_putc, "Prueba sirena: %s",test); 
05800:  BTFSS  48.0
05802:  BRA    5828
05804:  MOVLW  AC
05806:  MOVWF  FF6
05808:  MOVLW  0D
0580A:  MOVWF  FF7
0580C:  MOVLW  0F
0580E:  MOVLB  2
05810:  MOVWF  x0A
05812:  MOVLB  0
05814:  CALL   3496
05818:  MOVLW  01
0581A:  MOVWF  FEA
0581C:  MOVLW  F1
0581E:  MOVWF  FE9
05820:  CALL   34BE
05824:  BRA    5836
05826:  MOVLB  1
.................... else printf(lcd_putc, "Prueba sirena:        "); 
05828:  MOVLW  BE
0582A:  MOVWF  FF6
0582C:  MOVLW  0D
0582E:  MOVWF  FF7
05830:  MOVLB  0
05832:  CALL   2F62
.................... } else { 
05836:  BRA    586A
05838:  MOVLB  1
.................... lcd_gotoxy(1,4); 
0583A:  MOVLW  01
0583C:  MOVLB  2
0583E:  MOVWF  x0E
05840:  MOVLW  04
05842:  MOVWF  x0F
05844:  MOVLB  0
05846:  CALL   2E90
....................  printf(lcd_putc, "Prueba sirena: %s",test); 
0584A:  MOVLW  D6
0584C:  MOVWF  FF6
0584E:  MOVLW  0D
05850:  MOVWF  FF7
05852:  MOVLW  0F
05854:  MOVLB  2
05856:  MOVWF  x0A
05858:  MOVLB  0
0585A:  CALL   3496
0585E:  MOVLW  01
05860:  MOVWF  FEA
05862:  MOVLW  F1
05864:  MOVWF  FE9
05866:  CALL   34BE
.................... } 
....................  
.................... restart_wdt(); 
0586A:  CLRWDT
....................  
.................... diff = sec - tpoo; 
0586C:  MOVLB  1
0586E:  MOVF   xEE,W
05870:  SUBWF  21,W
05872:  MOVWF  xEF
....................  
.................... if (diff > 2) prueba = false; 
05874:  MOVF   xEF,W
05876:  SUBLW  02
05878:  BC    587C
0587A:  BCF    xF0.0
.................... if (prueba == false) test = "OFF  "; 
0587C:  BTFSC  xF0.0
0587E:  BRA    589E
05880:  MOVLW  01
05882:  MOVWF  FEA
05884:  MOVLW  F1
05886:  MOVWF  FE9
05888:  MOVLW  00
0588A:  MOVLB  0
0588C:  CALL   02AC
05890:  TBLRD*-
05892:  TBLRD*+
05894:  MOVF   FF5,W
05896:  MOVWF  FEE
05898:  IORLW  00
0589A:  BNZ   5892
0589C:  MOVLB  1
0589E:  BRA    552E
....................  
.................... } // dentro de while 
....................  
.................... if (submenu == 4) { 
058A0:  MOVF   xEB,W
058A2:  SUBLW  04
058A4:  BNZ   590A
.................... TpoSilencioso = TiemSil;  // Cargamos en RAM 
058A6:  MOVFF  1ED,1D7
.................... TpoSalida = TiemSal;  // Cargamos en RAM 
058AA:  MOVFF  1EC,1D8
....................  
.................... write_eeprom(TpoSil,TpoSilencioso); // Guardamos el valor  
058AE:  MOVF   FF2,W
058B0:  MOVWF  00
058B2:  BCF    FF2.7
058B4:  CLRF   FAA
058B6:  MOVLW  04
058B8:  MOVWF  FA9
058BA:  MOVFF  1D7,FA8
058BE:  BCF    FA6.6
058C0:  BCF    FA6.7
058C2:  BSF    FA6.2
058C4:  MOVLB  F
058C6:  MOVLW  55
058C8:  MOVWF  FA7
058CA:  MOVLW  AA
058CC:  MOVWF  FA7
058CE:  BSF    FA6.1
058D0:  BTFSC  FA6.1
058D2:  BRA    58D0
058D4:  BCF    FA6.2
058D6:  MOVF   00,W
058D8:  IORWF  FF2,F
.................... write_eeprom(TpoSal,TpoSalida); // Guardamos el valor  
058DA:  MOVFF  FF2,00
058DE:  BCF    FF2.7
058E0:  CLRF   FAA
058E2:  MOVLW  05
058E4:  MOVWF  FA9
058E6:  MOVFF  1D8,FA8
058EA:  BCF    FA6.6
058EC:  BCF    FA6.7
058EE:  BSF    FA6.2
058F0:  MOVLW  55
058F2:  MOVWF  FA7
058F4:  MOVLW  AA
058F6:  MOVWF  FA7
058F8:  BSF    FA6.1
058FA:  BTFSC  FA6.1
058FC:  BRA    58FA
058FE:  BCF    FA6.2
05900:  MOVF   00,W
05902:  IORWF  FF2,F
.................... Menu = 1; 
05904:  MOVLW  01
05906:  MOVWF  28
05908:  MOVLB  1
.................... } 
0590A:  MOVLB  0
0590C:  GOTO   B9E8 (RETURN)
.................... } // fn 
....................  
....................  
.................... int Autenticar(){ 
....................  
.................... LIMPIARLCD; 
*
09A00:  MOVLW  E8
09A02:  MOVWF  FF6
09A04:  MOVLW  0D
09A06:  MOVWF  FF7
09A08:  CALL   2F62
.................... restart_wdt(); 
09A0C:  CLRWDT
....................  
.................... int PassCheck[2]; 
....................  
.................... PassCheck[0] = PassCheck[1] = 0; 
09A0E:  MOVLB  1
09A10:  CLRF   xF1
09A12:  MOVFF  1F1,1F0
....................  
.................... int submenu = 1; 
09A16:  MOVLW  01
09A18:  MOVWF  xF2
....................  
.................... while (submenu < 7){ 
09A1A:  MOVF   xF2,W
09A1C:  SUBLW  06
09A1E:  BTFSS  FD8.0
09A20:  BRA    9D48
.................... restart_wdt(); 
09A22:  CLRWDT
....................  
.................... if (input(ARRIBA)==1 && input(ABAJO)==1 && input(OOKK)==1 && input(CANCEL)==1) Rebote = false; // Soltamos las teclas 
09A24:  BSF    F93.0
09A26:  BTFSS  F81.0
09A28:  BRA    9A3E
09A2A:  BSF    F93.1
09A2C:  BTFSS  F81.1
09A2E:  BRA    9A3E
09A30:  BSF    F93.2
09A32:  BTFSS  F81.2
09A34:  BRA    9A3E
09A36:  BSF    F93.3
09A38:  BTFSS  F81.3
09A3A:  BRA    9A3E
09A3C:  BCF    35.0
....................  
.................... if (Rebote == False) { 
09A3E:  BTFSC  35.0
09A40:  BRA    9A8E
.................... if (input(OOKK) == 0){ 
09A42:  BSF    F93.2
09A44:  BTFSC  F81.2
09A46:  BRA    9A8E
.................... Rebote = True; 
09A48:  BSF    35.0
.................... switch (submenu){ 
09A4A:  MOVLW  01
09A4C:  SUBWF  xF2,W
09A4E:  ADDLW  FA
09A50:  BC    9A8C
09A52:  ADDLW  06
09A54:  MOVLB  0
09A56:  GOTO   9E34
....................    case 1: 
....................    bit_clear(PassCheck[0],0); 
09A5A:  MOVLB  1
09A5C:  BCF    xF0.0
....................    bit_set(PassCheck[0],1); 
09A5E:  BSF    xF0.1
....................    //++submenu; 
....................    break; 
09A60:  BRA    9A8C
....................  
....................    case 2: 
....................    bit_clear(PassCheck[0],2); 
09A62:  MOVLB  1
09A64:  BCF    xF0.2
....................    bit_set(PassCheck[0],3); 
09A66:  BSF    xF0.3
....................    //++submenu; 
....................    break; 
09A68:  BRA    9A8C
....................  
....................    case 3: 
....................    bit_clear(PassCheck[0],4); 
09A6A:  MOVLB  1
09A6C:  BCF    xF0.4
....................    bit_set(PassCheck[0],5); 
09A6E:  BSF    xF0.5
....................    //++submenu; 
....................    break; 
09A70:  BRA    9A8C
....................  
....................    case 4: 
....................    bit_clear(PassCheck[0],6); 
09A72:  MOVLB  1
09A74:  BCF    xF0.6
....................    bit_set(PassCheck[0],7); 
09A76:  BSF    xF0.7
....................    //++submenu; 
....................    break; 
09A78:  BRA    9A8C
....................     
....................    case 5: 
....................    bit_clear(PassCheck[1],0); 
09A7A:  MOVLB  1
09A7C:  BCF    xF1.0
....................    bit_set(PassCheck[1],1); 
09A7E:  BSF    xF1.1
....................    //++submenu; 
....................    break; 
09A80:  BRA    9A8C
....................  
....................    case 6: 
....................    bit_clear(PassCheck[1],2); 
09A82:  MOVLB  1
09A84:  BCF    xF1.2
....................    bit_set(PassCheck[1],3); 
09A86:  BSF    xF1.3
....................    //++submenu; 
....................    break; 
09A88:  BRA    9A8C
09A8A:  MOVLB  1
.................... } 
.................... ++submenu; 
09A8C:  INCF   xF2,F
.................... } // si OK 
.................... } // rebote falso 
....................  
.................... if (Rebote == False) { 
09A8E:  BTFSC  35.0
09A90:  BRA    9ADE
.................... if (input(CANCEL) == 0){ 
09A92:  BSF    F93.3
09A94:  BTFSC  F81.3
09A96:  BRA    9ADE
.................... Rebote = True; 
09A98:  BSF    35.0
.................... switch (submenu){ 
09A9A:  MOVLW  01
09A9C:  SUBWF  xF2,W
09A9E:  ADDLW  FA
09AA0:  BC    9ADC
09AA2:  ADDLW  06
09AA4:  MOVLB  0
09AA6:  GOTO   9E5A
....................    case 1: 
....................    bit_set(PassCheck[0],0); 
09AAA:  MOVLB  1
09AAC:  BSF    xF0.0
....................    bit_set(PassCheck[0],1); 
09AAE:  BSF    xF0.1
....................    //++submenu; 
....................    break; 
09AB0:  BRA    9ADC
....................  
....................    case 2: 
....................    bit_set(PassCheck[0],2); 
09AB2:  MOVLB  1
09AB4:  BSF    xF0.2
....................    bit_set(PassCheck[0],3); 
09AB6:  BSF    xF0.3
....................    //++submenu; 
....................    break; 
09AB8:  BRA    9ADC
....................  
....................    case 3: 
....................    bit_set(PassCheck[0],4); 
09ABA:  MOVLB  1
09ABC:  BSF    xF0.4
....................    bit_set(PassCheck[0],5); 
09ABE:  BSF    xF0.5
....................    //++submenu; 
....................    break; 
09AC0:  BRA    9ADC
....................  
....................    case 4: 
....................    bit_set(PassCheck[0],6); 
09AC2:  MOVLB  1
09AC4:  BSF    xF0.6
....................    bit_set(PassCheck[0],7); 
09AC6:  BSF    xF0.7
....................    //++submenu; 
....................    break; 
09AC8:  BRA    9ADC
....................  
....................    case 5: 
....................    bit_set(PassCheck[1],0); 
09ACA:  MOVLB  1
09ACC:  BSF    xF1.0
....................    bit_set(PassCheck[1],1); 
09ACE:  BSF    xF1.1
....................    //++submenu; 
....................    break; 
09AD0:  BRA    9ADC
....................  
....................    case 6: 
....................    bit_set(PassCheck[1],2); 
09AD2:  MOVLB  1
09AD4:  BSF    xF1.2
....................    bit_set(PassCheck[1],3); 
09AD6:  BSF    xF1.3
....................    //++submenu; 
....................    break; 
09AD8:  BRA    9ADC
09ADA:  MOVLB  1
.................... } // switch 
.................... ++submenu; 
09ADC:  INCF   xF2,F
.................... } // si CANCEL 
.................... } // rebote falso 
....................  
....................  
.................... if (Rebote == False) { 
09ADE:  BTFSC  35.0
09AE0:  BRA    9B2E
.................... if (input(ARRIBA) == 0){ 
09AE2:  BSF    F93.0
09AE4:  BTFSC  F81.0
09AE6:  BRA    9B2E
.................... Rebote = True; 
09AE8:  BSF    35.0
.................... switch (submenu){ 
09AEA:  MOVLW  01
09AEC:  SUBWF  xF2,W
09AEE:  ADDLW  FA
09AF0:  BC    9B2C
09AF2:  ADDLW  06
09AF4:  MOVLB  0
09AF6:  GOTO   9E80
....................    case 1: 
....................    bit_clear(PassCheck[0],0); 
09AFA:  MOVLB  1
09AFC:  BCF    xF0.0
....................    bit_clear(PassCheck[0],1); 
09AFE:  BCF    xF0.1
....................    //++submenu; 
....................    break; 
09B00:  BRA    9B2C
....................  
....................    case 2: 
....................    bit_clear(PassCheck[0],2); 
09B02:  MOVLB  1
09B04:  BCF    xF0.2
....................    bit_clear(PassCheck[0],3); 
09B06:  BCF    xF0.3
....................    //++submenu; 
....................    break; 
09B08:  BRA    9B2C
....................  
....................    case 3: 
....................    bit_clear(PassCheck[0],4); 
09B0A:  MOVLB  1
09B0C:  BCF    xF0.4
....................    bit_clear(PassCheck[0],5); 
09B0E:  BCF    xF0.5
....................    //++submenu; 
....................    break; 
09B10:  BRA    9B2C
....................  
....................    case 4: 
....................    bit_clear(PassCheck[0],6); 
09B12:  MOVLB  1
09B14:  BCF    xF0.6
....................    bit_clear(PassCheck[0],7); 
09B16:  BCF    xF0.7
....................    //++submenu; 
....................    break; 
09B18:  BRA    9B2C
....................  
....................    case 5: 
....................    bit_clear(PassCheck[1],0); 
09B1A:  MOVLB  1
09B1C:  BCF    xF1.0
....................    bit_clear(PassCheck[1],1); 
09B1E:  BCF    xF1.1
....................    //++submenu; 
....................    break; 
09B20:  BRA    9B2C
....................  
....................    case 6: 
....................    bit_clear(PassCheck[1],2); 
09B22:  MOVLB  1
09B24:  BCF    xF1.2
....................    bit_clear(PassCheck[1],3); 
09B26:  BCF    xF1.3
....................    //++submenu; 
....................    break; 
09B28:  BRA    9B2C
09B2A:  MOVLB  1
....................  
.................... } // switch 
.................... ++submenu; 
09B2C:  INCF   xF2,F
.................... } // si ARRIBA 
.................... } // rebote falso 
....................  
....................  
.................... if (Rebote == False) { 
09B2E:  BTFSC  35.0
09B30:  BRA    9B7E
.................... if (input(ABAJO) == 0){ 
09B32:  BSF    F93.1
09B34:  BTFSC  F81.1
09B36:  BRA    9B7E
.................... Rebote = True; 
09B38:  BSF    35.0
.................... switch (submenu){ 
09B3A:  MOVLW  01
09B3C:  SUBWF  xF2,W
09B3E:  ADDLW  FA
09B40:  BC    9B7C
09B42:  ADDLW  06
09B44:  MOVLB  0
09B46:  GOTO   9EA6
....................    case 1: 
....................    bit_set(PassCheck[0],0); 
09B4A:  MOVLB  1
09B4C:  BSF    xF0.0
....................    bit_clear(PassCheck[0],1); 
09B4E:  BCF    xF0.1
....................    //++submenu; 
....................    break; 
09B50:  BRA    9B7C
....................  
....................    case 2: 
....................    bit_set(PassCheck[0],2); 
09B52:  MOVLB  1
09B54:  BSF    xF0.2
....................    bit_clear(PassCheck[0],3); 
09B56:  BCF    xF0.3
....................    //++submenu; 
....................    break; 
09B58:  BRA    9B7C
....................  
....................    case 3: 
....................    bit_set(PassCheck[0],4); 
09B5A:  MOVLB  1
09B5C:  BSF    xF0.4
....................    bit_clear(PassCheck[0],5); 
09B5E:  BCF    xF0.5
....................    //++submenu; 
....................    break; 
09B60:  BRA    9B7C
....................  
....................    case 4: 
....................    bit_set(PassCheck[0],6); 
09B62:  MOVLB  1
09B64:  BSF    xF0.6
....................    bit_clear(PassCheck[0],7); 
09B66:  BCF    xF0.7
....................    //++submenu; 
....................    break; 
09B68:  BRA    9B7C
....................  
....................    case 5: 
....................    bit_set(PassCheck[1],0); 
09B6A:  MOVLB  1
09B6C:  BSF    xF1.0
....................    bit_clear(PassCheck[1],1); 
09B6E:  BCF    xF1.1
....................    //++submenu; 
....................    break; 
09B70:  BRA    9B7C
....................  
....................    case 6: 
....................    bit_set(PassCheck[1],2); 
09B72:  MOVLB  1
09B74:  BSF    xF1.2
....................    bit_clear(PassCheck[1],3); 
09B76:  BCF    xF1.3
....................    //++submenu; 
....................    break; 
09B78:  BRA    9B7C
09B7A:  MOVLB  1
....................  
.................... } // switch 
.................... ++submenu; 
09B7C:  INCF   xF2,F
.................... } // si CANCEL 
.................... } // rebote falso 
....................  
.................... //lcd_gotoxy(1,1); 
.................... //printf(lcd_putc, "== Cambiar Clave ==="); 
.................... lcd_gotoxy(1,2); 
09B7E:  MOVLW  01
09B80:  MOVLB  2
09B82:  MOVWF  x0E
09B84:  MOVLW  02
09B86:  MOVWF  x0F
09B88:  MOVLB  0
09B8A:  CALL   2E90
.................... printf(lcd_putc, " Ingrese la clave:  "); 
09B8E:  MOVLW  EA
09B90:  MOVWF  FF6
09B92:  MOVLW  0D
09B94:  MOVWF  FF7
09B96:  CALL   2F62
....................  
.................... switch (submenu){ 
09B9A:  MOVLW  01
09B9C:  MOVLB  1
09B9E:  SUBWF  xF2,W
09BA0:  ADDLW  FA
09BA2:  BTFSC  FD8.0
09BA4:  BRA    9D44
09BA6:  ADDLW  06
09BA8:  MOVLB  0
09BAA:  GOTO   9ECC
.................... case 1: 
.................... lcd_gotoxy(7,3); 
09BAE:  MOVLW  07
09BB0:  MOVLB  2
09BB2:  MOVWF  x0E
09BB4:  MOVLW  03
09BB6:  MOVWF  x0F
09BB8:  MOVLB  0
09BBA:  CALL   2E90
.................... printf(lcd_putc, " %c_____",199); 
09BBE:  MOVLW  20
09BC0:  MOVLB  2
09BC2:  MOVWF  x0D
09BC4:  MOVLB  0
09BC6:  CALL   2EFA
09BCA:  MOVLW  C7
09BCC:  MOVLB  2
09BCE:  MOVWF  x0D
09BD0:  MOVLB  0
09BD2:  CALL   2EFA
09BD6:  MOVLW  03
09BD8:  MOVWF  FF6
09BDA:  MOVLW  0E
09BDC:  MOVWF  FF7
09BDE:  MOVLW  05
09BE0:  MOVLB  2
09BE2:  MOVWF  x0A
09BE4:  MOVLB  0
09BE6:  CALL   3496
.................... break; 
09BEA:  MOVLB  1
09BEC:  BRA    9D44
.................... case 2: 
.................... lcd_gotoxy(7,3); 
09BEE:  MOVLW  07
09BF0:  MOVLB  2
09BF2:  MOVWF  x0E
09BF4:  MOVLW  03
09BF6:  MOVWF  x0F
09BF8:  MOVLB  0
09BFA:  CALL   2E90
.................... printf(lcd_putc, " *%c____",199); 
09BFE:  MOVLW  20
09C00:  MOVLB  2
09C02:  MOVWF  x0D
09C04:  MOVLB  0
09C06:  CALL   2EFA
09C0A:  MOVLW  2A
09C0C:  MOVLB  2
09C0E:  MOVWF  x0D
09C10:  MOVLB  0
09C12:  CALL   2EFA
09C16:  MOVLW  C7
09C18:  MOVLB  2
09C1A:  MOVWF  x0D
09C1C:  MOVLB  0
09C1E:  CALL   2EFA
09C22:  MOVLW  0E
09C24:  MOVWF  FF6
09C26:  MOVLW  0E
09C28:  MOVWF  FF7
09C2A:  MOVLW  04
09C2C:  MOVLB  2
09C2E:  MOVWF  x0A
09C30:  MOVLB  0
09C32:  CALL   3496
.................... break; 
09C36:  MOVLB  1
09C38:  BRA    9D44
.................... case 3: 
.................... lcd_gotoxy(7,3); 
09C3A:  MOVLW  07
09C3C:  MOVLB  2
09C3E:  MOVWF  x0E
09C40:  MOVLW  03
09C42:  MOVWF  x0F
09C44:  MOVLB  0
09C46:  CALL   2E90
.................... printf(lcd_putc, " **%c___",199); 
09C4A:  MOVLW  14
09C4C:  MOVWF  FF6
09C4E:  MOVLW  0E
09C50:  MOVWF  FF7
09C52:  MOVLW  03
09C54:  MOVLB  2
09C56:  MOVWF  x0A
09C58:  MOVLB  0
09C5A:  CALL   3496
09C5E:  MOVLW  C7
09C60:  MOVLB  2
09C62:  MOVWF  x0D
09C64:  MOVLB  0
09C66:  CALL   2EFA
09C6A:  MOVLW  19
09C6C:  MOVWF  FF6
09C6E:  MOVLW  0E
09C70:  MOVWF  FF7
09C72:  MOVLW  03
09C74:  MOVLB  2
09C76:  MOVWF  x0A
09C78:  MOVLB  0
09C7A:  CALL   3496
.................... break; 
09C7E:  MOVLB  1
09C80:  BRA    9D44
.................... case 4: 
.................... lcd_gotoxy(7,3); 
09C82:  MOVLW  07
09C84:  MOVLB  2
09C86:  MOVWF  x0E
09C88:  MOVLW  03
09C8A:  MOVWF  x0F
09C8C:  MOVLB  0
09C8E:  CALL   2E90
.................... printf(lcd_putc, " ***%c__",199); 
09C92:  MOVLW  1E
09C94:  MOVWF  FF6
09C96:  MOVLW  0E
09C98:  MOVWF  FF7
09C9A:  MOVLW  04
09C9C:  MOVLB  2
09C9E:  MOVWF  x0A
09CA0:  MOVLB  0
09CA2:  CALL   3496
09CA6:  MOVLW  C7
09CA8:  MOVLB  2
09CAA:  MOVWF  x0D
09CAC:  MOVLB  0
09CAE:  CALL   2EFA
09CB2:  MOVLW  5F
09CB4:  MOVLB  2
09CB6:  MOVWF  x0D
09CB8:  MOVLB  0
09CBA:  CALL   2EFA
09CBE:  MOVLW  5F
09CC0:  MOVLB  2
09CC2:  MOVWF  x0D
09CC4:  MOVLB  0
09CC6:  CALL   2EFA
.................... break; 
09CCA:  MOVLB  1
09CCC:  BRA    9D44
.................... case 5: 
.................... lcd_gotoxy(7,3); 
09CCE:  MOVLW  07
09CD0:  MOVLB  2
09CD2:  MOVWF  x0E
09CD4:  MOVLW  03
09CD6:  MOVWF  x0F
09CD8:  MOVLB  0
09CDA:  CALL   2E90
.................... printf(lcd_putc, " ****%c_",199); 
09CDE:  MOVLW  28
09CE0:  MOVWF  FF6
09CE2:  MOVLW  0E
09CE4:  MOVWF  FF7
09CE6:  MOVLW  05
09CE8:  MOVLB  2
09CEA:  MOVWF  x0A
09CEC:  MOVLB  0
09CEE:  CALL   3496
09CF2:  MOVLW  C7
09CF4:  MOVLB  2
09CF6:  MOVWF  x0D
09CF8:  MOVLB  0
09CFA:  CALL   2EFA
09CFE:  MOVLW  5F
09D00:  MOVLB  2
09D02:  MOVWF  x0D
09D04:  MOVLB  0
09D06:  CALL   2EFA
.................... break; 
09D0A:  MOVLB  1
09D0C:  BRA    9D44
.................... case 6: 
.................... lcd_gotoxy(7,3); 
09D0E:  MOVLW  07
09D10:  MOVLB  2
09D12:  MOVWF  x0E
09D14:  MOVLW  03
09D16:  MOVWF  x0F
09D18:  MOVLB  0
09D1A:  CALL   2E90
.................... printf(lcd_putc, " *****%c",199); 
09D1E:  MOVLW  32
09D20:  MOVWF  FF6
09D22:  MOVLW  0E
09D24:  MOVWF  FF7
09D26:  MOVLW  06
09D28:  MOVLB  2
09D2A:  MOVWF  x0A
09D2C:  MOVLB  0
09D2E:  CALL   3496
09D32:  MOVLW  C7
09D34:  MOVLB  2
09D36:  MOVWF  x0D
09D38:  MOVLB  0
09D3A:  CALL   2EFA
.................... break; 
09D3E:  MOVLB  1
09D40:  BRA    9D44
09D42:  MOVLB  1
....................  
.................... } // Sw subm 
....................  
.................... restart_wdt(); 
09D44:  CLRWDT
09D46:  BRA    9A1A
....................  
....................  
.................... } // while -- todo lleno cuando salgo de aqui 
....................  
.................... if ((PassCheck[0] == Passwd[0]) && (PassCheck[1] == Passwd[1]))  { // contrasea comprobada ok 
09D48:  MOVF   xD5,W
09D4A:  SUBWF  xF0,W
09D4C:  BNZ   9DBA
09D4E:  MOVF   xD6,W
09D50:  SUBWF  xF1,W
09D52:  BNZ   9DBA
.................... int espera = Tiempo1 + 5; 
09D54:  MOVLW  05
09D56:  ADDWF  48,W
09D58:  MOVWF  xF3
.................... LIMPIARLCD; 
09D5A:  MOVLW  3C
09D5C:  MOVWF  FF6
09D5E:  MOVLW  0E
09D60:  MOVWF  FF7
09D62:  MOVLB  0
09D64:  CALL   2F62
.................... lcd_gotoxy(1,2); 
09D68:  MOVLW  01
09D6A:  MOVLB  2
09D6C:  MOVWF  x0E
09D6E:  MOVLW  02
09D70:  MOVWF  x0F
09D72:  MOVLB  0
09D74:  CALL   2E90
.................... printf(lcd_putc, "   Clave correcta   "); 
09D78:  MOVLW  3E
09D7A:  MOVWF  FF6
09D7C:  MOVLW  0E
09D7E:  MOVWF  FF7
09D80:  CALL   2F62
.................... lcd_gotoxy(1,3); 
09D84:  MOVLW  01
09D86:  MOVLB  2
09D88:  MOVWF  x0E
09D8A:  MOVLW  03
09D8C:  MOVWF  x0F
09D8E:  MOVLB  0
09D90:  CALL   2E90
.................... printf(lcd_putc, "    Bienvenido :)   "); 
09D94:  MOVLW  54
09D96:  MOVWF  FF6
09D98:  MOVLW  0E
09D9A:  MOVWF  FF7
09D9C:  CALL   2F62
.................... restart_wdt(); 
09DA0:  CLRWDT
.................... while (espera != Tiempo1) restart_wdt(); 
09DA2:  MOVF   48,W
09DA4:  MOVLB  1
09DA6:  SUBWF  xF3,W
09DA8:  BZ    9DB2
09DAA:  CLRWDT
09DAC:  MOVLB  0
09DAE:  BRA    9DA2
09DB0:  MOVLB  1
.................... return 1; 
09DB2:  MOVLW  01
09DB4:  MOVWF  01
09DB6:  BRA    9E30
.................... } else { // contrasea no comprobada ok 
09DB8:  BRA    9E30
.................... int espera = Tiempo1 + 5; 
09DBA:  MOVLW  05
09DBC:  ADDWF  48,W
09DBE:  MOVWF  xF4
.................... LIMPIARLCD; 
09DC0:  MOVLW  6A
09DC2:  MOVWF  FF6
09DC4:  MOVLW  0E
09DC6:  MOVWF  FF7
09DC8:  MOVLB  0
09DCA:  CALL   2F62
.................... lcd_gotoxy(1,2); 
09DCE:  MOVLW  01
09DD0:  MOVLB  2
09DD2:  MOVWF  x0E
09DD4:  MOVLW  02
09DD6:  MOVWF  x0F
09DD8:  MOVLB  0
09DDA:  CALL   2E90
.................... lcd_gotoxy(1,2); 
09DDE:  MOVLW  01
09DE0:  MOVLB  2
09DE2:  MOVWF  x0E
09DE4:  MOVLW  02
09DE6:  MOVWF  x0F
09DE8:  MOVLB  0
09DEA:  CALL   2E90
.................... printf(lcd_putc, "  Clave incorrecta  "); 
09DEE:  MOVLW  6C
09DF0:  MOVWF  FF6
09DF2:  MOVLW  0E
09DF4:  MOVWF  FF7
09DF6:  CALL   2F62
.................... lcd_gotoxy(1,3); 
09DFA:  MOVLW  01
09DFC:  MOVLB  2
09DFE:  MOVWF  x0E
09E00:  MOVLW  03
09E02:  MOVWF  x0F
09E04:  MOVLB  0
09E06:  CALL   2E90
.................... printf(lcd_putc, " Acceso denegado :( "); 
09E0A:  MOVLW  82
09E0C:  MOVWF  FF6
09E0E:  MOVLW  0E
09E10:  MOVWF  FF7
09E12:  CALL   2F62
.................... restart_wdt(); 
09E16:  CLRWDT
.................... while (espera != Tiempo1) restart_wdt(); 
09E18:  MOVF   48,W
09E1A:  MOVLB  1
09E1C:  SUBWF  xF4,W
09E1E:  BZ    9E28
09E20:  CLRWDT
09E22:  MOVLB  0
09E24:  BRA    9E18
09E26:  MOVLB  1
.................... //delay_ms(1000); 
.................... Menu = 1; 
09E28:  MOVLW  01
09E2A:  MOVWF  28
.................... return 0; 
09E2C:  MOVLW  00
09E2E:  MOVWF  01
.................... } 
09E30:  MOVLB  0
09E32:  RETURN 0
.................... } // fn 
....................  
....................  
.................... void CClave(){ 
.................... if (Autenticar()){ 
*
09EF2:  RCALL  9A00
09EF4:  MOVF   01,F
09EF6:  BTFSC  FD8.2
09EF8:  GOTO   A640
.................... restart_wdt(); 
09EFC:  CLRWDT
.................... LIMPIARLCD; 
09EFE:  MOVLW  98
09F00:  MOVWF  FF6
09F02:  MOVLW  0E
09F04:  MOVWF  FF7
09F06:  CALL   2F62
....................  
.................... int PassCheck1[2]; 
.................... int PassCheck2[2]; 
....................  
.................... PassCheck1[0] = PassCheck1[1] = PassCheck2[0] = PassCheck2[1] = 0; 
09F0A:  MOVLB  1
09F0C:  CLRF   xEE
09F0E:  MOVFF  1EE,1ED
09F12:  MOVFF  1ED,1EC
09F16:  MOVFF  1EC,1EB
....................  
.................... int submenu = 1; 
09F1A:  MOVLW  01
09F1C:  MOVWF  xEF
....................  
.................... while (submenu < 13){ 
09F1E:  MOVF   xEF,W
09F20:  SUBLW  0C
09F22:  BTFSS  FD8.0
09F24:  BRA    A4D2
....................  
.................... restart_wdt(); 
09F26:  CLRWDT
....................  
.................... if (input(ARRIBA)==1 && input(ABAJO)==1 && input(OOKK)==1 && input(CANCEL)==1) Rebote = false; // Soltamos las teclas 
09F28:  BSF    F93.0
09F2A:  BTFSS  F81.0
09F2C:  BRA    9F42
09F2E:  BSF    F93.1
09F30:  BTFSS  F81.1
09F32:  BRA    9F42
09F34:  BSF    F93.2
09F36:  BTFSS  F81.2
09F38:  BRA    9F42
09F3A:  BSF    F93.3
09F3C:  BTFSS  F81.3
09F3E:  BRA    9F42
09F40:  BCF    35.0
....................  
....................  
.................... if (Rebote == False) { 
09F42:  BTFSC  35.0
09F44:  BRA    9FC2
.................... if (input(OOKK) == 0){ 
09F46:  BSF    F93.2
09F48:  BTFSC  F81.2
09F4A:  BRA    9FC2
.................... Rebote = True; 
09F4C:  BSF    35.0
.................... switch (submenu){ 
09F4E:  MOVLW  01
09F50:  SUBWF  xEF,W
09F52:  ADDLW  F4
09F54:  BC    9FC0
09F56:  ADDLW  0C
09F58:  MOVLB  0
09F5A:  GOTO   A646
....................    case 1: 
....................    bit_clear(PassCheck1[0],0); 
09F5E:  MOVLB  1
09F60:  BCF    xEB.0
....................    bit_set(PassCheck1[0],1); 
09F62:  BSF    xEB.1
....................    //++submenu; 
....................    break; 
09F64:  BRA    9FC0
....................  
.................... case 7: 
....................    bit_clear(PassCheck2[0],0); 
09F66:  MOVLB  1
09F68:  BCF    xED.0
....................    bit_set(PassCheck2[0],1); 
09F6A:  BSF    xED.1
....................    //++submenu; 
....................    break; 
09F6C:  BRA    9FC0
....................    case 2: 
....................    bit_clear(PassCheck1[0],2); 
09F6E:  MOVLB  1
09F70:  BCF    xEB.2
....................    bit_set(PassCheck1[0],3); 
09F72:  BSF    xEB.3
....................    //++submenu; 
....................    break; 
09F74:  BRA    9FC0
....................  
....................    case 8: 
....................    bit_clear(PassCheck2[0],2); 
09F76:  MOVLB  1
09F78:  BCF    xED.2
....................    bit_set(PassCheck2[0],3); 
09F7A:  BSF    xED.3
....................    //++submenu; 
....................    break; 
09F7C:  BRA    9FC0
....................  
....................    case 3: 
....................    bit_clear(PassCheck1[0],4); 
09F7E:  MOVLB  1
09F80:  BCF    xEB.4
....................    bit_set(PassCheck1[0],5); 
09F82:  BSF    xEB.5
....................    //++submenu; 
....................    break; 
09F84:  BRA    9FC0
....................    case 9: 
....................    bit_clear(PassCheck2[0],4); 
09F86:  MOVLB  1
09F88:  BCF    xED.4
....................    bit_set(PassCheck2[0],5); 
09F8A:  BSF    xED.5
....................    //++submenu; 
....................    break; 
09F8C:  BRA    9FC0
....................  
....................    case 4: 
....................    bit_clear(PassCheck1[0],6); 
09F8E:  MOVLB  1
09F90:  BCF    xEB.6
....................    bit_set(PassCheck1[0],7); 
09F92:  BSF    xEB.7
....................    //++submenu; 
....................    break; 
09F94:  BRA    9FC0
....................    case 10: 
....................    bit_clear(PassCheck2[0],6); 
09F96:  MOVLB  1
09F98:  BCF    xED.6
....................    bit_set(PassCheck2[0],7); 
09F9A:  BSF    xED.7
....................    //++submenu; 
....................    break; 
09F9C:  BRA    9FC0
....................  
....................    case 5: 
....................    bit_clear(PassCheck1[1],0); 
09F9E:  MOVLB  1
09FA0:  BCF    xEC.0
....................    bit_set(PassCheck1[1],1); 
09FA2:  BSF    xEC.1
....................    //++submenu; 
....................    break; 
09FA4:  BRA    9FC0
....................    case 11: 
....................    bit_clear(PassCheck2[1],0); 
09FA6:  MOVLB  1
09FA8:  BCF    xEE.0
....................    bit_set(PassCheck2[1],1); 
09FAA:  BSF    xEE.1
....................    //++submenu; 
....................    break; 
09FAC:  BRA    9FC0
....................  
....................    case 6: 
....................    bit_clear(PassCheck1[1],2); 
09FAE:  MOVLB  1
09FB0:  BCF    xEC.2
....................    bit_set(PassCheck1[1],3); 
09FB2:  BSF    xEC.3
....................    //++submenu; 
....................    break; 
09FB4:  BRA    9FC0
....................    case 12: 
....................    bit_clear(PassCheck2[1],2); 
09FB6:  MOVLB  1
09FB8:  BCF    xEE.2
....................    bit_set(PassCheck2[1],3); 
09FBA:  BSF    xEE.3
....................    //++submenu; 
....................    break; 
09FBC:  BRA    9FC0
09FBE:  MOVLB  1
.................... } 
.................... ++submenu; 
09FC0:  INCF   xEF,F
.................... } // si OK 
.................... } // rebote falso 
....................  
.................... if (Rebote == False) { 
09FC2:  BTFSC  35.0
09FC4:  BRA    A042
.................... if (input(CANCEL) == 0){ 
09FC6:  BSF    F93.3
09FC8:  BTFSC  F81.3
09FCA:  BRA    A042
.................... Rebote = True; 
09FCC:  BSF    35.0
.................... switch (submenu){ 
09FCE:  MOVLW  01
09FD0:  SUBWF  xEF,W
09FD2:  ADDLW  F4
09FD4:  BC    A040
09FD6:  ADDLW  0C
09FD8:  MOVLB  0
09FDA:  GOTO   A678
....................    case 1: 
....................    bit_set(PassCheck1[0],0); 
09FDE:  MOVLB  1
09FE0:  BSF    xEB.0
....................    bit_set(PassCheck1[0],1); 
09FE2:  BSF    xEB.1
....................    //++submenu; 
....................    break; 
09FE4:  BRA    A040
....................    case 7: 
....................    bit_set(PassCheck2[0],0); 
09FE6:  MOVLB  1
09FE8:  BSF    xED.0
....................    bit_set(PassCheck2[0],1); 
09FEA:  BSF    xED.1
....................    //++submenu; 
....................    break; 
09FEC:  BRA    A040
....................  
....................    case 2: 
....................    bit_set(PassCheck1[0],2); 
09FEE:  MOVLB  1
09FF0:  BSF    xEB.2
....................    bit_set(PassCheck1[0],3); 
09FF2:  BSF    xEB.3
....................    //++submenu; 
....................    break; 
09FF4:  BRA    A040
....................    case 8: 
....................    bit_set(PassCheck2[0],2); 
09FF6:  MOVLB  1
09FF8:  BSF    xED.2
....................    bit_set(PassCheck2[0],3); 
09FFA:  BSF    xED.3
....................    //++submenu; 
....................    break; 
09FFC:  BRA    A040
....................  
....................    case 3: 
....................    bit_set(PassCheck1[0],4); 
09FFE:  MOVLB  1
0A000:  BSF    xEB.4
....................    bit_set(PassCheck1[0],5); 
0A002:  BSF    xEB.5
....................    //++submenu; 
....................    break; 
0A004:  BRA    A040
....................    case 9: 
....................    bit_set(PassCheck2[0],4); 
0A006:  MOVLB  1
0A008:  BSF    xED.4
....................    bit_set(PassCheck2[0],5); 
0A00A:  BSF    xED.5
....................    //++submenu; 
....................    break; 
0A00C:  BRA    A040
....................  
....................    case 4: 
....................    bit_set(PassCheck1[0],6); 
0A00E:  MOVLB  1
0A010:  BSF    xEB.6
....................    bit_set(PassCheck1[0],7); 
0A012:  BSF    xEB.7
....................    //++submenu; 
....................    break; 
0A014:  BRA    A040
....................    case 10: 
....................    bit_set(PassCheck2[0],6); 
0A016:  MOVLB  1
0A018:  BSF    xED.6
....................    bit_set(PassCheck2[0],7); 
0A01A:  BSF    xED.7
....................    //++submenu; 
....................    break; 
0A01C:  BRA    A040
....................  
....................    case 5: 
....................    bit_set(PassCheck1[1],0); 
0A01E:  MOVLB  1
0A020:  BSF    xEC.0
....................    bit_set(PassCheck1[1],1); 
0A022:  BSF    xEC.1
....................    //++submenu; 
....................    break; 
0A024:  BRA    A040
....................    case 11: 
....................    bit_set(PassCheck2[1],0); 
0A026:  MOVLB  1
0A028:  BSF    xEE.0
....................    bit_set(PassCheck2[1],1); 
0A02A:  BSF    xEE.1
....................    //++submenu; 
....................    break; 
0A02C:  BRA    A040
....................  
....................    case 6: 
....................    bit_set(PassCheck1[1],2); 
0A02E:  MOVLB  1
0A030:  BSF    xEC.2
....................    bit_set(PassCheck1[1],3); 
0A032:  BSF    xEC.3
....................    //++submenu; 
....................    break; 
0A034:  BRA    A040
....................    case 12: 
....................    bit_set(PassCheck2[1],2); 
0A036:  MOVLB  1
0A038:  BSF    xEE.2
....................    bit_set(PassCheck2[1],3); 
0A03A:  BSF    xEE.3
....................    //++submenu; 
....................    break; 
0A03C:  BRA    A040
0A03E:  MOVLB  1
.................... } // switch 
.................... ++submenu; 
0A040:  INCF   xEF,F
.................... } // si CANCEL 
.................... } // rebote falso 
....................  
....................  
.................... if (Rebote == False) { 
0A042:  BTFSC  35.0
0A044:  BRA    A0C2
.................... if (input(ARRIBA) == 0){ 
0A046:  BSF    F93.0
0A048:  BTFSC  F81.0
0A04A:  BRA    A0C2
.................... Rebote = True; 
0A04C:  BSF    35.0
.................... switch (submenu){ 
0A04E:  MOVLW  01
0A050:  SUBWF  xEF,W
0A052:  ADDLW  F4
0A054:  BC    A0C0
0A056:  ADDLW  0C
0A058:  MOVLB  0
0A05A:  GOTO   A6AA
....................    case 1: 
....................    bit_clear(PassCheck1[0],0); 
0A05E:  MOVLB  1
0A060:  BCF    xEB.0
....................    bit_clear(PassCheck1[0],1); 
0A062:  BCF    xEB.1
....................    //++submenu; 
....................    break; 
0A064:  BRA    A0C0
....................    case 7: 
....................    bit_clear(PassCheck2[0],0); 
0A066:  MOVLB  1
0A068:  BCF    xED.0
....................    bit_clear(PassCheck2[0],1); 
0A06A:  BCF    xED.1
....................    //++submenu; 
....................    break; 
0A06C:  BRA    A0C0
....................  
....................    case 2: 
....................    bit_clear(PassCheck1[0],2); 
0A06E:  MOVLB  1
0A070:  BCF    xEB.2
....................    bit_clear(PassCheck1[0],3); 
0A072:  BCF    xEB.3
....................    //++submenu; 
....................    break; 
0A074:  BRA    A0C0
....................    case 8: 
....................    bit_clear(PassCheck2[0],2); 
0A076:  MOVLB  1
0A078:  BCF    xED.2
....................    bit_clear(PassCheck2[0],3); 
0A07A:  BCF    xED.3
....................    //++submenu; 
....................    break; 
0A07C:  BRA    A0C0
....................  
....................    case 3: 
....................    bit_clear(PassCheck1[0],4); 
0A07E:  MOVLB  1
0A080:  BCF    xEB.4
....................    bit_clear(PassCheck1[0],5); 
0A082:  BCF    xEB.5
....................    //++submenu; 
....................    break; 
0A084:  BRA    A0C0
....................    case 9: 
....................    bit_clear(PassCheck2[0],4); 
0A086:  MOVLB  1
0A088:  BCF    xED.4
....................    bit_clear(PassCheck2[0],5); 
0A08A:  BCF    xED.5
....................    //++submenu; 
....................    break; 
0A08C:  BRA    A0C0
....................  
....................    case 4: 
....................    bit_clear(PassCheck1[0],6); 
0A08E:  MOVLB  1
0A090:  BCF    xEB.6
....................    bit_clear(PassCheck1[0],7); 
0A092:  BCF    xEB.7
....................    //++submenu; 
....................    break; 
0A094:  BRA    A0C0
....................    case 10: 
....................    bit_clear(PassCheck2[0],6); 
0A096:  MOVLB  1
0A098:  BCF    xED.6
....................    bit_clear(PassCheck2[0],7); 
0A09A:  BCF    xED.7
....................    //++submenu; 
....................    break; 
0A09C:  BRA    A0C0
....................  
....................    case 5: 
....................    bit_clear(PassCheck1[1],0); 
0A09E:  MOVLB  1
0A0A0:  BCF    xEC.0
....................    bit_clear(PassCheck1[1],1); 
0A0A2:  BCF    xEC.1
....................    //++submenu; 
....................    break; 
0A0A4:  BRA    A0C0
....................    case 11: 
....................    bit_clear(PassCheck2[1],0); 
0A0A6:  MOVLB  1
0A0A8:  BCF    xEE.0
....................    bit_clear(PassCheck2[1],1); 
0A0AA:  BCF    xEE.1
....................    //++submenu; 
....................    break; 
0A0AC:  BRA    A0C0
....................  
....................    case 6: 
....................    bit_clear(PassCheck1[1],2); 
0A0AE:  MOVLB  1
0A0B0:  BCF    xEC.2
....................    bit_clear(PassCheck1[1],3); 
0A0B2:  BCF    xEC.3
....................    //++submenu; 
....................    break; 
0A0B4:  BRA    A0C0
....................    case 12: 
....................    bit_clear(PassCheck2[1],2); 
0A0B6:  MOVLB  1
0A0B8:  BCF    xEE.2
....................    bit_clear(PassCheck2[1],3); 
0A0BA:  BCF    xEE.3
....................    //++submenu; 
....................    break; 
0A0BC:  BRA    A0C0
0A0BE:  MOVLB  1
.................... } // switch 
.................... ++submenu; 
0A0C0:  INCF   xEF,F
.................... } // si ARRIBA 
.................... } // rebote falso 
....................  
....................  
.................... if (Rebote == False) { 
0A0C2:  BTFSC  35.0
0A0C4:  BRA    A142
.................... if (input(ABAJO) == 0){ 
0A0C6:  BSF    F93.1
0A0C8:  BTFSC  F81.1
0A0CA:  BRA    A142
.................... Rebote = True; 
0A0CC:  BSF    35.0
.................... switch (submenu){ 
0A0CE:  MOVLW  01
0A0D0:  SUBWF  xEF,W
0A0D2:  ADDLW  F4
0A0D4:  BC    A140
0A0D6:  ADDLW  0C
0A0D8:  MOVLB  0
0A0DA:  GOTO   A6DC
....................    case 1: 
....................    bit_set(PassCheck1[0],0); 
0A0DE:  MOVLB  1
0A0E0:  BSF    xEB.0
....................    bit_clear(PassCheck1[0],1); 
0A0E2:  BCF    xEB.1
....................    //++submenu; 
....................    break; 
0A0E4:  BRA    A140
....................    case 7: 
....................    bit_set(PassCheck2[0],0); 
0A0E6:  MOVLB  1
0A0E8:  BSF    xED.0
....................    bit_clear(PassCheck2[0],1); 
0A0EA:  BCF    xED.1
....................    //++submenu; 
....................    break; 
0A0EC:  BRA    A140
....................  
....................    case 2: 
....................    bit_set(PassCheck1[0],2); 
0A0EE:  MOVLB  1
0A0F0:  BSF    xEB.2
....................    bit_clear(PassCheck1[0],3); 
0A0F2:  BCF    xEB.3
....................    //++submenu; 
....................    break; 
0A0F4:  BRA    A140
....................    case 8: 
....................    bit_set(PassCheck2[0],2); 
0A0F6:  MOVLB  1
0A0F8:  BSF    xED.2
....................    bit_clear(PassCheck2[0],3); 
0A0FA:  BCF    xED.3
....................    //++submenu; 
....................    break; 
0A0FC:  BRA    A140
....................  
....................    case 3: 
....................    bit_set(PassCheck1[0],4); 
0A0FE:  MOVLB  1
0A100:  BSF    xEB.4
....................    bit_clear(PassCheck1[0],5); 
0A102:  BCF    xEB.5
....................    //++submenu; 
....................    break; 
0A104:  BRA    A140
....................    case 9: 
....................    bit_set(PassCheck2[0],4); 
0A106:  MOVLB  1
0A108:  BSF    xED.4
....................    bit_clear(PassCheck2[0],5); 
0A10A:  BCF    xED.5
....................    //++submenu; 
....................    break; 
0A10C:  BRA    A140
....................  
....................    case 4: 
....................    bit_set(PassCheck1[0],6); 
0A10E:  MOVLB  1
0A110:  BSF    xEB.6
....................    bit_clear(PassCheck1[0],7); 
0A112:  BCF    xEB.7
....................    //++submenu; 
....................    break; 
0A114:  BRA    A140
....................    case 10: 
....................    bit_set(PassCheck2[0],6); 
0A116:  MOVLB  1
0A118:  BSF    xED.6
....................    bit_clear(PassCheck2[0],7); 
0A11A:  BCF    xED.7
....................    //++submenu; 
....................    break; 
0A11C:  BRA    A140
....................  
....................    case 5: 
....................    bit_set(PassCheck1[1],0); 
0A11E:  MOVLB  1
0A120:  BSF    xEC.0
....................    bit_clear(PassCheck1[1],1); 
0A122:  BCF    xEC.1
....................    //++submenu; 
....................    break; 
0A124:  BRA    A140
....................    case 11: 
....................    bit_set(PassCheck2[1],0); 
0A126:  MOVLB  1
0A128:  BSF    xEE.0
....................    bit_clear(PassCheck2[1],1); 
0A12A:  BCF    xEE.1
....................    //++submenu; 
....................    break; 
0A12C:  BRA    A140
....................  
....................    case 6: 
....................    bit_set(PassCheck1[1],2); 
0A12E:  MOVLB  1
0A130:  BSF    xEC.2
....................    bit_clear(PassCheck1[1],3); 
0A132:  BCF    xEC.3
....................    //++submenu; 
....................    break; 
0A134:  BRA    A140
....................    case 12: 
....................    bit_set(PassCheck2[1],2); 
0A136:  MOVLB  1
0A138:  BSF    xEE.2
....................    bit_clear(PassCheck2[1],3); 
0A13A:  BCF    xEE.3
....................    //++submenu; 
....................    break; 
0A13C:  BRA    A140
0A13E:  MOVLB  1
.................... } // switch 
.................... ++submenu; 
0A140:  INCF   xEF,F
.................... } // si CANCEL 
.................... } // rebote falso 
....................  
.................... lcd_gotoxy(1,1); 
0A142:  MOVLW  01
0A144:  MOVLB  2
0A146:  MOVWF  x0E
0A148:  MOVWF  x0F
0A14A:  MOVLB  0
0A14C:  CALL   2E90
.................... printf(lcd_putc, "== Cambiar Clave ==="); 
0A150:  MOVLW  9A
0A152:  MOVWF  FF6
0A154:  MOVLW  0E
0A156:  MOVWF  FF7
0A158:  CALL   2F62
.................... lcd_gotoxy(1,2); 
0A15C:  MOVLW  01
0A15E:  MOVLB  2
0A160:  MOVWF  x0E
0A162:  MOVLW  02
0A164:  MOVWF  x0F
0A166:  MOVLB  0
0A168:  CALL   2E90
.................... printf(lcd_putc, "  Nueva: "); 
0A16C:  MOVLW  B0
0A16E:  MOVWF  FF6
0A170:  MOVLW  0E
0A172:  MOVWF  FF7
0A174:  CALL   2F62
.................... if (submenu > 6) { 
0A178:  MOVLB  1
0A17A:  MOVF   xEF,W
0A17C:  SUBLW  06
0A17E:  BC    A19E
.................... lcd_gotoxy(1,3); 
0A180:  MOVLW  01
0A182:  MOVLB  2
0A184:  MOVWF  x0E
0A186:  MOVLW  03
0A188:  MOVWF  x0F
0A18A:  MOVLB  0
0A18C:  CALL   2E90
.................... printf(lcd_putc, " Repita: "); 
0A190:  MOVLW  BA
0A192:  MOVWF  FF6
0A194:  MOVLW  0E
0A196:  MOVWF  FF7
0A198:  CALL   2F62
0A19C:  MOVLB  1
.................... } 
....................  
.................... switch (submenu){ 
0A19E:  MOVLW  01
0A1A0:  SUBWF  xEF,W
0A1A2:  ADDLW  F4
0A1A4:  BTFSC  FD8.0
0A1A6:  BRA    A4CE
0A1A8:  ADDLW  0C
0A1AA:  MOVLB  0
0A1AC:  GOTO   A70E
.................... case 1: 
.................... lcd_gotoxy(10,2); 
0A1B0:  MOVLW  0A
0A1B2:  MOVLB  2
0A1B4:  MOVWF  x0E
0A1B6:  MOVLW  02
0A1B8:  MOVWF  x0F
0A1BA:  MOVLB  0
0A1BC:  CALL   2E90
.................... printf(lcd_putc, "%c_____",199); 
0A1C0:  MOVLW  C7
0A1C2:  MOVLB  2
0A1C4:  MOVWF  x0D
0A1C6:  MOVLB  0
0A1C8:  CALL   2EFA
0A1CC:  MOVLW  C6
0A1CE:  MOVWF  FF6
0A1D0:  MOVLW  0E
0A1D2:  MOVWF  FF7
0A1D4:  MOVLW  05
0A1D6:  MOVLB  2
0A1D8:  MOVWF  x0A
0A1DA:  MOVLB  0
0A1DC:  CALL   3496
.................... break; 
0A1E0:  MOVLB  1
0A1E2:  BRA    A4CE
.................... case 2: 
.................... lcd_gotoxy(10,2); 
0A1E4:  MOVLW  0A
0A1E6:  MOVLB  2
0A1E8:  MOVWF  x0E
0A1EA:  MOVLW  02
0A1EC:  MOVWF  x0F
0A1EE:  MOVLB  0
0A1F0:  CALL   2E90
.................... printf(lcd_putc, "*%c____",199); 
0A1F4:  MOVLW  2A
0A1F6:  MOVLB  2
0A1F8:  MOVWF  x0D
0A1FA:  MOVLB  0
0A1FC:  CALL   2EFA
0A200:  MOVLW  C7
0A202:  MOVLB  2
0A204:  MOVWF  x0D
0A206:  MOVLB  0
0A208:  CALL   2EFA
0A20C:  MOVLW  CF
0A20E:  MOVWF  FF6
0A210:  MOVLW  0E
0A212:  MOVWF  FF7
0A214:  MOVLW  04
0A216:  MOVLB  2
0A218:  MOVWF  x0A
0A21A:  MOVLB  0
0A21C:  CALL   3496
.................... break; 
0A220:  MOVLB  1
0A222:  BRA    A4CE
.................... case 3: 
.................... lcd_gotoxy(10,2); 
0A224:  MOVLW  0A
0A226:  MOVLB  2
0A228:  MOVWF  x0E
0A22A:  MOVLW  02
0A22C:  MOVWF  x0F
0A22E:  MOVLB  0
0A230:  CALL   2E90
.................... printf(lcd_putc, "**%c___",199); 
0A234:  MOVLW  2A
0A236:  MOVLB  2
0A238:  MOVWF  x0D
0A23A:  MOVLB  0
0A23C:  CALL   2EFA
0A240:  MOVLW  2A
0A242:  MOVLB  2
0A244:  MOVWF  x0D
0A246:  MOVLB  0
0A248:  CALL   2EFA
0A24C:  MOVLW  C7
0A24E:  MOVLB  2
0A250:  MOVWF  x0D
0A252:  MOVLB  0
0A254:  CALL   2EFA
0A258:  MOVLW  D8
0A25A:  MOVWF  FF6
0A25C:  MOVLW  0E
0A25E:  MOVWF  FF7
0A260:  MOVLW  03
0A262:  MOVLB  2
0A264:  MOVWF  x0A
0A266:  MOVLB  0
0A268:  CALL   3496
.................... break; 
0A26C:  MOVLB  1
0A26E:  BRA    A4CE
.................... case 4: 
.................... lcd_gotoxy(10,2); 
0A270:  MOVLW  0A
0A272:  MOVLB  2
0A274:  MOVWF  x0E
0A276:  MOVLW  02
0A278:  MOVWF  x0F
0A27A:  MOVLB  0
0A27C:  CALL   2E90
.................... printf(lcd_putc, "***%c__",199); 
0A280:  MOVLW  DC
0A282:  MOVWF  FF6
0A284:  MOVLW  0E
0A286:  MOVWF  FF7
0A288:  MOVLW  03
0A28A:  MOVLB  2
0A28C:  MOVWF  x0A
0A28E:  MOVLB  0
0A290:  CALL   3496
0A294:  MOVLW  C7
0A296:  MOVLB  2
0A298:  MOVWF  x0D
0A29A:  MOVLB  0
0A29C:  CALL   2EFA
0A2A0:  MOVLW  5F
0A2A2:  MOVLB  2
0A2A4:  MOVWF  x0D
0A2A6:  MOVLB  0
0A2A8:  CALL   2EFA
0A2AC:  MOVLW  5F
0A2AE:  MOVLB  2
0A2B0:  MOVWF  x0D
0A2B2:  MOVLB  0
0A2B4:  CALL   2EFA
.................... break; 
0A2B8:  MOVLB  1
0A2BA:  BRA    A4CE
.................... case 5: 
.................... lcd_gotoxy(10,2); 
0A2BC:  MOVLW  0A
0A2BE:  MOVLB  2
0A2C0:  MOVWF  x0E
0A2C2:  MOVLW  02
0A2C4:  MOVWF  x0F
0A2C6:  MOVLB  0
0A2C8:  CALL   2E90
.................... printf(lcd_putc, "****%c_",199); 
0A2CC:  MOVLW  E4
0A2CE:  MOVWF  FF6
0A2D0:  MOVLW  0E
0A2D2:  MOVWF  FF7
0A2D4:  MOVLW  04
0A2D6:  MOVLB  2
0A2D8:  MOVWF  x0A
0A2DA:  MOVLB  0
0A2DC:  CALL   3496
0A2E0:  MOVLW  C7
0A2E2:  MOVLB  2
0A2E4:  MOVWF  x0D
0A2E6:  MOVLB  0
0A2E8:  CALL   2EFA
0A2EC:  MOVLW  5F
0A2EE:  MOVLB  2
0A2F0:  MOVWF  x0D
0A2F2:  MOVLB  0
0A2F4:  CALL   2EFA
.................... break; 
0A2F8:  MOVLB  1
0A2FA:  BRA    A4CE
.................... case 6: 
.................... lcd_gotoxy(10,2); 
0A2FC:  MOVLW  0A
0A2FE:  MOVLB  2
0A300:  MOVWF  x0E
0A302:  MOVLW  02
0A304:  MOVWF  x0F
0A306:  MOVLB  0
0A308:  CALL   2E90
.................... printf(lcd_putc, "*****%c",199); 
0A30C:  MOVLW  EC
0A30E:  MOVWF  FF6
0A310:  MOVLW  0E
0A312:  MOVWF  FF7
0A314:  MOVLW  05
0A316:  MOVLB  2
0A318:  MOVWF  x0A
0A31A:  MOVLB  0
0A31C:  CALL   3496
0A320:  MOVLW  C7
0A322:  MOVLB  2
0A324:  MOVWF  x0D
0A326:  MOVLB  0
0A328:  CALL   2EFA
.................... break; 
0A32C:  MOVLB  1
0A32E:  BRA    A4CE
....................  
.................... case 7: 
.................... lcd_gotoxy(10,2); 
0A330:  MOVLW  0A
0A332:  MOVLB  2
0A334:  MOVWF  x0E
0A336:  MOVLW  02
0A338:  MOVWF  x0F
0A33A:  MOVLB  0
0A33C:  CALL   2E90
.................... printf(lcd_putc, "******"); 
0A340:  MOVLW  F4
0A342:  MOVWF  FF6
0A344:  MOVLW  0E
0A346:  MOVWF  FF7
0A348:  CALL   2F62
.................... lcd_gotoxy(10,3); 
0A34C:  MOVLW  0A
0A34E:  MOVLB  2
0A350:  MOVWF  x0E
0A352:  MOVLW  03
0A354:  MOVWF  x0F
0A356:  MOVLB  0
0A358:  CALL   2E90
.................... printf(lcd_putc, "%c_____",199); 
0A35C:  MOVLW  C7
0A35E:  MOVLB  2
0A360:  MOVWF  x0D
0A362:  MOVLB  0
0A364:  CALL   2EFA
0A368:  MOVLW  FE
0A36A:  MOVWF  FF6
0A36C:  MOVLW  0E
0A36E:  MOVWF  FF7
0A370:  MOVLW  05
0A372:  MOVLB  2
0A374:  MOVWF  x0A
0A376:  MOVLB  0
0A378:  CALL   3496
.................... break; 
0A37C:  MOVLB  1
0A37E:  BRA    A4CE
.................... case 8: 
.................... lcd_gotoxy(10,3); 
0A380:  MOVLW  0A
0A382:  MOVLB  2
0A384:  MOVWF  x0E
0A386:  MOVLW  03
0A388:  MOVWF  x0F
0A38A:  MOVLB  0
0A38C:  CALL   2E90
.................... printf(lcd_putc, "*%c____",199); 
0A390:  MOVLW  2A
0A392:  MOVLB  2
0A394:  MOVWF  x0D
0A396:  MOVLB  0
0A398:  CALL   2EFA
0A39C:  MOVLW  C7
0A39E:  MOVLB  2
0A3A0:  MOVWF  x0D
0A3A2:  MOVLB  0
0A3A4:  CALL   2EFA
0A3A8:  MOVLW  07
0A3AA:  MOVWF  FF6
0A3AC:  MOVLW  0F
0A3AE:  MOVWF  FF7
0A3B0:  MOVLW  04
0A3B2:  MOVLB  2
0A3B4:  MOVWF  x0A
0A3B6:  MOVLB  0
0A3B8:  CALL   3496
.................... break; 
0A3BC:  MOVLB  1
0A3BE:  BRA    A4CE
.................... case 9: 
.................... lcd_gotoxy(10,3); 
0A3C0:  MOVLW  0A
0A3C2:  MOVLB  2
0A3C4:  MOVWF  x0E
0A3C6:  MOVLW  03
0A3C8:  MOVWF  x0F
0A3CA:  MOVLB  0
0A3CC:  CALL   2E90
.................... printf(lcd_putc, "**%c___",199); 
0A3D0:  MOVLW  2A
0A3D2:  MOVLB  2
0A3D4:  MOVWF  x0D
0A3D6:  MOVLB  0
0A3D8:  CALL   2EFA
0A3DC:  MOVLW  2A
0A3DE:  MOVLB  2
0A3E0:  MOVWF  x0D
0A3E2:  MOVLB  0
0A3E4:  CALL   2EFA
0A3E8:  MOVLW  C7
0A3EA:  MOVLB  2
0A3EC:  MOVWF  x0D
0A3EE:  MOVLB  0
0A3F0:  CALL   2EFA
0A3F4:  MOVLW  10
0A3F6:  MOVWF  FF6
0A3F8:  MOVLW  0F
0A3FA:  MOVWF  FF7
0A3FC:  MOVLW  03
0A3FE:  MOVLB  2
0A400:  MOVWF  x0A
0A402:  MOVLB  0
0A404:  CALL   3496
.................... break; 
0A408:  MOVLB  1
0A40A:  BRA    A4CE
.................... case 10: 
.................... lcd_gotoxy(10,3); 
0A40C:  MOVLW  0A
0A40E:  MOVLB  2
0A410:  MOVWF  x0E
0A412:  MOVLW  03
0A414:  MOVWF  x0F
0A416:  MOVLB  0
0A418:  CALL   2E90
.................... printf(lcd_putc, "***%c__",199); 
0A41C:  MOVLW  14
0A41E:  MOVWF  FF6
0A420:  MOVLW  0F
0A422:  MOVWF  FF7
0A424:  MOVLW  03
0A426:  MOVLB  2
0A428:  MOVWF  x0A
0A42A:  MOVLB  0
0A42C:  CALL   3496
0A430:  MOVLW  C7
0A432:  MOVLB  2
0A434:  MOVWF  x0D
0A436:  MOVLB  0
0A438:  CALL   2EFA
0A43C:  MOVLW  5F
0A43E:  MOVLB  2
0A440:  MOVWF  x0D
0A442:  MOVLB  0
0A444:  CALL   2EFA
0A448:  MOVLW  5F
0A44A:  MOVLB  2
0A44C:  MOVWF  x0D
0A44E:  MOVLB  0
0A450:  CALL   2EFA
.................... break; 
0A454:  MOVLB  1
0A456:  BRA    A4CE
.................... case 11: 
.................... lcd_gotoxy(10,3); 
0A458:  MOVLW  0A
0A45A:  MOVLB  2
0A45C:  MOVWF  x0E
0A45E:  MOVLW  03
0A460:  MOVWF  x0F
0A462:  MOVLB  0
0A464:  CALL   2E90
.................... printf(lcd_putc, "****%c_",199); 
0A468:  MOVLW  1C
0A46A:  MOVWF  FF6
0A46C:  MOVLW  0F
0A46E:  MOVWF  FF7
0A470:  MOVLW  04
0A472:  MOVLB  2
0A474:  MOVWF  x0A
0A476:  MOVLB  0
0A478:  CALL   3496
0A47C:  MOVLW  C7
0A47E:  MOVLB  2
0A480:  MOVWF  x0D
0A482:  MOVLB  0
0A484:  CALL   2EFA
0A488:  MOVLW  5F
0A48A:  MOVLB  2
0A48C:  MOVWF  x0D
0A48E:  MOVLB  0
0A490:  CALL   2EFA
.................... break; 
0A494:  MOVLB  1
0A496:  BRA    A4CE
.................... case 12: 
.................... lcd_gotoxy(10,3); 
0A498:  MOVLW  0A
0A49A:  MOVLB  2
0A49C:  MOVWF  x0E
0A49E:  MOVLW  03
0A4A0:  MOVWF  x0F
0A4A2:  MOVLB  0
0A4A4:  CALL   2E90
.................... printf(lcd_putc, "*****%c",199); 
0A4A8:  MOVLW  24
0A4AA:  MOVWF  FF6
0A4AC:  MOVLW  0F
0A4AE:  MOVWF  FF7
0A4B0:  MOVLW  05
0A4B2:  MOVLB  2
0A4B4:  MOVWF  x0A
0A4B6:  MOVLB  0
0A4B8:  CALL   3496
0A4BC:  MOVLW  C7
0A4BE:  MOVLB  2
0A4C0:  MOVWF  x0D
0A4C2:  MOVLB  0
0A4C4:  CALL   2EFA
.................... break; 
0A4C8:  MOVLB  1
0A4CA:  BRA    A4CE
0A4CC:  MOVLB  1
.................... } // Sw subm 
....................  
.................... restart_wdt(); 
0A4CE:  CLRWDT
0A4D0:  BRA    9F1E
....................  
....................  
.................... } // while -- todo lleno cuando salgo de aqui 
....................  
.................... if (submenu == 13){ 
0A4D2:  MOVF   xEF,W
0A4D4:  SUBLW  0D
0A4D6:  BTFSS  FD8.2
0A4D8:  BRA    A640
.................... if ((PassCheck1[0] == PassCheck2[0]) && (PassCheck1[1] == PassCheck2[1]))  { // contrasea comprobada ok 
0A4DA:  MOVF   xED,W
0A4DC:  SUBWF  xEB,W
0A4DE:  BNZ   A5D0
0A4E0:  MOVF   xEE,W
0A4E2:  SUBWF  xEC,W
0A4E4:  BNZ   A5D0
.................... LIMPIARLCD; 
0A4E6:  MOVLW  2C
0A4E8:  MOVWF  FF6
0A4EA:  MOVLW  0F
0A4EC:  MOVWF  FF7
0A4EE:  MOVLB  0
0A4F0:  CALL   2F62
.................... lcd_gotoxy(1,2); 
0A4F4:  MOVLW  01
0A4F6:  MOVLB  2
0A4F8:  MOVWF  x0E
0A4FA:  MOVLW  02
0A4FC:  MOVWF  x0F
0A4FE:  MOVLB  0
0A500:  CALL   2E90
.................... printf(lcd_putc, "  Clave modificada  "); 
0A504:  MOVLW  2E
0A506:  MOVWF  FF6
0A508:  MOVLW  0F
0A50A:  MOVWF  FF7
0A50C:  CALL   2F62
.................... lcd_gotoxy(1,3); 
0A510:  MOVLW  01
0A512:  MOVLB  2
0A514:  MOVWF  x0E
0A516:  MOVLW  03
0A518:  MOVWF  x0F
0A51A:  MOVLB  0
0A51C:  CALL   2E90
.................... printf(lcd_putc, "  correctamente :)  "); 
0A520:  MOVLW  44
0A522:  MOVWF  FF6
0A524:  MOVLW  0F
0A526:  MOVWF  FF7
0A528:  CALL   2F62
....................  
.................... Passwd[0] = PassCheck1[0];  // Contrasea a RAM 
0A52C:  MOVFF  1EB,1D5
.................... Passwd[1] = PassCheck1[1];  // Contrasea a RAM 
0A530:  MOVFF  1EC,1D6
....................  
.................... write_eeprom(Password,Passwd[0]);  // Contrasea1 de RAM a ROM 
0A534:  MOVF   FF2,W
0A536:  MOVWF  00
0A538:  BCF    FF2.7
0A53A:  CLRF   FAA
0A53C:  MOVLW  06
0A53E:  MOVWF  FA9
0A540:  MOVFF  1D5,FA8
0A544:  BCF    FA6.6
0A546:  BCF    FA6.7
0A548:  BSF    FA6.2
0A54A:  MOVLB  F
0A54C:  MOVLW  55
0A54E:  MOVWF  FA7
0A550:  MOVLW  AA
0A552:  MOVWF  FA7
0A554:  BSF    FA6.1
0A556:  BTFSC  FA6.1
0A558:  BRA    A556
0A55A:  BCF    FA6.2
0A55C:  MOVF   00,W
0A55E:  IORWF  FF2,F
0A560:  CLRF   19
0A562:  BTFSC  FF2.7
0A564:  BSF    19.7
0A566:  BCF    FF2.7
.................... delay_ms(10); 
0A568:  MOVLW  0A
0A56A:  MOVLB  2
0A56C:  MOVWF  x20
0A56E:  MOVLB  0
0A570:  CALL   1386
0A574:  BTFSC  19.7
0A576:  BSF    FF2.7
.................... restart_wdt(); 
0A578:  CLRWDT
.................... write_eeprom(Password + 1,Passwd[1]);  // Contrasea2 de RAM a ROM 
0A57A:  MOVF   FF2,W
0A57C:  MOVWF  00
0A57E:  BCF    FF2.7
0A580:  CLRF   FAA
0A582:  MOVLW  07
0A584:  MOVWF  FA9
0A586:  MOVFF  1D6,FA8
0A58A:  BCF    FA6.6
0A58C:  BCF    FA6.7
0A58E:  BSF    FA6.2
0A590:  MOVLB  F
0A592:  MOVLW  55
0A594:  MOVWF  FA7
0A596:  MOVLW  AA
0A598:  MOVWF  FA7
0A59A:  BSF    FA6.1
0A59C:  BTFSC  FA6.1
0A59E:  BRA    A59C
0A5A0:  BCF    FA6.2
0A5A2:  MOVF   00,W
0A5A4:  IORWF  FF2,F
.................... delay_ms(1000); 
0A5A6:  MOVLW  04
0A5A8:  MOVLB  1
0A5AA:  MOVWF  xF0
0A5AC:  CLRF   19
0A5AE:  BTFSC  FF2.7
0A5B0:  BSF    19.7
0A5B2:  BCF    FF2.7
0A5B4:  MOVLW  FA
0A5B6:  MOVLB  2
0A5B8:  MOVWF  x20
0A5BA:  MOVLB  0
0A5BC:  CALL   1386
0A5C0:  BTFSC  19.7
0A5C2:  BSF    FF2.7
0A5C4:  MOVLB  1
0A5C6:  DECFSZ xF0,F
0A5C8:  BRA    A5AC
.................... Menu = 1; 
0A5CA:  MOVLW  01
0A5CC:  MOVWF  28
.................... } else { // contrasea no comprobada ok 
0A5CE:  BRA    A640
.................... LIMPIARLCD; 
0A5D0:  MOVLW  5A
0A5D2:  MOVWF  FF6
0A5D4:  MOVLW  0F
0A5D6:  MOVWF  FF7
0A5D8:  MOVLB  0
0A5DA:  CALL   2F62
.................... lcd_gotoxy(1,2); 
0A5DE:  MOVLW  01
0A5E0:  MOVLB  2
0A5E2:  MOVWF  x0E
0A5E4:  MOVLW  02
0A5E6:  MOVWF  x0F
0A5E8:  MOVLB  0
0A5EA:  CALL   2E90
.................... printf(lcd_putc, "  Error: Las claves "); 
0A5EE:  MOVLW  5C
0A5F0:  MOVWF  FF6
0A5F2:  MOVLW  0F
0A5F4:  MOVWF  FF7
0A5F6:  CALL   2F62
.................... lcd_gotoxy(1,3); 
0A5FA:  MOVLW  01
0A5FC:  MOVLB  2
0A5FE:  MOVWF  x0E
0A600:  MOVLW  03
0A602:  MOVWF  x0F
0A604:  MOVLB  0
0A606:  CALL   2E90
.................... printf(lcd_putc, "   no coinciden :(  "); 
0A60A:  MOVLW  72
0A60C:  MOVWF  FF6
0A60E:  MOVLW  0F
0A610:  MOVWF  FF7
0A612:  CALL   2F62
.................... restart_wdt(); 
0A616:  CLRWDT
.................... delay_ms(1000); 
0A618:  MOVLW  04
0A61A:  MOVLB  1
0A61C:  MOVWF  xF0
0A61E:  CLRF   19
0A620:  BTFSC  FF2.7
0A622:  BSF    19.7
0A624:  BCF    FF2.7
0A626:  MOVLW  FA
0A628:  MOVLB  2
0A62A:  MOVWF  x20
0A62C:  MOVLB  0
0A62E:  CALL   1386
0A632:  BTFSC  19.7
0A634:  BSF    FF2.7
0A636:  MOVLB  1
0A638:  DECFSZ xF0,F
0A63A:  BRA    A61E
.................... Menu = 1; 
0A63C:  MOVLW  01
0A63E:  MOVWF  28
0A640:  MOVLB  0
.................... } 
.................... } // if 13 
.................... } // si autenticamos 
0A642:  GOTO   BA38 (RETURN)
.................... } // fn 
....................  
.................... void Ccasandra(){  // Configuracion de casandra 
....................  
.................... LIMPIARLCD; 
*
07A6E:  MOVLW  88
07A70:  MOVWF  FF6
07A72:  MOVLW  0F
07A74:  MOVWF  FF7
07A76:  CALL   2F62
.................... restart_wdt(); 
07A7A:  CLRWDT
....................  
.................... char sServ[3]; 
.................... char sAuto1[3]; 
.................... char sAuto2[3]; 
.................... char sWeb[3]; 
.................... char sTel[3]; 
....................  
.................... if (bit_test(ConfCas,0)) sServ = "SI"; 
07A7C:  BTFSS  46.0
07A7E:  BRA    7A9C
07A80:  MOVLW  01
07A82:  MOVWF  FEA
07A84:  MOVLW  EB
07A86:  MOVWF  FE9
07A88:  MOVLW  00
07A8A:  CALL   018E
07A8E:  TBLRD*-
07A90:  TBLRD*+
07A92:  MOVF   FF5,W
07A94:  MOVWF  FEE
07A96:  IORLW  00
07A98:  BNZ   7A90
07A9A:  BRA    7AB6
.................... else sServ = "NO"; 
07A9C:  MOVLW  01
07A9E:  MOVWF  FEA
07AA0:  MOVLW  EB
07AA2:  MOVWF  FE9
07AA4:  MOVLW  00
07AA6:  CALL   01A2
07AAA:  TBLRD*-
07AAC:  TBLRD*+
07AAE:  MOVF   FF5,W
07AB0:  MOVWF  FEE
07AB2:  IORLW  00
07AB4:  BNZ   7AAC
.................... if (bit_test(ConfCas,1)) sAuto1 = "SI"; 
07AB6:  BTFSS  46.1
07AB8:  BRA    7AD6
07ABA:  MOVLW  01
07ABC:  MOVWF  FEA
07ABE:  MOVLW  EE
07AC0:  MOVWF  FE9
07AC2:  MOVLW  00
07AC4:  CALL   018E
07AC8:  TBLRD*-
07ACA:  TBLRD*+
07ACC:  MOVF   FF5,W
07ACE:  MOVWF  FEE
07AD0:  IORLW  00
07AD2:  BNZ   7ACA
07AD4:  BRA    7AF0
.................... else sAuto1 = "NO"; 
07AD6:  MOVLW  01
07AD8:  MOVWF  FEA
07ADA:  MOVLW  EE
07ADC:  MOVWF  FE9
07ADE:  MOVLW  00
07AE0:  CALL   01A2
07AE4:  TBLRD*-
07AE6:  TBLRD*+
07AE8:  MOVF   FF5,W
07AEA:  MOVWF  FEE
07AEC:  IORLW  00
07AEE:  BNZ   7AE6
.................... if (bit_test(ConfCas,2)) sAuto2 = "SI"; 
07AF0:  BTFSS  46.2
07AF2:  BRA    7B10
07AF4:  MOVLW  01
07AF6:  MOVWF  FEA
07AF8:  MOVLW  F1
07AFA:  MOVWF  FE9
07AFC:  MOVLW  00
07AFE:  CALL   018E
07B02:  TBLRD*-
07B04:  TBLRD*+
07B06:  MOVF   FF5,W
07B08:  MOVWF  FEE
07B0A:  IORLW  00
07B0C:  BNZ   7B04
07B0E:  BRA    7B2A
.................... else sAuto2 = "NO"; 
07B10:  MOVLW  01
07B12:  MOVWF  FEA
07B14:  MOVLW  F1
07B16:  MOVWF  FE9
07B18:  MOVLW  00
07B1A:  CALL   01A2
07B1E:  TBLRD*-
07B20:  TBLRD*+
07B22:  MOVF   FF5,W
07B24:  MOVWF  FEE
07B26:  IORLW  00
07B28:  BNZ   7B20
.................... if (bit_test(ConfCas,3)) sWeb = "SI"; 
07B2A:  BTFSS  46.3
07B2C:  BRA    7B4A
07B2E:  MOVLW  01
07B30:  MOVWF  FEA
07B32:  MOVLW  F4
07B34:  MOVWF  FE9
07B36:  MOVLW  00
07B38:  CALL   018E
07B3C:  TBLRD*-
07B3E:  TBLRD*+
07B40:  MOVF   FF5,W
07B42:  MOVWF  FEE
07B44:  IORLW  00
07B46:  BNZ   7B3E
07B48:  BRA    7B64
.................... else sWeb = "NO"; 
07B4A:  MOVLW  01
07B4C:  MOVWF  FEA
07B4E:  MOVLW  F4
07B50:  MOVWF  FE9
07B52:  MOVLW  00
07B54:  CALL   01A2
07B58:  TBLRD*-
07B5A:  TBLRD*+
07B5C:  MOVF   FF5,W
07B5E:  MOVWF  FEE
07B60:  IORLW  00
07B62:  BNZ   7B5A
.................... if (bit_test(ConfCas,4)) sTel = "SI"; 
07B64:  BTFSS  46.4
07B66:  BRA    7B84
07B68:  MOVLW  01
07B6A:  MOVWF  FEA
07B6C:  MOVLW  F7
07B6E:  MOVWF  FE9
07B70:  MOVLW  00
07B72:  CALL   018E
07B76:  TBLRD*-
07B78:  TBLRD*+
07B7A:  MOVF   FF5,W
07B7C:  MOVWF  FEE
07B7E:  IORLW  00
07B80:  BNZ   7B78
07B82:  BRA    7B9E
.................... else sTel = "NO"; 
07B84:  MOVLW  01
07B86:  MOVWF  FEA
07B88:  MOVLW  F7
07B8A:  MOVWF  FE9
07B8C:  MOVLW  00
07B8E:  CALL   01A2
07B92:  TBLRD*-
07B94:  TBLRD*+
07B96:  MOVF   FF5,W
07B98:  MOVWF  FEE
07B9A:  IORLW  00
07B9C:  BNZ   7B94
....................  
.................... int submenu =1; 
07B9E:  MOVLW  01
07BA0:  MOVLB  1
07BA2:  MOVWF  xFA
....................  
.................... while (submenu < 6){ 
07BA4:  MOVF   xFA,W
07BA6:  SUBLW  05
07BA8:  BTFSS  FD8.0
07BAA:  GOTO   83D6
....................  
.................... if (input(ARRIBA)==1 && input(ABAJO)==1 && input(OOKK)==1 && input(CANCEL)==1) Rebote = false; // Soltamos las teclas 
07BAE:  BSF    F93.0
07BB0:  BTFSS  F81.0
07BB2:  BRA    7BC8
07BB4:  BSF    F93.1
07BB6:  BTFSS  F81.1
07BB8:  BRA    7BC8
07BBA:  BSF    F93.2
07BBC:  BTFSS  F81.2
07BBE:  BRA    7BC8
07BC0:  BSF    F93.3
07BC2:  BTFSS  F81.3
07BC4:  BRA    7BC8
07BC6:  BCF    35.0
....................  
.................... if (Rebote == False) { 
07BC8:  BTFSC  35.0
07BCA:  BRA    7BD6
.................... if (input(OOKK) == 0){ 
07BCC:  BSF    F93.2
07BCE:  BTFSC  F81.2
07BD0:  BRA    7BD6
.................... Rebote = true; 
07BD2:  BSF    35.0
.................... ++submenu; 
07BD4:  INCF   xFA,F
.................... } 
.................... } 
....................  
.................... if (Rebote == False) { 
07BD6:  BTFSC  35.0
07BD8:  BRA    7BF0
.................... if (input(CANCEL) == 0){ 
07BDA:  BSF    F93.3
07BDC:  BTFSC  F81.3
07BDE:  BRA    7BF0
.................... Rebote = true; 
07BE0:  BSF    35.0
.................... --submenu; 
07BE2:  DECF   xFA,F
.................... if (submenu == 0){ 
07BE4:  MOVF   xFA,F
07BE6:  BNZ   7BF0
.................... submenu = 7; 
07BE8:  MOVLW  07
07BEA:  MOVWF  xFA
.................... Menu = 4; 
07BEC:  MOVLW  04
07BEE:  MOVWF  28
.................... } 
.................... } 
.................... } 
....................  
.................... if (Rebote == False) { 
07BF0:  BTFSC  35.0
07BF2:  BRA    7D7C
.................... if ((input(ABAJO) == 0) || (input(ARRIBA)) == 0) { // si arriba o abajo togleo 
07BF4:  BSF    F93.1
07BF6:  BTFSS  F81.1
07BF8:  BRA    7C00
07BFA:  BSF    F93.0
07BFC:  BTFSC  F81.0
07BFE:  BRA    7D7C
.................... Rebote = true; 
07C00:  BSF    35.0
....................    if (submenu == 1) { // dentro de SERV 
07C02:  DECFSZ xFA,W
07C04:  BRA    7C4C
....................          if (bit_test(ConfCas,0)){ 
07C06:  BTFSS  46.0
07C08:  BRA    7C2C
....................          bit_clear(ConfCas,0); 
07C0A:  BCF    46.0
....................          sServ = "NO"; 
07C0C:  MOVLW  01
07C0E:  MOVWF  FEA
07C10:  MOVLW  EB
07C12:  MOVWF  FE9
07C14:  MOVLW  00
07C16:  MOVLB  0
07C18:  CALL   01A2
07C1C:  TBLRD*-
07C1E:  TBLRD*+
07C20:  MOVF   FF5,W
07C22:  MOVWF  FEE
07C24:  IORLW  00
07C26:  BNZ   7C1E
....................          } 
07C28:  BRA    7C4A
07C2A:  MOVLB  1
....................          else { 
....................          bit_set(ConfCas,0); 
07C2C:  BSF    46.0
....................          sServ = "SI"; 
07C2E:  MOVLW  01
07C30:  MOVWF  FEA
07C32:  MOVLW  EB
07C34:  MOVWF  FE9
07C36:  MOVLW  00
07C38:  MOVLB  0
07C3A:  CALL   018E
07C3E:  TBLRD*-
07C40:  TBLRD*+
07C42:  MOVF   FF5,W
07C44:  MOVWF  FEE
07C46:  IORLW  00
07C48:  BNZ   7C40
07C4A:  MOVLB  1
....................          } 
....................    } // arriba dentro de mes 
....................  
....................    if (submenu == 2) { // dentro de AUTO1 
07C4C:  MOVF   xFA,W
07C4E:  SUBLW  02
07C50:  BNZ   7C98
....................          if (bit_test(ConfCas,1)){ 
07C52:  BTFSS  46.1
07C54:  BRA    7C78
....................          bit_clear(ConfCas,1); 
07C56:  BCF    46.1
....................          sAuto1 = "NO"; 
07C58:  MOVLW  01
07C5A:  MOVWF  FEA
07C5C:  MOVLW  EE
07C5E:  MOVWF  FE9
07C60:  MOVLW  00
07C62:  MOVLB  0
07C64:  CALL   01A2
07C68:  TBLRD*-
07C6A:  TBLRD*+
07C6C:  MOVF   FF5,W
07C6E:  MOVWF  FEE
07C70:  IORLW  00
07C72:  BNZ   7C6A
....................          } 
07C74:  BRA    7C96
07C76:  MOVLB  1
....................          else { 
....................          bit_set(ConfCas,1); 
07C78:  BSF    46.1
....................          sAuto1 = "SI"; 
07C7A:  MOVLW  01
07C7C:  MOVWF  FEA
07C7E:  MOVLW  EE
07C80:  MOVWF  FE9
07C82:  MOVLW  00
07C84:  MOVLB  0
07C86:  CALL   018E
07C8A:  TBLRD*-
07C8C:  TBLRD*+
07C8E:  MOVF   FF5,W
07C90:  MOVWF  FEE
07C92:  IORLW  00
07C94:  BNZ   7C8C
07C96:  MOVLB  1
....................          } 
....................    } // arriba dentro de mes 
....................  
....................    if (submenu == 3) { // dentro de AUTO2 
07C98:  MOVF   xFA,W
07C9A:  SUBLW  03
07C9C:  BNZ   7CE4
....................          if (bit_test(ConfCas,2)){ 
07C9E:  BTFSS  46.2
07CA0:  BRA    7CC4
....................          bit_clear(ConfCas,2); 
07CA2:  BCF    46.2
....................          sAuto2 = "NO"; 
07CA4:  MOVLW  01
07CA6:  MOVWF  FEA
07CA8:  MOVLW  F1
07CAA:  MOVWF  FE9
07CAC:  MOVLW  00
07CAE:  MOVLB  0
07CB0:  CALL   01A2
07CB4:  TBLRD*-
07CB6:  TBLRD*+
07CB8:  MOVF   FF5,W
07CBA:  MOVWF  FEE
07CBC:  IORLW  00
07CBE:  BNZ   7CB6
....................          } 
07CC0:  BRA    7CE2
07CC2:  MOVLB  1
....................          else { 
....................          bit_set(ConfCas,2); 
07CC4:  BSF    46.2
....................          sAuto2 = "SI"; 
07CC6:  MOVLW  01
07CC8:  MOVWF  FEA
07CCA:  MOVLW  F1
07CCC:  MOVWF  FE9
07CCE:  MOVLW  00
07CD0:  MOVLB  0
07CD2:  CALL   018E
07CD6:  TBLRD*-
07CD8:  TBLRD*+
07CDA:  MOVF   FF5,W
07CDC:  MOVWF  FEE
07CDE:  IORLW  00
07CE0:  BNZ   7CD8
07CE2:  MOVLB  1
....................          } 
....................    } // arriba dentro de mes 
....................  
....................    if (submenu == 4) { // Dentro de Web 
07CE4:  MOVF   xFA,W
07CE6:  SUBLW  04
07CE8:  BNZ   7D30
....................          if (bit_test(ConfCas,3)){ 
07CEA:  BTFSS  46.3
07CEC:  BRA    7D10
....................          bit_clear(ConfCas,3); 
07CEE:  BCF    46.3
....................          sWeb = "NO"; 
07CF0:  MOVLW  01
07CF2:  MOVWF  FEA
07CF4:  MOVLW  F4
07CF6:  MOVWF  FE9
07CF8:  MOVLW  00
07CFA:  MOVLB  0
07CFC:  CALL   01A2
07D00:  TBLRD*-
07D02:  TBLRD*+
07D04:  MOVF   FF5,W
07D06:  MOVWF  FEE
07D08:  IORLW  00
07D0A:  BNZ   7D02
....................          } 
07D0C:  BRA    7D2E
07D0E:  MOVLB  1
....................          else { 
....................          bit_set(ConfCas,3); 
07D10:  BSF    46.3
....................          sWeb = "SI"; 
07D12:  MOVLW  01
07D14:  MOVWF  FEA
07D16:  MOVLW  F4
07D18:  MOVWF  FE9
07D1A:  MOVLW  00
07D1C:  MOVLB  0
07D1E:  CALL   018E
07D22:  TBLRD*-
07D24:  TBLRD*+
07D26:  MOVF   FF5,W
07D28:  MOVWF  FEE
07D2A:  IORLW  00
07D2C:  BNZ   7D24
07D2E:  MOVLB  1
....................          } 
....................    } // arriba dentro de mes 
....................  
....................    if (submenu == 5) { // Dentro de Web 
07D30:  MOVF   xFA,W
07D32:  SUBLW  05
07D34:  BNZ   7D7C
....................          if (bit_test(ConfCas,4)){ 
07D36:  BTFSS  46.4
07D38:  BRA    7D5C
....................          bit_clear(ConfCas,4); 
07D3A:  BCF    46.4
....................          sTel = "NO"; 
07D3C:  MOVLW  01
07D3E:  MOVWF  FEA
07D40:  MOVLW  F7
07D42:  MOVWF  FE9
07D44:  MOVLW  00
07D46:  MOVLB  0
07D48:  CALL   01A2
07D4C:  TBLRD*-
07D4E:  TBLRD*+
07D50:  MOVF   FF5,W
07D52:  MOVWF  FEE
07D54:  IORLW  00
07D56:  BNZ   7D4E
....................          } 
07D58:  BRA    7D7A
07D5A:  MOVLB  1
....................          else { 
....................          bit_set(ConfCas,4); 
07D5C:  BSF    46.4
....................          sTel = "SI"; 
07D5E:  MOVLW  01
07D60:  MOVWF  FEA
07D62:  MOVLW  F7
07D64:  MOVWF  FE9
07D66:  MOVLW  00
07D68:  MOVLB  0
07D6A:  CALL   018E
07D6E:  TBLRD*-
07D70:  TBLRD*+
07D72:  MOVF   FF5,W
07D74:  MOVWF  FEE
07D76:  IORLW  00
07D78:  BNZ   7D70
07D7A:  MOVLB  1
....................          } 
....................    } // arriba dentro de mes 
....................  
.................... } // si arriba o abajo 
.................... } // rebote falso 
....................  
....................  
.................... lcd_gotoxy(1,1); 
07D7C:  MOVLW  01
07D7E:  MOVLB  2
07D80:  MOVWF  x0E
07D82:  MOVWF  x0F
07D84:  MOVLB  0
07D86:  CALL   2E90
.................... printf(lcd_putc, "== Conf. Casandra =="); 
07D8A:  MOVLW  8A
07D8C:  MOVWF  FF6
07D8E:  MOVLW  0F
07D90:  MOVWF  FF7
07D92:  CALL   2F62
.................... if ((submenu == 1) || (submenu == 2) || (submenu == 3)) { 
07D96:  MOVLB  1
07D98:  DECFSZ xFA,W
07D9A:  BRA    7D9E
07D9C:  BRA    7DAC
07D9E:  MOVF   xFA,W
07DA0:  SUBLW  02
07DA2:  BZ    7DAC
07DA4:  MOVF   xFA,W
07DA6:  SUBLW  03
07DA8:  BTFSS  FD8.2
07DAA:  BRA    7FB2
.................... lcd_gotoxy(1,2); 
07DAC:  MOVLW  01
07DAE:  MOVLB  2
07DB0:  MOVWF  x0E
07DB2:  MOVLW  02
07DB4:  MOVWF  x0F
07DB6:  MOVLB  0
07DB8:  CALL   2E90
.................... printf(lcd_putc, "  Luz Pasillos: "); 
07DBC:  MOVLW  A0
07DBE:  MOVWF  FF6
07DC0:  MOVLW  0F
07DC2:  MOVWF  FF7
07DC4:  CALL   2F62
.................... lcd_gotoxy(1,3); 
07DC8:  MOVLW  01
07DCA:  MOVLB  2
07DCC:  MOVWF  x0E
07DCE:  MOVLW  03
07DD0:  MOVWF  x0F
07DD2:  MOVLB  0
07DD4:  CALL   2E90
.................... printf(lcd_putc, "  Grupo Auto 1: "); 
07DD8:  MOVLW  B2
07DDA:  MOVWF  FF6
07DDC:  MOVLW  0F
07DDE:  MOVWF  FF7
07DE0:  CALL   2F62
.................... lcd_gotoxy(1,4); 
07DE4:  MOVLW  01
07DE6:  MOVLB  2
07DE8:  MOVWF  x0E
07DEA:  MOVLW  04
07DEC:  MOVWF  x0F
07DEE:  MOVLB  0
07DF0:  CALL   2E90
.................... printf(lcd_putc, "  Grupo Auto 2: "); 
07DF4:  MOVLW  C4
07DF6:  MOVWF  FF6
07DF8:  MOVLW  0F
07DFA:  MOVWF  FF7
07DFC:  CALL   2F62
....................  
.................... lcd_gotoxy(16,2); 
07E00:  MOVLW  10
07E02:  MOVLB  2
07E04:  MOVWF  x0E
07E06:  MOVLW  02
07E08:  MOVWF  x0F
07E0A:  MOVLB  0
07E0C:  CALL   2E90
.................... if (submenu == 1) { 
07E10:  MOVLB  1
07E12:  DECFSZ xFA,W
07E14:  BRA    7E5E
....................    if (bit_test(tiempo1,0)){ 
07E16:  BTFSS  48.0
07E18:  BRA    7E4E
....................       printf(lcd_putc, " %s  ", sServ); 
07E1A:  MOVLW  20
07E1C:  MOVLB  2
07E1E:  MOVWF  x0D
07E20:  MOVLB  0
07E22:  CALL   2EFA
07E26:  MOVLW  01
07E28:  MOVWF  FEA
07E2A:  MOVLW  EB
07E2C:  MOVWF  FE9
07E2E:  CALL   34BE
07E32:  MOVLW  20
07E34:  MOVLB  2
07E36:  MOVWF  x0D
07E38:  MOVLB  0
07E3A:  CALL   2EFA
07E3E:  MOVLW  20
07E40:  MOVLB  2
07E42:  MOVWF  x0D
07E44:  MOVLB  0
07E46:  CALL   2EFA
....................    } else printf(lcd_putc, "   "); 
07E4A:  BRA    7E5C
07E4C:  MOVLB  1
07E4E:  MOVLW  D6
07E50:  MOVWF  FF6
07E52:  MOVLW  0F
07E54:  MOVWF  FF7
07E56:  MOVLB  0
07E58:  CALL   2F62
.................... } else printf(lcd_putc, " %s  ", sServ); 
07E5C:  BRA    7E8E
07E5E:  MOVLW  20
07E60:  MOVLB  2
07E62:  MOVWF  x0D
07E64:  MOVLB  0
07E66:  CALL   2EFA
07E6A:  MOVLW  01
07E6C:  MOVWF  FEA
07E6E:  MOVLW  EB
07E70:  MOVWF  FE9
07E72:  CALL   34BE
07E76:  MOVLW  20
07E78:  MOVLB  2
07E7A:  MOVWF  x0D
07E7C:  MOVLB  0
07E7E:  CALL   2EFA
07E82:  MOVLW  20
07E84:  MOVLB  2
07E86:  MOVWF  x0D
07E88:  MOVLB  0
07E8A:  CALL   2EFA
....................  
.................... lcd_gotoxy(16,3); 
07E8E:  MOVLW  10
07E90:  MOVLB  2
07E92:  MOVWF  x0E
07E94:  MOVLW  03
07E96:  MOVWF  x0F
07E98:  MOVLB  0
07E9A:  CALL   2E90
.................... if (submenu == 2) { 
07E9E:  MOVLB  1
07EA0:  MOVF   xFA,W
07EA2:  SUBLW  02
07EA4:  BNZ   7EEE
....................    if (bit_test(tiempo1,0)){ 
07EA6:  BTFSS  48.0
07EA8:  BRA    7EDE
....................       printf(lcd_putc, " %s  ", sAuto1); 
07EAA:  MOVLW  20
07EAC:  MOVLB  2
07EAE:  MOVWF  x0D
07EB0:  MOVLB  0
07EB2:  CALL   2EFA
07EB6:  MOVLW  01
07EB8:  MOVWF  FEA
07EBA:  MOVLW  EE
07EBC:  MOVWF  FE9
07EBE:  CALL   34BE
07EC2:  MOVLW  20
07EC4:  MOVLB  2
07EC6:  MOVWF  x0D
07EC8:  MOVLB  0
07ECA:  CALL   2EFA
07ECE:  MOVLW  20
07ED0:  MOVLB  2
07ED2:  MOVWF  x0D
07ED4:  MOVLB  0
07ED6:  CALL   2EFA
....................    } else printf(lcd_putc, "   "); 
07EDA:  BRA    7EEC
07EDC:  MOVLB  1
07EDE:  MOVLW  DA
07EE0:  MOVWF  FF6
07EE2:  MOVLW  0F
07EE4:  MOVWF  FF7
07EE6:  MOVLB  0
07EE8:  CALL   2F62
.................... } else printf(lcd_putc, " %s  ", sAuto1); 
07EEC:  BRA    7F1E
07EEE:  MOVLW  20
07EF0:  MOVLB  2
07EF2:  MOVWF  x0D
07EF4:  MOVLB  0
07EF6:  CALL   2EFA
07EFA:  MOVLW  01
07EFC:  MOVWF  FEA
07EFE:  MOVLW  EE
07F00:  MOVWF  FE9
07F02:  CALL   34BE
07F06:  MOVLW  20
07F08:  MOVLB  2
07F0A:  MOVWF  x0D
07F0C:  MOVLB  0
07F0E:  CALL   2EFA
07F12:  MOVLW  20
07F14:  MOVLB  2
07F16:  MOVWF  x0D
07F18:  MOVLB  0
07F1A:  CALL   2EFA
....................  
.................... lcd_gotoxy(16,4); 
07F1E:  MOVLW  10
07F20:  MOVLB  2
07F22:  MOVWF  x0E
07F24:  MOVLW  04
07F26:  MOVWF  x0F
07F28:  MOVLB  0
07F2A:  CALL   2E90
.................... if (submenu == 3) { 
07F2E:  MOVLB  1
07F30:  MOVF   xFA,W
07F32:  SUBLW  03
07F34:  BNZ   7F7E
....................    if (bit_test(tiempo1,0)){ 
07F36:  BTFSS  48.0
07F38:  BRA    7F6E
....................       printf(lcd_putc, " %s  ", sAuto2); 
07F3A:  MOVLW  20
07F3C:  MOVLB  2
07F3E:  MOVWF  x0D
07F40:  MOVLB  0
07F42:  CALL   2EFA
07F46:  MOVLW  01
07F48:  MOVWF  FEA
07F4A:  MOVLW  F1
07F4C:  MOVWF  FE9
07F4E:  CALL   34BE
07F52:  MOVLW  20
07F54:  MOVLB  2
07F56:  MOVWF  x0D
07F58:  MOVLB  0
07F5A:  CALL   2EFA
07F5E:  MOVLW  20
07F60:  MOVLB  2
07F62:  MOVWF  x0D
07F64:  MOVLB  0
07F66:  CALL   2EFA
....................    } else printf(lcd_putc, "   "); 
07F6A:  BRA    7F7C
07F6C:  MOVLB  1
07F6E:  MOVLW  DE
07F70:  MOVWF  FF6
07F72:  MOVLW  0F
07F74:  MOVWF  FF7
07F76:  MOVLB  0
07F78:  CALL   2F62
.................... } else printf(lcd_putc, " %s  ", sAuto2); 
07F7C:  BRA    7FAE
07F7E:  MOVLW  20
07F80:  MOVLB  2
07F82:  MOVWF  x0D
07F84:  MOVLB  0
07F86:  CALL   2EFA
07F8A:  MOVLW  01
07F8C:  MOVWF  FEA
07F8E:  MOVLW  F1
07F90:  MOVWF  FE9
07F92:  CALL   34BE
07F96:  MOVLW  20
07F98:  MOVLB  2
07F9A:  MOVWF  x0D
07F9C:  MOVLB  0
07F9E:  CALL   2EFA
07FA2:  MOVLW  20
07FA4:  MOVLB  2
07FA6:  MOVWF  x0D
07FA8:  MOVLB  0
07FAA:  CALL   2EFA
....................  
.................... restart_wdt(); 
07FAE:  CLRWDT
07FB0:  MOVLB  1
.................... } // primeros 3 
....................  
.................... if (submenu == 4) { // mirando el 4to 
07FB2:  MOVF   xFA,W
07FB4:  SUBLW  04
07FB6:  BTFSS  FD8.2
07FB8:  BRA    81C2
.................... lcd_gotoxy(1,2); 
07FBA:  MOVLW  01
07FBC:  MOVLB  2
07FBE:  MOVWF  x0E
07FC0:  MOVLW  02
07FC2:  MOVWF  x0F
07FC4:  MOVLB  0
07FC6:  CALL   2E90
.................... printf(lcd_putc, "  Grupo Auto 1: "); 
07FCA:  MOVLW  E2
07FCC:  MOVWF  FF6
07FCE:  MOVLW  0F
07FD0:  MOVWF  FF7
07FD2:  CALL   2F62
.................... lcd_gotoxy(1,3); 
07FD6:  MOVLW  01
07FD8:  MOVLB  2
07FDA:  MOVWF  x0E
07FDC:  MOVLW  03
07FDE:  MOVWF  x0F
07FE0:  MOVLB  0
07FE2:  CALL   2E90
.................... printf(lcd_putc, "  Grupo Auto 2: "); 
07FE6:  MOVLW  F4
07FE8:  MOVWF  FF6
07FEA:  MOVLW  0F
07FEC:  MOVWF  FF7
07FEE:  CALL   2F62
.................... lcd_gotoxy(1,4); 
07FF2:  MOVLW  01
07FF4:  MOVLB  2
07FF6:  MOVWF  x0E
07FF8:  MOVLW  04
07FFA:  MOVWF  x0F
07FFC:  MOVLB  0
07FFE:  CALL   2E90
.................... printf(lcd_putc, " Ctrl Internet: "); 
08002:  MOVLW  06
08004:  MOVWF  FF6
08006:  MOVLW  10
08008:  MOVWF  FF7
0800A:  CALL   2F62
....................  
.................... lcd_gotoxy(16,2); 
0800E:  MOVLW  10
08010:  MOVLB  2
08012:  MOVWF  x0E
08014:  MOVLW  02
08016:  MOVWF  x0F
08018:  MOVLB  0
0801A:  CALL   2E90
.................... if (submenu == 2) { 
0801E:  MOVLB  1
08020:  MOVF   xFA,W
08022:  SUBLW  02
08024:  BNZ   806E
....................    if (bit_test(tiempo1,0)){ 
08026:  BTFSS  48.0
08028:  BRA    805E
....................       printf(lcd_putc, " %s  ", sAuto1); 
0802A:  MOVLW  20
0802C:  MOVLB  2
0802E:  MOVWF  x0D
08030:  MOVLB  0
08032:  CALL   2EFA
08036:  MOVLW  01
08038:  MOVWF  FEA
0803A:  MOVLW  EE
0803C:  MOVWF  FE9
0803E:  CALL   34BE
08042:  MOVLW  20
08044:  MOVLB  2
08046:  MOVWF  x0D
08048:  MOVLB  0
0804A:  CALL   2EFA
0804E:  MOVLW  20
08050:  MOVLB  2
08052:  MOVWF  x0D
08054:  MOVLB  0
08056:  CALL   2EFA
....................    } else printf(lcd_putc, "   "); 
0805A:  BRA    806C
0805C:  MOVLB  1
0805E:  MOVLW  18
08060:  MOVWF  FF6
08062:  MOVLW  10
08064:  MOVWF  FF7
08066:  MOVLB  0
08068:  CALL   2F62
.................... } else printf(lcd_putc, " %s  ", sAuto1); 
0806C:  BRA    809E
0806E:  MOVLW  20
08070:  MOVLB  2
08072:  MOVWF  x0D
08074:  MOVLB  0
08076:  CALL   2EFA
0807A:  MOVLW  01
0807C:  MOVWF  FEA
0807E:  MOVLW  EE
08080:  MOVWF  FE9
08082:  CALL   34BE
08086:  MOVLW  20
08088:  MOVLB  2
0808A:  MOVWF  x0D
0808C:  MOVLB  0
0808E:  CALL   2EFA
08092:  MOVLW  20
08094:  MOVLB  2
08096:  MOVWF  x0D
08098:  MOVLB  0
0809A:  CALL   2EFA
....................  
.................... lcd_gotoxy(16,3); 
0809E:  MOVLW  10
080A0:  MOVLB  2
080A2:  MOVWF  x0E
080A4:  MOVLW  03
080A6:  MOVWF  x0F
080A8:  MOVLB  0
080AA:  CALL   2E90
.................... if (submenu == 3) { 
080AE:  MOVLB  1
080B0:  MOVF   xFA,W
080B2:  SUBLW  03
080B4:  BNZ   80FE
....................    if (bit_test(tiempo1,0)){ 
080B6:  BTFSS  48.0
080B8:  BRA    80EE
....................       printf(lcd_putc, " %s  ", sAuto2); 
080BA:  MOVLW  20
080BC:  MOVLB  2
080BE:  MOVWF  x0D
080C0:  MOVLB  0
080C2:  CALL   2EFA
080C6:  MOVLW  01
080C8:  MOVWF  FEA
080CA:  MOVLW  F1
080CC:  MOVWF  FE9
080CE:  CALL   34BE
080D2:  MOVLW  20
080D4:  MOVLB  2
080D6:  MOVWF  x0D
080D8:  MOVLB  0
080DA:  CALL   2EFA
080DE:  MOVLW  20
080E0:  MOVLB  2
080E2:  MOVWF  x0D
080E4:  MOVLB  0
080E6:  CALL   2EFA
....................    } else printf(lcd_putc, "   "); 
080EA:  BRA    80FC
080EC:  MOVLB  1
080EE:  MOVLW  1C
080F0:  MOVWF  FF6
080F2:  MOVLW  10
080F4:  MOVWF  FF7
080F6:  MOVLB  0
080F8:  CALL   2F62
.................... } else printf(lcd_putc, " %s  ", sAuto2); 
080FC:  BRA    812E
080FE:  MOVLW  20
08100:  MOVLB  2
08102:  MOVWF  x0D
08104:  MOVLB  0
08106:  CALL   2EFA
0810A:  MOVLW  01
0810C:  MOVWF  FEA
0810E:  MOVLW  F1
08110:  MOVWF  FE9
08112:  CALL   34BE
08116:  MOVLW  20
08118:  MOVLB  2
0811A:  MOVWF  x0D
0811C:  MOVLB  0
0811E:  CALL   2EFA
08122:  MOVLW  20
08124:  MOVLB  2
08126:  MOVWF  x0D
08128:  MOVLB  0
0812A:  CALL   2EFA
....................  
.................... lcd_gotoxy(16,4); 
0812E:  MOVLW  10
08130:  MOVLB  2
08132:  MOVWF  x0E
08134:  MOVLW  04
08136:  MOVWF  x0F
08138:  MOVLB  0
0813A:  CALL   2E90
.................... if (submenu == 4) { 
0813E:  MOVLB  1
08140:  MOVF   xFA,W
08142:  SUBLW  04
08144:  BNZ   818E
....................    if (bit_test(tiempo1,0)){ 
08146:  BTFSS  48.0
08148:  BRA    817E
....................       printf(lcd_putc, " %s  ", sWeb); 
0814A:  MOVLW  20
0814C:  MOVLB  2
0814E:  MOVWF  x0D
08150:  MOVLB  0
08152:  CALL   2EFA
08156:  MOVLW  01
08158:  MOVWF  FEA
0815A:  MOVLW  F4
0815C:  MOVWF  FE9
0815E:  CALL   34BE
08162:  MOVLW  20
08164:  MOVLB  2
08166:  MOVWF  x0D
08168:  MOVLB  0
0816A:  CALL   2EFA
0816E:  MOVLW  20
08170:  MOVLB  2
08172:  MOVWF  x0D
08174:  MOVLB  0
08176:  CALL   2EFA
....................    } else printf(lcd_putc, "   "); 
0817A:  BRA    818C
0817C:  MOVLB  1
0817E:  MOVLW  20
08180:  MOVWF  FF6
08182:  MOVLW  10
08184:  MOVWF  FF7
08186:  MOVLB  0
08188:  CALL   2F62
.................... } else printf(lcd_putc, " %s  ", sWeb); 
0818C:  BRA    81BE
0818E:  MOVLW  20
08190:  MOVLB  2
08192:  MOVWF  x0D
08194:  MOVLB  0
08196:  CALL   2EFA
0819A:  MOVLW  01
0819C:  MOVWF  FEA
0819E:  MOVLW  F4
081A0:  MOVWF  FE9
081A2:  CALL   34BE
081A6:  MOVLW  20
081A8:  MOVLB  2
081AA:  MOVWF  x0D
081AC:  MOVLB  0
081AE:  CALL   2EFA
081B2:  MOVLW  20
081B4:  MOVLB  2
081B6:  MOVWF  x0D
081B8:  MOVLB  0
081BA:  CALL   2EFA
....................  
.................... restart_wdt(); 
081BE:  CLRWDT
081C0:  MOVLB  1
.................... } // mirando el 4 
....................  
.................... if (submenu == 5) {  // llegando al ultimo 
081C2:  MOVF   xFA,W
081C4:  SUBLW  05
081C6:  BTFSS  FD8.2
081C8:  BRA    83D2
.................... lcd_gotoxy(1,2); 
081CA:  MOVLW  01
081CC:  MOVLB  2
081CE:  MOVWF  x0E
081D0:  MOVLW  02
081D2:  MOVWF  x0F
081D4:  MOVLB  0
081D6:  CALL   2E90
.................... printf(lcd_putc, "  Grupo Auto 2: "); 
081DA:  MOVLW  24
081DC:  MOVWF  FF6
081DE:  MOVLW  10
081E0:  MOVWF  FF7
081E2:  CALL   2F62
.................... lcd_gotoxy(1,3); 
081E6:  MOVLW  01
081E8:  MOVLB  2
081EA:  MOVWF  x0E
081EC:  MOVLW  03
081EE:  MOVWF  x0F
081F0:  MOVLB  0
081F2:  CALL   2E90
.................... printf(lcd_putc, " Ctrl Internet: "); 
081F6:  MOVLW  36
081F8:  MOVWF  FF6
081FA:  MOVLW  10
081FC:  MOVWF  FF7
081FE:  CALL   2F62
.................... lcd_gotoxy(1,4); 
08202:  MOVLW  01
08204:  MOVLB  2
08206:  MOVWF  x0E
08208:  MOVLW  04
0820A:  MOVWF  x0F
0820C:  MOVLB  0
0820E:  CALL   2E90
.................... printf(lcd_putc, " Ctrl Telefono: "); 
08212:  MOVLW  48
08214:  MOVWF  FF6
08216:  MOVLW  10
08218:  MOVWF  FF7
0821A:  CALL   2F62
....................  
.................... lcd_gotoxy(16,2); 
0821E:  MOVLW  10
08220:  MOVLB  2
08222:  MOVWF  x0E
08224:  MOVLW  02
08226:  MOVWF  x0F
08228:  MOVLB  0
0822A:  CALL   2E90
.................... if (submenu == 3) { 
0822E:  MOVLB  1
08230:  MOVF   xFA,W
08232:  SUBLW  03
08234:  BNZ   827E
....................    if (bit_test(tiempo1,0)){ 
08236:  BTFSS  48.0
08238:  BRA    826E
....................       printf(lcd_putc, " %s  ", sAuto2); 
0823A:  MOVLW  20
0823C:  MOVLB  2
0823E:  MOVWF  x0D
08240:  MOVLB  0
08242:  CALL   2EFA
08246:  MOVLW  01
08248:  MOVWF  FEA
0824A:  MOVLW  F1
0824C:  MOVWF  FE9
0824E:  CALL   34BE
08252:  MOVLW  20
08254:  MOVLB  2
08256:  MOVWF  x0D
08258:  MOVLB  0
0825A:  CALL   2EFA
0825E:  MOVLW  20
08260:  MOVLB  2
08262:  MOVWF  x0D
08264:  MOVLB  0
08266:  CALL   2EFA
....................    } else printf(lcd_putc, "   "); 
0826A:  BRA    827C
0826C:  MOVLB  1
0826E:  MOVLW  5A
08270:  MOVWF  FF6
08272:  MOVLW  10
08274:  MOVWF  FF7
08276:  MOVLB  0
08278:  CALL   2F62
.................... } else printf(lcd_putc, " %s  ", sAuto2); 
0827C:  BRA    82AE
0827E:  MOVLW  20
08280:  MOVLB  2
08282:  MOVWF  x0D
08284:  MOVLB  0
08286:  CALL   2EFA
0828A:  MOVLW  01
0828C:  MOVWF  FEA
0828E:  MOVLW  F1
08290:  MOVWF  FE9
08292:  CALL   34BE
08296:  MOVLW  20
08298:  MOVLB  2
0829A:  MOVWF  x0D
0829C:  MOVLB  0
0829E:  CALL   2EFA
082A2:  MOVLW  20
082A4:  MOVLB  2
082A6:  MOVWF  x0D
082A8:  MOVLB  0
082AA:  CALL   2EFA
....................  
.................... lcd_gotoxy(16,3); 
082AE:  MOVLW  10
082B0:  MOVLB  2
082B2:  MOVWF  x0E
082B4:  MOVLW  03
082B6:  MOVWF  x0F
082B8:  MOVLB  0
082BA:  CALL   2E90
.................... if (submenu == 4) { 
082BE:  MOVLB  1
082C0:  MOVF   xFA,W
082C2:  SUBLW  04
082C4:  BNZ   830E
....................    if (bit_test(tiempo1,0)){ 
082C6:  BTFSS  48.0
082C8:  BRA    82FE
....................       printf(lcd_putc, " %s  ", sWeb); 
082CA:  MOVLW  20
082CC:  MOVLB  2
082CE:  MOVWF  x0D
082D0:  MOVLB  0
082D2:  CALL   2EFA
082D6:  MOVLW  01
082D8:  MOVWF  FEA
082DA:  MOVLW  F4
082DC:  MOVWF  FE9
082DE:  CALL   34BE
082E2:  MOVLW  20
082E4:  MOVLB  2
082E6:  MOVWF  x0D
082E8:  MOVLB  0
082EA:  CALL   2EFA
082EE:  MOVLW  20
082F0:  MOVLB  2
082F2:  MOVWF  x0D
082F4:  MOVLB  0
082F6:  CALL   2EFA
....................    } else printf(lcd_putc, "   "); 
082FA:  BRA    830C
082FC:  MOVLB  1
082FE:  MOVLW  5E
08300:  MOVWF  FF6
08302:  MOVLW  10
08304:  MOVWF  FF7
08306:  MOVLB  0
08308:  CALL   2F62
.................... } else printf(lcd_putc, " %s  ", sWeb); 
0830C:  BRA    833E
0830E:  MOVLW  20
08310:  MOVLB  2
08312:  MOVWF  x0D
08314:  MOVLB  0
08316:  CALL   2EFA
0831A:  MOVLW  01
0831C:  MOVWF  FEA
0831E:  MOVLW  F4
08320:  MOVWF  FE9
08322:  CALL   34BE
08326:  MOVLW  20
08328:  MOVLB  2
0832A:  MOVWF  x0D
0832C:  MOVLB  0
0832E:  CALL   2EFA
08332:  MOVLW  20
08334:  MOVLB  2
08336:  MOVWF  x0D
08338:  MOVLB  0
0833A:  CALL   2EFA
....................  
.................... lcd_gotoxy(16,4); 
0833E:  MOVLW  10
08340:  MOVLB  2
08342:  MOVWF  x0E
08344:  MOVLW  04
08346:  MOVWF  x0F
08348:  MOVLB  0
0834A:  CALL   2E90
.................... if (submenu == 5) { 
0834E:  MOVLB  1
08350:  MOVF   xFA,W
08352:  SUBLW  05
08354:  BNZ   839E
....................    if (bit_test(tiempo1,0)){ 
08356:  BTFSS  48.0
08358:  BRA    838E
....................       printf(lcd_putc, " %s  ", sTel); 
0835A:  MOVLW  20
0835C:  MOVLB  2
0835E:  MOVWF  x0D
08360:  MOVLB  0
08362:  CALL   2EFA
08366:  MOVLW  01
08368:  MOVWF  FEA
0836A:  MOVLW  F7
0836C:  MOVWF  FE9
0836E:  CALL   34BE
08372:  MOVLW  20
08374:  MOVLB  2
08376:  MOVWF  x0D
08378:  MOVLB  0
0837A:  CALL   2EFA
0837E:  MOVLW  20
08380:  MOVLB  2
08382:  MOVWF  x0D
08384:  MOVLB  0
08386:  CALL   2EFA
....................    } else printf(lcd_putc, "   "); 
0838A:  BRA    839C
0838C:  MOVLB  1
0838E:  MOVLW  62
08390:  MOVWF  FF6
08392:  MOVLW  10
08394:  MOVWF  FF7
08396:  MOVLB  0
08398:  CALL   2F62
.................... } else printf(lcd_putc, " %s  ", sTel); 
0839C:  BRA    83CE
0839E:  MOVLW  20
083A0:  MOVLB  2
083A2:  MOVWF  x0D
083A4:  MOVLB  0
083A6:  CALL   2EFA
083AA:  MOVLW  01
083AC:  MOVWF  FEA
083AE:  MOVLW  F7
083B0:  MOVWF  FE9
083B2:  CALL   34BE
083B6:  MOVLW  20
083B8:  MOVLB  2
083BA:  MOVWF  x0D
083BC:  MOVLB  0
083BE:  CALL   2EFA
083C2:  MOVLW  20
083C4:  MOVLB  2
083C6:  MOVWF  x0D
083C8:  MOVLB  0
083CA:  CALL   2EFA
....................  
.................... restart_wdt(); 
083CE:  CLRWDT
083D0:  MOVLB  1
.................... } // mirando el ultimo 
083D2:  GOTO   7BA4
....................  
.................... } // while -- todo lleno cuando salgo de aqui 
....................  
.................... if (submenu == 6){ 
083D6:  MOVF   xFA,W
083D8:  SUBLW  06
083DA:  BTFSS  FD8.2
083DC:  BRA    84F4
.................... write_eeprom(EstCasandra,ConfCas); 
083DE:  MOVF   FF2,W
083E0:  MOVWF  00
083E2:  BCF    FF2.7
083E4:  CLRF   FAA
083E6:  MOVLW  03
083E8:  MOVWF  FA9
083EA:  MOVFF  46,FA8
083EE:  BCF    FA6.6
083F0:  BCF    FA6.7
083F2:  BSF    FA6.2
083F4:  MOVLB  F
083F6:  MOVLW  55
083F8:  MOVWF  FA7
083FA:  MOVLW  AA
083FC:  MOVWF  FA7
083FE:  BSF    FA6.1
08400:  BTFSC  FA6.1
08402:  BRA    8400
08404:  BCF    FA6.2
08406:  MOVF   00,W
08408:  IORWF  FF2,F
0840A:  CLRF   19
0840C:  BTFSC  FF2.7
0840E:  BSF    19.7
08410:  BCF    FF2.7
.................... delay_ms(5); 
08412:  MOVLW  05
08414:  MOVLB  2
08416:  MOVWF  x20
08418:  MOVLB  0
0841A:  CALL   1386
0841E:  BTFSC  19.7
08420:  BSF    FF2.7
....................  
.................... if (bit_test(ConfCas,3)){ // Webserver activado 
08422:  BTFSS  46.3
08424:  BRA    8458
.................... printf("%c%c%c%c", 250, 150, 90, 150 + 90); //PRENDO 
08426:  MOVLW  FA
08428:  MOVLB  1
0842A:  MOVWF  xFB
0842C:  MOVLB  0
0842E:  CALL   2F82
08432:  MOVLW  96
08434:  MOVLB  1
08436:  MOVWF  xFB
08438:  MOVLB  0
0843A:  CALL   2F82
0843E:  MOVLW  5A
08440:  MOVLB  1
08442:  MOVWF  xFB
08444:  MOVLB  0
08446:  CALL   2F82
0844A:  MOVLW  F0
0844C:  MOVLB  1
0844E:  MOVWF  xFB
08450:  MOVLB  0
08452:  CALL   2F82
.................... } else { // WebServer desactivado 
08456:  BRA    8488
.................... printf("%c%c%c%c", 250, 150, 80, 150 + 80); //APAGO 
08458:  MOVLW  FA
0845A:  MOVLB  1
0845C:  MOVWF  xFB
0845E:  MOVLB  0
08460:  CALL   2F82
08464:  MOVLW  96
08466:  MOVLB  1
08468:  MOVWF  xFB
0846A:  MOVLB  0
0846C:  CALL   2F82
08470:  MOVLW  50
08472:  MOVLB  1
08474:  MOVWF  xFB
08476:  MOVLB  0
08478:  CALL   2F82
0847C:  MOVLW  E6
0847E:  MOVLB  1
08480:  MOVWF  xFB
08482:  MOVLB  0
08484:  CALL   2F82
.................... } 
.................... if (bit_test(ConfCas,4)){ // Sim900 activado 
08488:  BTFSS  46.4
0848A:  BRA    84BE
.................... printf("%c%c%c%c", 250, 151, 90, 151 + 90); //PRENDO 
0848C:  MOVLW  FA
0848E:  MOVLB  1
08490:  MOVWF  xFB
08492:  MOVLB  0
08494:  CALL   2F82
08498:  MOVLW  97
0849A:  MOVLB  1
0849C:  MOVWF  xFB
0849E:  MOVLB  0
084A0:  CALL   2F82
084A4:  MOVLW  5A
084A6:  MOVLB  1
084A8:  MOVWF  xFB
084AA:  MOVLB  0
084AC:  CALL   2F82
084B0:  MOVLW  F1
084B2:  MOVLB  1
084B4:  MOVWF  xFB
084B6:  MOVLB  0
084B8:  CALL   2F82
.................... } else { // Sim900 desactivado 
084BC:  BRA    84EE
.................... printf("%c%c%c%c", 250, 151, 80, 151 + 80); //APAGO 
084BE:  MOVLW  FA
084C0:  MOVLB  1
084C2:  MOVWF  xFB
084C4:  MOVLB  0
084C6:  CALL   2F82
084CA:  MOVLW  97
084CC:  MOVLB  1
084CE:  MOVWF  xFB
084D0:  MOVLB  0
084D2:  CALL   2F82
084D6:  MOVLW  50
084D8:  MOVLB  1
084DA:  MOVWF  xFB
084DC:  MOVLB  0
084DE:  CALL   2F82
084E2:  MOVLW  E7
084E4:  MOVLB  1
084E6:  MOVWF  xFB
084E8:  MOVLB  0
084EA:  CALL   2F82
.................... } 
.................... Menu = 1; 
084EE:  MOVLW  01
084F0:  MOVWF  28
084F2:  MOVLB  1
.................... }  
084F4:  MOVLB  0
084F6:  GOTO   BA10 (RETURN)
.................... } // Fn 
....................  
.................... void CReset(){ 
....................  
.................... LIMPIARLCD; 
*
0B24E:  MOVLW  66
0B250:  MOVWF  FF6
0B252:  MOVLW  10
0B254:  MOVWF  FF7
0B256:  CALL   2F62
.................... short Eleccion = True; 
0B25A:  MOVLB  1
0B25C:  BSF    xEB.0
....................  
.................... if (Autenticar()){ 
0B25E:  MOVLB  0
0B260:  CALL   9A00
0B264:  MOVF   01,F
0B266:  BTFSC  FD8.2
0B268:  BRA    B55C
....................  
.................... while (Eleccion){ 
0B26A:  MOVLB  1
0B26C:  BTFSS  xEB.0
0B26E:  BRA    B55E
....................  
.................... restart_wdt(); 
0B270:  CLRWDT
....................  
.................... if (input(ARRIBA)==1 && input(ABAJO)==1 && input(OOKK)==1 && input(CANCEL)==1) Rebote = false; // Soltamos las teclas 
0B272:  BSF    F93.0
0B274:  BTFSS  F81.0
0B276:  BRA    B28C
0B278:  BSF    F93.1
0B27A:  BTFSS  F81.1
0B27C:  BRA    B28C
0B27E:  BSF    F93.2
0B280:  BTFSS  F81.2
0B282:  BRA    B28C
0B284:  BSF    F93.3
0B286:  BTFSS  F81.3
0B288:  BRA    B28C
0B28A:  BCF    35.0
....................  
.................... if (Rebote == false) { 
0B28C:  BTFSC  35.0
0B28E:  BRA    B558
....................  
.................... lcd_gotoxy(1,1); 
0B290:  MOVLW  01
0B292:  MOVLB  2
0B294:  MOVWF  x0E
0B296:  MOVWF  x0F
0B298:  MOVLB  0
0B29A:  CALL   2E90
.................... printf(lcd_putc, "= RESETEAR SISTEMA ="); 
0B29E:  MOVLW  68
0B2A0:  MOVWF  FF6
0B2A2:  MOVLW  10
0B2A4:  MOVWF  FF7
0B2A6:  CALL   2F62
.................... lcd_gotoxy(1,2); 
0B2AA:  MOVLW  01
0B2AC:  MOVLB  2
0B2AE:  MOVWF  x0E
0B2B0:  MOVLW  02
0B2B2:  MOVWF  x0F
0B2B4:  MOVLB  0
0B2B6:  CALL   2E90
.................... printf(lcd_putc, "%cSe eliminaran todos",165); 
0B2BA:  MOVLW  A5
0B2BC:  MOVLB  2
0B2BE:  MOVWF  x0D
0B2C0:  MOVLB  0
0B2C2:  CALL   2EFA
0B2C6:  MOVLW  80
0B2C8:  MOVWF  FF6
0B2CA:  MOVLW  10
0B2CC:  MOVWF  FF7
0B2CE:  MOVLW  13
0B2D0:  MOVLB  2
0B2D2:  MOVWF  x0A
0B2D4:  MOVLB  0
0B2D6:  CALL   3496
.................... lcd_gotoxy(1,3); 
0B2DA:  MOVLW  01
0B2DC:  MOVLB  2
0B2DE:  MOVWF  x0E
0B2E0:  MOVLW  03
0B2E2:  MOVWF  x0F
0B2E4:  MOVLB  0
0B2E6:  CALL   2E90
.................... printf(lcd_putc, "los datos guardados!"); 
0B2EA:  MOVLW  94
0B2EC:  MOVWF  FF6
0B2EE:  MOVLW  10
0B2F0:  MOVWF  FF7
0B2F2:  CALL   2F62
.................... lcd_gotoxy(1,4); 
0B2F6:  MOVLW  01
0B2F8:  MOVLB  2
0B2FA:  MOVWF  x0E
0B2FC:  MOVLW  04
0B2FE:  MOVWF  x0F
0B300:  MOVLB  0
0B302:  CALL   2E90
.................... printf(lcd_putc, "    %cContinuar?    ",143); 
0B306:  MOVLW  AA
0B308:  MOVWF  FF6
0B30A:  MOVLW  10
0B30C:  MOVWF  FF7
0B30E:  MOVLW  04
0B310:  MOVLB  2
0B312:  MOVWF  x0A
0B314:  MOVLB  0
0B316:  CALL   3496
0B31A:  MOVLW  8F
0B31C:  MOVLB  2
0B31E:  MOVWF  x0D
0B320:  MOVLB  0
0B322:  CALL   2EFA
0B326:  MOVLW  B0
0B328:  MOVWF  FF6
0B32A:  MOVLW  10
0B32C:  MOVWF  FF7
0B32E:  MOVLW  0E
0B330:  MOVLB  2
0B332:  MOVWF  x0A
0B334:  MOVLB  0
0B336:  CALL   3496
....................  
.................... if (bit_test(Tiempo1,0)) ONLCDLED; 
0B33A:  BTFSS  48.0
0B33C:  BRA    B344
0B33E:  BCF    F95.6
0B340:  BCF    F8C.6
0B342:  BRA    B348
.................... else OFFLCDLED; 
0B344:  BCF    F95.6
0B346:  BSF    F8C.6
....................  
....................  
.................... if (input(ARRIBA)==0 || input(ABAJO)==0 || input(CANCEL)==0){ 
0B348:  BSF    F93.0
0B34A:  BTFSS  F81.0
0B34C:  BRA    B35A
0B34E:  BSF    F93.1
0B350:  BTFSS  F81.1
0B352:  BRA    B35A
0B354:  BSF    F93.3
0B356:  BTFSC  F81.3
0B358:  BRA    B366
.................... Rebote = True; 
0B35A:  BSF    35.0
.................... Menu = 1; 
0B35C:  MOVLW  01
0B35E:  MOVWF  28
.................... Eleccion = False; 
0B360:  MOVLB  1
0B362:  BCF    xEB.0
0B364:  MOVLB  0
.................... } 
....................   
.................... if (input(OOKK)==0){  ///////////////////////////////// Destruir todo YA! 
0B366:  BSF    F93.2
0B368:  BTFSC  F81.2
0B36A:  BRA    B55A
.................... Rebote = True; 
0B36C:  BSF    35.0
.................... LIMPIARLCD; // Limpiamos la pantalla 
0B36E:  MOVLW  C0
0B370:  MOVWF  FF6
0B372:  MOVLW  10
0B374:  MOVWF  FF7
0B376:  CALL   2F62
.................... ONLCDLED; 
0B37A:  BCF    F95.6
0B37C:  BCF    F8C.6
....................  
.................... lcd_gotoxy(1,2); 
0B37E:  MOVLW  01
0B380:  MOVLB  2
0B382:  MOVWF  x0E
0B384:  MOVLW  02
0B386:  MOVWF  x0F
0B388:  MOVLB  0
0B38A:  CALL   2E90
.................... printf(lcd_putc, " Eliminando datos..."); 
0B38E:  MOVLW  C2
0B390:  MOVWF  FF6
0B392:  MOVLW  10
0B394:  MOVWF  FF7
0B396:  CALL   2F62
....................  
.................... int aux1; 
.................... long aux2; 
....................  
.................... for (aux1=0;aux1<5;aux1++){ // llena todo desde el 0 al 4 
0B39A:  MOVLB  1
0B39C:  CLRF   xEC
0B39E:  MOVF   xEC,W
0B3A0:  SUBLW  04
0B3A2:  BNC   B3E8
.................... TempMax[aux1]=0;    // Temperatura maxima de la semana - dia - hora - minuto 
0B3A4:  CLRF   03
0B3A6:  MOVF   xEC,W
0B3A8:  ADDLW  29
0B3AA:  MOVWF  FE9
0B3AC:  MOVLW  00
0B3AE:  ADDWFC 03,W
0B3B0:  MOVWF  FEA
0B3B2:  CLRF   FEF
.................... TempMin[aux1]=0;    // Temperatura minima de la semana - dia - hora - minuto  
0B3B4:  CLRF   03
0B3B6:  MOVF   xEC,W
0B3B8:  ADDLW  2D
0B3BA:  MOVWF  FE9
0B3BC:  MOVLW  00
0B3BE:  ADDWFC 03,W
0B3C0:  MOVWF  FEA
0B3C2:  CLRF   FEF
.................... SolMax[aux1]=0;     // Maximo nivel de radiacion de sol en la semana - dia - hora - minuto 
0B3C4:  CLRF   03
0B3C6:  MOVF   xEC,W
0B3C8:  ADDLW  31
0B3CA:  MOVWF  FE9
0B3CC:  MOVLW  00
0B3CE:  ADDWFC 03,W
0B3D0:  MOVWF  FEA
0B3D2:  CLRF   FEF
.................... Comando[aux1]=0;    // Carga de EVENTO y VALOR 
0B3D4:  CLRF   03
0B3D6:  MOVF   xEC,W
0B3D8:  ADDLW  36
0B3DA:  MOVWF  FE9
0B3DC:  MOVLW  00
0B3DE:  ADDWFC 03,W
0B3E0:  MOVWF  FEA
0B3E2:  CLRF   FEF
0B3E4:  INCF   xEC,F
0B3E6:  BRA    B39E
.................... } 
....................  
.................... for (aux2=0;aux2<1024;aux2++){ // llena todo desde el 0 al 255 
0B3E8:  CLRF   xEE
0B3EA:  CLRF   xED
0B3EC:  MOVF   xEE,W
0B3EE:  SUBLW  03
0B3F0:  BNC   B442
.................... write_eeprom(aux2,0x00);  // la llenamos con 0 
0B3F2:  MOVF   FF2,W
0B3F4:  MOVWF  00
0B3F6:  BCF    FF2.7
0B3F8:  MOVFF  1EE,FAA
0B3FC:  MOVFF  1ED,FA9
0B400:  CLRF   FA8
0B402:  BCF    FA6.6
0B404:  BCF    FA6.7
0B406:  BSF    FA6.2
0B408:  MOVLB  F
0B40A:  MOVLW  55
0B40C:  MOVWF  FA7
0B40E:  MOVLW  AA
0B410:  MOVWF  FA7
0B412:  BSF    FA6.1
0B414:  BTFSC  FA6.1
0B416:  BRA    B414
0B418:  BCF    FA6.2
0B41A:  MOVF   00,W
0B41C:  IORWF  FF2,F
0B41E:  CLRF   19
0B420:  BTFSC  FF2.7
0B422:  BSF    19.7
0B424:  BCF    FF2.7
.................... delay_ms(2); 
0B426:  MOVLW  02
0B428:  MOVLB  2
0B42A:  MOVWF  x20
0B42C:  MOVLB  0
0B42E:  CALL   1386
0B432:  BTFSC  19.7
0B434:  BSF    FF2.7
.................... restart_wdt(); 
0B436:  CLRWDT
0B438:  MOVLB  1
0B43A:  INCF   xED,F
0B43C:  BTFSC  FD8.2
0B43E:  INCF   xEE,F
0B440:  BRA    B3EC
.................... } 
....................  
.................... for (aux1=31;aux1<94;aux1++){ // llena todo desde el 32 al 94  
0B442:  MOVLW  1F
0B444:  MOVWF  xEC
0B446:  MOVF   xEC,W
0B448:  SUBLW  5D
0B44A:  BNC   B460
.................... IntLuz[aux1] = 0; // 100% 
0B44C:  CLRF   03
0B44E:  MOVF   xEC,W
0B450:  ADDLW  49
0B452:  MOVWF  FE9
0B454:  MOVLW  00
0B456:  ADDWFC 03,W
0B458:  MOVWF  FEA
0B45A:  CLRF   FEF
0B45C:  INCF   xEC,F
0B45E:  BRA    B446
.................... } 
....................  
.................... EstadoAl = 1;      // Estado de la alarma 
0B460:  MOVLW  01
0B462:  MOVWF  45
.................... write_eeprom(EstAlarma,EstadoAl); 
0B464:  MOVF   FF2,W
0B466:  MOVWF  00
0B468:  BCF    FF2.7
0B46A:  CLRF   FAA
0B46C:  MOVLW  02
0B46E:  MOVWF  FA9
0B470:  MOVFF  45,FA8
0B474:  BCF    FA6.6
0B476:  BCF    FA6.7
0B478:  BSF    FA6.2
0B47A:  MOVLB  F
0B47C:  MOVLW  55
0B47E:  MOVWF  FA7
0B480:  MOVLW  AA
0B482:  MOVWF  FA7
0B484:  BSF    FA6.1
0B486:  BTFSC  FA6.1
0B488:  BRA    B486
0B48A:  BCF    FA6.2
0B48C:  MOVF   00,W
0B48E:  IORWF  FF2,F
.................... ConfCas=0;       // Estado del nivel de penetracion de Casandra (apagado todo) 
0B490:  CLRF   46
.................... write_eeprom(EstCasandra,ConfCas); 
0B492:  MOVFF  FF2,00
0B496:  BCF    FF2.7
0B498:  CLRF   FAA
0B49A:  MOVLW  03
0B49C:  MOVWF  FA9
0B49E:  MOVFF  46,FA8
0B4A2:  BCF    FA6.6
0B4A4:  BCF    FA6.7
0B4A6:  BSF    FA6.2
0B4A8:  MOVLW  55
0B4AA:  MOVWF  FA7
0B4AC:  MOVLW  AA
0B4AE:  MOVWF  FA7
0B4B0:  BSF    FA6.1
0B4B2:  BTFSC  FA6.1
0B4B4:  BRA    B4B2
0B4B6:  BCF    FA6.2
0B4B8:  MOVF   00,W
0B4BA:  IORWF  FF2,F
.................... TpoSilencioso = 60; 
0B4BC:  MOVLW  3C
0B4BE:  MOVLB  1
0B4C0:  MOVWF  xD7
.................... write_eeprom(TpoSil,TpoSilencioso); // Guardamos el valor 
0B4C2:  MOVF   FF2,W
0B4C4:  MOVWF  00
0B4C6:  BCF    FF2.7
0B4C8:  CLRF   FAA
0B4CA:  MOVLW  04
0B4CC:  MOVWF  FA9
0B4CE:  MOVFF  1D7,FA8
0B4D2:  BCF    FA6.6
0B4D4:  BCF    FA6.7
0B4D6:  BSF    FA6.2
0B4D8:  MOVLB  F
0B4DA:  MOVLW  55
0B4DC:  MOVWF  FA7
0B4DE:  MOVLW  AA
0B4E0:  MOVWF  FA7
0B4E2:  BSF    FA6.1
0B4E4:  BTFSC  FA6.1
0B4E6:  BRA    B4E4
0B4E8:  BCF    FA6.2
0B4EA:  MOVF   00,W
0B4EC:  IORWF  FF2,F
.................... TpoSalida = 45; 
0B4EE:  MOVLW  2D
0B4F0:  MOVLB  1
0B4F2:  MOVWF  xD8
.................... write_eeprom(TpoSal,TpoSalida); // Guardamos el valor 
0B4F4:  MOVF   FF2,W
0B4F6:  MOVWF  00
0B4F8:  BCF    FF2.7
0B4FA:  CLRF   FAA
0B4FC:  MOVLW  05
0B4FE:  MOVWF  FA9
0B500:  MOVFF  1D8,FA8
0B504:  BCF    FA6.6
0B506:  BCF    FA6.7
0B508:  BSF    FA6.2
0B50A:  MOVLB  F
0B50C:  MOVLW  55
0B50E:  MOVWF  FA7
0B510:  MOVLW  AA
0B512:  MOVWF  FA7
0B514:  BSF    FA6.1
0B516:  BTFSC  FA6.1
0B518:  BRA    B516
0B51A:  BCF    FA6.2
0B51C:  MOVF   00,W
0B51E:  IORWF  FF2,F
....................  
....................  
.................... /* 
.................... port_b_pullups(true); 
.................... setup_wdt(WDT_ON); 
.................... enable_interrupts(global); 
.................... enable_interrupts(int_rda); // Interrupcion de llegada de datos 
.................... enable_interrupts(INT_TIMER1); // Interrupcion por timer 1 
.................... setup_timer_1(T1_INTERNAL | T1_DIV_BY_8); 
.................... set_timer1(0); 
.................... */ 
.................... ds1307_set_date_time(1,1,1,1,0,0,0);  // Inicio de valores para el DS1307 
0B520:  MOVLW  01
0B522:  MOVLB  2
0B524:  MOVWF  x01
0B526:  MOVWF  x02
0B528:  MOVWF  x03
0B52A:  MOVWF  x04
0B52C:  CLRF   x05
0B52E:  CLRF   x06
0B530:  CLRF   x07
0B532:  MOVLB  0
0B534:  CALL   A740
0B538:  CLRF   19
0B53A:  BTFSC  FF2.7
0B53C:  BSF    19.7
0B53E:  BCF    FF2.7
.................... delay_ms(5); 
0B540:  MOVLW  05
0B542:  MOVLB  2
0B544:  MOVWF  x20
0B546:  MOVLB  0
0B548:  CALL   1386
0B54C:  BTFSC  19.7
0B54E:  BSF    FF2.7
.................... Menu = 1;      // Posicion dentro del menu 0 
0B550:  MOVLW  01
0B552:  MOVWF  28
.................... Eleccion = False; 
0B554:  MOVLB  1
0B556:  BCF    xEB.0
0B558:  MOVLB  0
.................... } // If eliminar todo confirmado 
.................... } // si rebote es falso 
0B55A:  BRA    B26A
0B55C:  MOVLB  1
.................... } // Salimos del while con eleccion 
.................... } // si autenticamos correctamente 
0B55E:  MOVLB  0
0B560:  GOTO   BA56 (RETURN)
.................... } // Fn 
....................  
.................... void CHs(){ 
....................  
.................... LIMPIARLCD; 
*
0A894:  MOVLW  D8
0A896:  MOVWF  FF6
0A898:  MOVLW  10
0A89A:  MOVWF  FF7
0A89C:  CALL   2F62
.................... int mes=month; 
.................... int dia=day; 
.................... int dias=dow; 
.................... int hora=hrs; 
.................... int minuto=min; 
.................... int anio=year; 
.................... char sdia[11]; 
.................... char smes[4]; 
0A8A0:  MOVFF  25,1EB
0A8A4:  MOVFF  24,1EC
0A8A8:  MOVFF  27,1ED
0A8AC:  MOVFF  23,1EE
0A8B0:  MOVFF  22,1EF
0A8B4:  MOVFF  26,1F0
....................  
.................... restart_wdt(); 
0A8B8:  CLRWDT
....................  
.................... int submenu=1; 
0A8BA:  MOVLW  01
0A8BC:  MOVLB  2
0A8BE:  MOVWF  x00
....................  
.................... Rebote = true; 
0A8C0:  BSF    35.0
.................... //lcd_putc("\f"); // Limpiamos la pantalla 
....................  
.................... while (submenu < 6){ // hasta llenar todo 
0A8C2:  MOVF   x00,W
0A8C4:  SUBLW  05
0A8C6:  BTFSS  FD8.0
0A8C8:  GOTO   B000
....................  
....................  
.................... if (input(ARRIBA)==1 && input(ABAJO)==1 && input(OOKK)==1 && input(CANCEL)==1) Rebote = false; // Soltamos las teclas 
0A8CC:  BSF    F93.0
0A8CE:  BTFSS  F81.0
0A8D0:  BRA    A8E6
0A8D2:  BSF    F93.1
0A8D4:  BTFSS  F81.1
0A8D6:  BRA    A8E6
0A8D8:  BSF    F93.2
0A8DA:  BTFSS  F81.2
0A8DC:  BRA    A8E6
0A8DE:  BSF    F93.3
0A8E0:  BTFSS  F81.3
0A8E2:  BRA    A8E6
0A8E4:  BCF    35.0
....................  
.................... if (Rebote == false){ 
0A8E6:  BTFSC  35.0
0A8E8:  BRA    A8F4
.................... if (input(OOKK) == 0){ // si ok, solo sumo 
0A8EA:  BSF    F93.2
0A8EC:  BTFSC  F81.2
0A8EE:  BRA    A8F4
.................... ++submenu; 
0A8F0:  INCF   x00,F
.................... Rebote = true; 
0A8F2:  BSF    35.0
.................... } // si ok 
.................... } 
....................  
.................... if (Rebote == false){ 
0A8F4:  BTFSC  35.0
0A8F6:  BRA    A90A
.................... if (input(CANCEL) == 0){ // si cancel solo resto o salgo con 10 
0A8F8:  BSF    F93.3
0A8FA:  BTFSC  F81.3
0A8FC:  BRA    A90A
.................... --submenu; 
0A8FE:  DECF   x00,F
.................... Rebote = true; 
0A900:  BSF    35.0
.................... if (submenu == 0) { 
0A902:  MOVF   x00,F
0A904:  BNZ   A90A
.................... submenu = 10; 
0A906:  MOVLW  0A
0A908:  MOVWF  x00
.................... } 
.................... } // si cancel 
.................... } 
....................  
.................... if (Rebote == false){ 
0A90A:  BTFSC  35.0
0A90C:  BRA    A9DA
.................... if (input(ABAJO) == 0){ // si arriba 
0A90E:  BSF    F93.1
0A910:  BTFSC  F81.1
0A912:  BRA    A9DA
.................... Rebote = true; 
0A914:  BSF    35.0
....................  
....................    if (submenu == 1) { // arriba dentro de dia de la semana 
0A916:  DECFSZ x00,W
0A918:  BRA    A92A
....................          ++dias; 
0A91A:  MOVLB  1
0A91C:  INCF   xED,F
....................          if (dias == 8) dias = 1; 
0A91E:  MOVF   xED,W
0A920:  SUBLW  08
0A922:  BNZ   A928
0A924:  MOVLW  01
0A926:  MOVWF  xED
0A928:  MOVLB  2
....................    } // arriba dentro de mes 
....................  
....................    if (submenu == 2) { // arriba dentro de mes 
0A92A:  MOVF   x00,W
0A92C:  SUBLW  02
0A92E:  BNZ   A940
....................          ++mes; 
0A930:  MOVLB  1
0A932:  INCF   xEB,F
....................          if (mes == 13) mes = 1; 
0A934:  MOVF   xEB,W
0A936:  SUBLW  0D
0A938:  BNZ   A93E
0A93A:  MOVLW  01
0A93C:  MOVWF  xEB
0A93E:  MOVLB  2
....................    } // arriba dentro de mes 
....................  
....................    if (submenu == 3) { // arriba dentro de dia 
0A940:  MOVF   x00,W
0A942:  SUBLW  03
0A944:  BNZ   A9B2
....................          ++dia; 
0A946:  MOVLB  1
0A948:  INCF   xEC,F
....................          if ((dia >= 32) && ((mes == 1) || (mes == 3) || (mes == 5) || (mes == 7) || (mes == 8) || (mes == 10) || (mes == 12))) dia = 1; 
0A94A:  MOVF   xEC,W
0A94C:  SUBLW  1F
0A94E:  BC    A97E
0A950:  DECFSZ xEB,W
0A952:  BRA    A956
0A954:  BRA    A97A
0A956:  MOVF   xEB,W
0A958:  SUBLW  03
0A95A:  BZ    A97A
0A95C:  MOVF   xEB,W
0A95E:  SUBLW  05
0A960:  BZ    A97A
0A962:  MOVF   xEB,W
0A964:  SUBLW  07
0A966:  BZ    A97A
0A968:  MOVF   xEB,W
0A96A:  SUBLW  08
0A96C:  BZ    A97A
0A96E:  MOVF   xEB,W
0A970:  SUBLW  0A
0A972:  BZ    A97A
0A974:  MOVF   xEB,W
0A976:  SUBLW  0C
0A978:  BNZ   A97E
0A97A:  MOVLW  01
0A97C:  MOVWF  xEC
....................          if ((dia >= 29) && (mes == 2)) dia = 1; 
0A97E:  MOVF   xEC,W
0A980:  SUBLW  1C
0A982:  BC    A98E
0A984:  MOVF   xEB,W
0A986:  SUBLW  02
0A988:  BNZ   A98E
0A98A:  MOVLW  01
0A98C:  MOVWF  xEC
....................          if ((dia >= 31) && ((mes == 4) || (mes == 6) || (mes == 9) || (mes == 11))) dia = 1; 
0A98E:  MOVF   xEC,W
0A990:  SUBLW  1E
0A992:  BC    A9B0
0A994:  MOVF   xEB,W
0A996:  SUBLW  04
0A998:  BZ    A9AC
0A99A:  MOVF   xEB,W
0A99C:  SUBLW  06
0A99E:  BZ    A9AC
0A9A0:  MOVF   xEB,W
0A9A2:  SUBLW  09
0A9A4:  BZ    A9AC
0A9A6:  MOVF   xEB,W
0A9A8:  SUBLW  0B
0A9AA:  BNZ   A9B0
0A9AC:  MOVLW  01
0A9AE:  MOVWF  xEC
0A9B0:  MOVLB  2
....................    } // arriba dentro de dia 
....................  
....................    if (submenu == 4) { // arriba dentro de hora 
0A9B2:  MOVF   x00,W
0A9B4:  SUBLW  04
0A9B6:  BNZ   A9C6
....................          ++hora; 
0A9B8:  MOVLB  1
0A9BA:  INCF   xEE,F
....................          if (hora == 24) hora = 0; 
0A9BC:  MOVF   xEE,W
0A9BE:  SUBLW  18
0A9C0:  BNZ   A9C4
0A9C2:  CLRF   xEE
0A9C4:  MOVLB  2
....................    } // arriba dentro de hora 
....................  
....................    if (submenu == 5) { // arriba dentro de minuto 
0A9C6:  MOVF   x00,W
0A9C8:  SUBLW  05
0A9CA:  BNZ   A9DA
....................          ++minuto; 
0A9CC:  MOVLB  1
0A9CE:  INCF   xEF,F
....................          if (minuto == 60) minuto = 0; 
0A9D0:  MOVF   xEF,W
0A9D2:  SUBLW  3C
0A9D4:  BNZ   A9D8
0A9D6:  CLRF   xEF
0A9D8:  MOVLB  2
....................    } // arriba dentro de minuto 
.................... } 
.................... } 
....................  
.................... if (Rebote == false){ 
0A9DA:  BTFSC  35.0
0A9DC:  BRA    AAA0
.................... if (input(ARRIBA) == 0){ // si abajo 
0A9DE:  BSF    F93.0
0A9E0:  BTFSC  F81.0
0A9E2:  BRA    AAA0
.................... Rebote = true; 
0A9E4:  BSF    35.0
....................  
....................    if (submenu == 1) { // abajo dentro de mes 
0A9E6:  DECFSZ x00,W
0A9E8:  BRA    A9F8
....................          --dias; 
0A9EA:  MOVLB  1
0A9EC:  DECF   xED,F
....................          if (dias == 0) dias = 7; 
0A9EE:  MOVF   xED,F
0A9F0:  BNZ   A9F6
0A9F2:  MOVLW  07
0A9F4:  MOVWF  xED
0A9F6:  MOVLB  2
....................    } // arriba dentro de mes 
....................  
....................    if (submenu == 2) { // abajo dentro de mes 
0A9F8:  MOVF   x00,W
0A9FA:  SUBLW  02
0A9FC:  BNZ   AA0C
....................          --mes; 
0A9FE:  MOVLB  1
0AA00:  DECF   xEB,F
....................          if (mes == 0) mes = 12; 
0AA02:  MOVF   xEB,F
0AA04:  BNZ   AA0A
0AA06:  MOVLW  0C
0AA08:  MOVWF  xEB
0AA0A:  MOVLB  2
....................    } // arriba dentro de mes 
....................  
....................    if (submenu == 3) { // arriba dentro de dia 
0AA0C:  MOVF   x00,W
0AA0E:  SUBLW  03
0AA10:  BNZ   AA78
....................          --dia; 
0AA12:  MOVLB  1
0AA14:  DECF   xEC,F
....................          if ((dia == 0) && ((mes == 1) || (mes == 3) || (mes == 5) || (mes == 7) || (mes == 8) || (mes == 10) || (mes == 12))) dia = 31; 
0AA16:  MOVF   xEC,F
0AA18:  BNZ   AA48
0AA1A:  DECFSZ xEB,W
0AA1C:  BRA    AA20
0AA1E:  BRA    AA44
0AA20:  MOVF   xEB,W
0AA22:  SUBLW  03
0AA24:  BZ    AA44
0AA26:  MOVF   xEB,W
0AA28:  SUBLW  05
0AA2A:  BZ    AA44
0AA2C:  MOVF   xEB,W
0AA2E:  SUBLW  07
0AA30:  BZ    AA44
0AA32:  MOVF   xEB,W
0AA34:  SUBLW  08
0AA36:  BZ    AA44
0AA38:  MOVF   xEB,W
0AA3A:  SUBLW  0A
0AA3C:  BZ    AA44
0AA3E:  MOVF   xEB,W
0AA40:  SUBLW  0C
0AA42:  BNZ   AA48
0AA44:  MOVLW  1F
0AA46:  MOVWF  xEC
....................          if ((dia == 0) && (mes == 2)) dia = 28; 
0AA48:  MOVF   xEC,F
0AA4A:  BNZ   AA56
0AA4C:  MOVF   xEB,W
0AA4E:  SUBLW  02
0AA50:  BNZ   AA56
0AA52:  MOVLW  1C
0AA54:  MOVWF  xEC
....................          if ((dia == 0) && ((mes == 4) || (mes == 6) || (mes == 9) || (mes == 11))) dia = 30; 
0AA56:  MOVF   xEC,F
0AA58:  BNZ   AA76
0AA5A:  MOVF   xEB,W
0AA5C:  SUBLW  04
0AA5E:  BZ    AA72
0AA60:  MOVF   xEB,W
0AA62:  SUBLW  06
0AA64:  BZ    AA72
0AA66:  MOVF   xEB,W
0AA68:  SUBLW  09
0AA6A:  BZ    AA72
0AA6C:  MOVF   xEB,W
0AA6E:  SUBLW  0B
0AA70:  BNZ   AA76
0AA72:  MOVLW  1E
0AA74:  MOVWF  xEC
0AA76:  MOVLB  2
....................    } // arriba dentro de dia 
....................  
....................    if (submenu == 4) { // arriba dentro de hora 
0AA78:  MOVF   x00,W
0AA7A:  SUBLW  04
0AA7C:  BNZ   AA8C
....................          --hora; 
0AA7E:  MOVLB  1
0AA80:  DECF   xEE,F
....................          if (hora == 255) hora = 23; 
0AA82:  INCFSZ xEE,W
0AA84:  BRA    AA8A
0AA86:  MOVLW  17
0AA88:  MOVWF  xEE
0AA8A:  MOVLB  2
....................    } // arriba dentro de hora 
....................  
....................    if (submenu == 5) { // arriba dentro de minuto 
0AA8C:  MOVF   x00,W
0AA8E:  SUBLW  05
0AA90:  BNZ   AAA0
....................          --minuto; 
0AA92:  MOVLB  1
0AA94:  DECF   xEF,F
....................          if (minuto == 255) minuto = 59; 
0AA96:  INCFSZ xEF,W
0AA98:  BRA    AA9E
0AA9A:  MOVLW  3B
0AA9C:  MOVWF  xEF
0AA9E:  MOVLB  2
....................    } // arriba dentro de minuto 
....................  
.................... } 
.................... } 
....................  
.................... switch (dias){ 
0AAA0:  MOVLW  01
0AAA2:  MOVLB  1
0AAA4:  SUBWF  xED,W
0AAA6:  ADDLW  F9
0AAA8:  BTFSC  FD8.0
0AAAA:  BRA    AB88
0AAAC:  ADDLW  07
0AAAE:  MOVLB  0
0AAB0:  GOTO   B03C
....................    case 1: 
....................    sdia="Lunes    "; 
0AAB4:  MOVLW  01
0AAB6:  MOVWF  FEA
0AAB8:  MOVLW  F1
0AABA:  MOVWF  FE9
0AABC:  MOVLW  00
0AABE:  CALL   02C2
0AAC2:  TBLRD*-
0AAC4:  TBLRD*+
0AAC6:  MOVF   FF5,W
0AAC8:  MOVWF  FEE
0AACA:  IORLW  00
0AACC:  BNZ   AAC4
....................    break; 
0AACE:  MOVLB  1
0AAD0:  BRA    AB88
....................  
....................    case 2: 
....................    sdia="Martes   "; 
0AAD2:  MOVLW  01
0AAD4:  MOVWF  FEA
0AAD6:  MOVLW  F1
0AAD8:  MOVWF  FE9
0AADA:  MOVLW  00
0AADC:  CALL   02DC
0AAE0:  TBLRD*-
0AAE2:  TBLRD*+
0AAE4:  MOVF   FF5,W
0AAE6:  MOVWF  FEE
0AAE8:  IORLW  00
0AAEA:  BNZ   AAE2
....................    break; 
0AAEC:  MOVLB  1
0AAEE:  BRA    AB88
....................  
....................    case 3: 
....................    sdia="Miercoles"; 
0AAF0:  MOVLW  01
0AAF2:  MOVWF  FEA
0AAF4:  MOVLW  F1
0AAF6:  MOVWF  FE9
0AAF8:  MOVLW  00
0AAFA:  CALL   02F6
0AAFE:  TBLRD*-
0AB00:  TBLRD*+
0AB02:  MOVF   FF5,W
0AB04:  MOVWF  FEE
0AB06:  IORLW  00
0AB08:  BNZ   AB00
....................    break; 
0AB0A:  MOVLB  1
0AB0C:  BRA    AB88
....................  
....................    case 4: 
....................    sdia="Jueves   "; 
0AB0E:  MOVLW  01
0AB10:  MOVWF  FEA
0AB12:  MOVLW  F1
0AB14:  MOVWF  FE9
0AB16:  MOVLW  00
0AB18:  CALL   0310
0AB1C:  TBLRD*-
0AB1E:  TBLRD*+
0AB20:  MOVF   FF5,W
0AB22:  MOVWF  FEE
0AB24:  IORLW  00
0AB26:  BNZ   AB1E
....................    break; 
0AB28:  MOVLB  1
0AB2A:  BRA    AB88
....................  
....................    case 5: 
....................    sdia="Viernes  "; 
0AB2C:  MOVLW  01
0AB2E:  MOVWF  FEA
0AB30:  MOVLW  F1
0AB32:  MOVWF  FE9
0AB34:  MOVLW  00
0AB36:  CALL   032A
0AB3A:  TBLRD*-
0AB3C:  TBLRD*+
0AB3E:  MOVF   FF5,W
0AB40:  MOVWF  FEE
0AB42:  IORLW  00
0AB44:  BNZ   AB3C
....................    break; 
0AB46:  MOVLB  1
0AB48:  BRA    AB88
....................  
....................    case 6: 
....................    sdia="Sabado   "; 
0AB4A:  MOVLW  01
0AB4C:  MOVWF  FEA
0AB4E:  MOVLW  F1
0AB50:  MOVWF  FE9
0AB52:  MOVLW  00
0AB54:  CALL   0344
0AB58:  TBLRD*-
0AB5A:  TBLRD*+
0AB5C:  MOVF   FF5,W
0AB5E:  MOVWF  FEE
0AB60:  IORLW  00
0AB62:  BNZ   AB5A
....................    break; 
0AB64:  MOVLB  1
0AB66:  BRA    AB88
....................  
....................    case 7: 
....................    sdia="Domingo  "; 
0AB68:  MOVLW  01
0AB6A:  MOVWF  FEA
0AB6C:  MOVLW  F1
0AB6E:  MOVWF  FE9
0AB70:  MOVLW  00
0AB72:  CALL   035E
0AB76:  TBLRD*-
0AB78:  TBLRD*+
0AB7A:  MOVF   FF5,W
0AB7C:  MOVWF  FEE
0AB7E:  IORLW  00
0AB80:  BNZ   AB78
....................    break; 
0AB82:  MOVLB  1
0AB84:  BRA    AB88
0AB86:  MOVLB  1
.................... } 
....................  
.................... switch (mes){ 
0AB88:  MOVLW  01
0AB8A:  SUBWF  xEB,W
0AB8C:  ADDLW  F4
0AB8E:  BTFSC  FD8.0
0AB90:  BRA    AD04
0AB92:  ADDLW  0C
0AB94:  MOVLB  0
0AB96:  GOTO   B064
....................    case 1: 
....................    smes="Ene"; 
0AB9A:  MOVLW  01
0AB9C:  MOVWF  FEA
0AB9E:  MOVLW  FC
0ABA0:  MOVWF  FE9
0ABA2:  MOVLW  00
0ABA4:  CALL   0378
0ABA8:  TBLRD*-
0ABAA:  TBLRD*+
0ABAC:  MOVF   FF5,W
0ABAE:  MOVWF  FEE
0ABB0:  IORLW  00
0ABB2:  BNZ   ABAA
....................    break; 
0ABB4:  MOVLB  1
0ABB6:  BRA    AD04
....................  
....................    case 2: 
....................    smes="Feb"; 
0ABB8:  MOVLW  01
0ABBA:  MOVWF  FEA
0ABBC:  MOVLW  FC
0ABBE:  MOVWF  FE9
0ABC0:  MOVLW  00
0ABC2:  CALL   038C
0ABC6:  TBLRD*-
0ABC8:  TBLRD*+
0ABCA:  MOVF   FF5,W
0ABCC:  MOVWF  FEE
0ABCE:  IORLW  00
0ABD0:  BNZ   ABC8
....................    break; 
0ABD2:  MOVLB  1
0ABD4:  BRA    AD04
....................  
....................    case 3: 
....................    smes="Mar"; 
0ABD6:  MOVLW  01
0ABD8:  MOVWF  FEA
0ABDA:  MOVLW  FC
0ABDC:  MOVWF  FE9
0ABDE:  MOVLW  00
0ABE0:  CALL   01DE
0ABE4:  TBLRD*-
0ABE6:  TBLRD*+
0ABE8:  MOVF   FF5,W
0ABEA:  MOVWF  FEE
0ABEC:  IORLW  00
0ABEE:  BNZ   ABE6
....................    break; 
0ABF0:  MOVLB  1
0ABF2:  BRA    AD04
....................  
....................    case 4: 
....................    smes="Abr"; 
0ABF4:  MOVLW  01
0ABF6:  MOVWF  FEA
0ABF8:  MOVLW  FC
0ABFA:  MOVWF  FE9
0ABFC:  MOVLW  00
0ABFE:  CALL   03A0
0AC02:  TBLRD*-
0AC04:  TBLRD*+
0AC06:  MOVF   FF5,W
0AC08:  MOVWF  FEE
0AC0A:  IORLW  00
0AC0C:  BNZ   AC04
....................    break; 
0AC0E:  MOVLB  1
0AC10:  BRA    AD04
....................  
....................    case 5: 
....................    smes="May"; 
0AC12:  MOVLW  01
0AC14:  MOVWF  FEA
0AC16:  MOVLW  FC
0AC18:  MOVWF  FE9
0AC1A:  MOVLW  00
0AC1C:  CALL   03B4
0AC20:  TBLRD*-
0AC22:  TBLRD*+
0AC24:  MOVF   FF5,W
0AC26:  MOVWF  FEE
0AC28:  IORLW  00
0AC2A:  BNZ   AC22
....................    break; 
0AC2C:  MOVLB  1
0AC2E:  BRA    AD04
....................  
....................    case 6: 
....................    smes="Jun"; 
0AC30:  MOVLW  01
0AC32:  MOVWF  FEA
0AC34:  MOVLW  FC
0AC36:  MOVWF  FE9
0AC38:  MOVLW  00
0AC3A:  CALL   03C8
0AC3E:  TBLRD*-
0AC40:  TBLRD*+
0AC42:  MOVF   FF5,W
0AC44:  MOVWF  FEE
0AC46:  IORLW  00
0AC48:  BNZ   AC40
....................    break; 
0AC4A:  MOVLB  1
0AC4C:  BRA    AD04
....................  
....................    case 7: 
....................    smes="Jul"; 
0AC4E:  MOVLW  01
0AC50:  MOVWF  FEA
0AC52:  MOVLW  FC
0AC54:  MOVWF  FE9
0AC56:  MOVLW  00
0AC58:  CALL   03DC
0AC5C:  TBLRD*-
0AC5E:  TBLRD*+
0AC60:  MOVF   FF5,W
0AC62:  MOVWF  FEE
0AC64:  IORLW  00
0AC66:  BNZ   AC5E
....................    break; 
0AC68:  MOVLB  1
0AC6A:  BRA    AD04
....................  
....................    case 8: 
....................    smes="Ago"; 
0AC6C:  MOVLW  01
0AC6E:  MOVWF  FEA
0AC70:  MOVLW  FC
0AC72:  MOVWF  FE9
0AC74:  MOVLW  00
0AC76:  CALL   03F0
0AC7A:  TBLRD*-
0AC7C:  TBLRD*+
0AC7E:  MOVF   FF5,W
0AC80:  MOVWF  FEE
0AC82:  IORLW  00
0AC84:  BNZ   AC7C
....................    break; 
0AC86:  MOVLB  1
0AC88:  BRA    AD04
....................  
....................    case 9: 
....................    smes="Sep"; 
0AC8A:  MOVLW  01
0AC8C:  MOVWF  FEA
0AC8E:  MOVLW  FC
0AC90:  MOVWF  FE9
0AC92:  MOVLW  00
0AC94:  CALL   0404
0AC98:  TBLRD*-
0AC9A:  TBLRD*+
0AC9C:  MOVF   FF5,W
0AC9E:  MOVWF  FEE
0ACA0:  IORLW  00
0ACA2:  BNZ   AC9A
....................    break; 
0ACA4:  MOVLB  1
0ACA6:  BRA    AD04
....................  
....................    case 10: 
....................    smes="Oct"; 
0ACA8:  MOVLW  01
0ACAA:  MOVWF  FEA
0ACAC:  MOVLW  FC
0ACAE:  MOVWF  FE9
0ACB0:  MOVLW  00
0ACB2:  CALL   0418
0ACB6:  TBLRD*-
0ACB8:  TBLRD*+
0ACBA:  MOVF   FF5,W
0ACBC:  MOVWF  FEE
0ACBE:  IORLW  00
0ACC0:  BNZ   ACB8
....................    break; 
0ACC2:  MOVLB  1
0ACC4:  BRA    AD04
....................  
....................    case 11: 
....................    smes="Nov"; 
0ACC6:  MOVLW  01
0ACC8:  MOVWF  FEA
0ACCA:  MOVLW  FC
0ACCC:  MOVWF  FE9
0ACCE:  MOVLW  00
0ACD0:  CALL   042C
0ACD4:  TBLRD*-
0ACD6:  TBLRD*+
0ACD8:  MOVF   FF5,W
0ACDA:  MOVWF  FEE
0ACDC:  IORLW  00
0ACDE:  BNZ   ACD6
....................    break; 
0ACE0:  MOVLB  1
0ACE2:  BRA    AD04
....................  
....................    case 12: 
....................    smes="Dic"; 
0ACE4:  MOVLW  01
0ACE6:  MOVWF  FEA
0ACE8:  MOVLW  FC
0ACEA:  MOVWF  FE9
0ACEC:  MOVLW  00
0ACEE:  CALL   0440
0ACF2:  TBLRD*-
0ACF4:  TBLRD*+
0ACF6:  MOVF   FF5,W
0ACF8:  MOVWF  FEE
0ACFA:  IORLW  00
0ACFC:  BNZ   ACF4
....................    break; 
0ACFE:  MOVLB  1
0AD00:  BRA    AD04
0AD02:  MOVLB  1
.................... } 
....................  
.................... lcd_gotoxy(1,1); 
0AD04:  MOVLW  01
0AD06:  MOVLB  2
0AD08:  MOVWF  x0E
0AD0A:  MOVWF  x0F
0AD0C:  MOVLB  0
0AD0E:  CALL   2E90
.................... printf(lcd_putc, "=== Fecha y hora ==="); 
0AD12:  MOVLW  DA
0AD14:  MOVWF  FF6
0AD16:  MOVLW  10
0AD18:  MOVWF  FF7
0AD1A:  CALL   2F62
....................  
.................... lcd_gotoxy(1,2); 
0AD1E:  MOVLW  01
0AD20:  MOVLB  2
0AD22:  MOVWF  x0E
0AD24:  MOVLW  02
0AD26:  MOVWF  x0F
0AD28:  MOVLB  0
0AD2A:  CALL   2E90
.................... if (submenu == 1){ 
0AD2E:  MOVLB  2
0AD30:  DECFSZ x00,W
0AD32:  BRA    AD78
.................... if (bit_test(tiempo1,0)) printf(lcd_putc, "   Dia: %s ", sdia); 
0AD34:  BTFSS  48.0
0AD36:  BRA    AD66
0AD38:  MOVLW  F0
0AD3A:  MOVWF  FF6
0AD3C:  MOVLW  10
0AD3E:  MOVWF  FF7
0AD40:  MOVLW  08
0AD42:  MOVWF  x0A
0AD44:  MOVLB  0
0AD46:  CALL   3496
0AD4A:  MOVLW  01
0AD4C:  MOVWF  FEA
0AD4E:  MOVLW  F1
0AD50:  MOVWF  FE9
0AD52:  CALL   34BE
0AD56:  MOVLW  20
0AD58:  MOVLB  2
0AD5A:  MOVWF  x0D
0AD5C:  MOVLB  0
0AD5E:  CALL   2EFA
0AD62:  BRA    AD74
0AD64:  MOVLB  2
.................... else printf(lcd_putc, "   Dia:             "); 
0AD66:  MOVLW  FC
0AD68:  MOVWF  FF6
0AD6A:  MOVLW  10
0AD6C:  MOVWF  FF7
0AD6E:  MOVLB  0
0AD70:  CALL   2F62
.................... } else{ 
0AD74:  BRA    ADB2
0AD76:  MOVLB  2
.................... lcd_gotoxy(1,2); 
0AD78:  MOVLW  01
0AD7A:  MOVWF  x0E
0AD7C:  MOVLW  02
0AD7E:  MOVWF  x0F
0AD80:  MOVLB  0
0AD82:  CALL   2E90
.................... printf(lcd_putc, "   Dia: %s ", sdia); 
0AD86:  MOVLW  12
0AD88:  MOVWF  FF6
0AD8A:  MOVLW  11
0AD8C:  MOVWF  FF7
0AD8E:  MOVLW  08
0AD90:  MOVLB  2
0AD92:  MOVWF  x0A
0AD94:  MOVLB  0
0AD96:  CALL   3496
0AD9A:  MOVLW  01
0AD9C:  MOVWF  FEA
0AD9E:  MOVLW  F1
0ADA0:  MOVWF  FE9
0ADA2:  CALL   34BE
0ADA6:  MOVLW  20
0ADA8:  MOVLB  2
0ADAA:  MOVWF  x0D
0ADAC:  MOVLB  0
0ADAE:  CALL   2EFA
.................... } 
....................  
.................... lcd_gotoxy(1,3); 
0ADB2:  MOVLW  01
0ADB4:  MOVLB  2
0ADB6:  MOVWF  x0E
0ADB8:  MOVLW  03
0ADBA:  MOVWF  x0F
0ADBC:  MOVLB  0
0ADBE:  CALL   2E90
.................... if (submenu == 3){ 
0ADC2:  MOVLB  2
0ADC4:  MOVF   x00,W
0ADC6:  SUBLW  03
0ADC8:  BNZ   AE1A
.................... if (bit_test(tiempo1,0)) printf(lcd_putc, " Nro: %02u   ",dia); 
0ADCA:  BTFSS  48.0
0ADCC:  BRA    AE08
0ADCE:  MOVLW  1E
0ADD0:  MOVWF  FF6
0ADD2:  MOVLW  11
0ADD4:  MOVWF  FF7
0ADD6:  MOVLW  06
0ADD8:  MOVWF  x0A
0ADDA:  MOVLB  0
0ADDC:  CALL   3496
0ADE0:  MOVFF  1EC,203
0ADE4:  MOVLW  01
0ADE6:  MOVLB  2
0ADE8:  MOVWF  x04
0ADEA:  MOVLB  0
0ADEC:  CALL   3692
0ADF0:  MOVLW  28
0ADF2:  MOVWF  FF6
0ADF4:  MOVLW  11
0ADF6:  MOVWF  FF7
0ADF8:  MOVLW  03
0ADFA:  MOVLB  2
0ADFC:  MOVWF  x0A
0ADFE:  MOVLB  0
0AE00:  CALL   3496
0AE04:  BRA    AE16
0AE06:  MOVLB  2
.................... else printf(lcd_putc, " Nro:     "); 
0AE08:  MOVLW  2C
0AE0A:  MOVWF  FF6
0AE0C:  MOVLW  11
0AE0E:  MOVWF  FF7
0AE10:  MOVLB  0
0AE12:  CALL   2F62
.................... } else 
0AE16:  BRA    AE58
0AE18:  MOVLB  2
.................... { 
.................... lcd_gotoxy(1,3); 
0AE1A:  MOVLW  01
0AE1C:  MOVWF  x0E
0AE1E:  MOVLW  03
0AE20:  MOVWF  x0F
0AE22:  MOVLB  0
0AE24:  CALL   2E90
.................... printf(lcd_putc, " Nro: %02u ",dia); 
0AE28:  MOVLW  38
0AE2A:  MOVWF  FF6
0AE2C:  MOVLW  11
0AE2E:  MOVWF  FF7
0AE30:  MOVLW  06
0AE32:  MOVLB  2
0AE34:  MOVWF  x0A
0AE36:  MOVLB  0
0AE38:  CALL   3496
0AE3C:  MOVFF  1EC,203
0AE40:  MOVLW  01
0AE42:  MOVLB  2
0AE44:  MOVWF  x04
0AE46:  MOVLB  0
0AE48:  CALL   3692
0AE4C:  MOVLW  20
0AE4E:  MOVLB  2
0AE50:  MOVWF  x0D
0AE52:  MOVLB  0
0AE54:  CALL   2EFA
.................... } 
....................  
.................... lcd_gotoxy(11,3); 
0AE58:  MOVLW  0B
0AE5A:  MOVLB  2
0AE5C:  MOVWF  x0E
0AE5E:  MOVLW  03
0AE60:  MOVWF  x0F
0AE62:  MOVLB  0
0AE64:  CALL   2E90
.................... if (submenu == 2){ 
0AE68:  MOVLB  2
0AE6A:  MOVF   x00,W
0AE6C:  SUBLW  02
0AE6E:  BNZ   AEA8
.................... if (bit_test(tiempo1,0)) printf(lcd_putc, "Mes: %s",smes); 
0AE70:  BTFSS  48.0
0AE72:  BRA    AE96
0AE74:  MOVLW  44
0AE76:  MOVWF  FF6
0AE78:  MOVLW  11
0AE7A:  MOVWF  FF7
0AE7C:  MOVLW  05
0AE7E:  MOVWF  x0A
0AE80:  MOVLB  0
0AE82:  CALL   3496
0AE86:  MOVLW  01
0AE88:  MOVWF  FEA
0AE8A:  MOVLW  FC
0AE8C:  MOVWF  FE9
0AE8E:  CALL   34BE
0AE92:  BRA    AEA4
0AE94:  MOVLB  2
.................... else printf(lcd_putc, "Mes:    "); 
0AE96:  MOVLW  4C
0AE98:  MOVWF  FF6
0AE9A:  MOVLW  11
0AE9C:  MOVWF  FF7
0AE9E:  MOVLB  0
0AEA0:  CALL   2F62
.................... } else { 
0AEA4:  BRA    AED6
0AEA6:  MOVLB  2
.................... lcd_gotoxy(11,3); 
0AEA8:  MOVLW  0B
0AEAA:  MOVWF  x0E
0AEAC:  MOVLW  03
0AEAE:  MOVWF  x0F
0AEB0:  MOVLB  0
0AEB2:  CALL   2E90
.................... printf(lcd_putc, "Mes: %s",smes); 
0AEB6:  MOVLW  56
0AEB8:  MOVWF  FF6
0AEBA:  MOVLW  11
0AEBC:  MOVWF  FF7
0AEBE:  MOVLW  05
0AEC0:  MOVLB  2
0AEC2:  MOVWF  x0A
0AEC4:  MOVLB  0
0AEC6:  CALL   3496
0AECA:  MOVLW  01
0AECC:  MOVWF  FEA
0AECE:  MOVLW  FC
0AED0:  MOVWF  FE9
0AED2:  CALL   34BE
.................... } 
....................  
.................... lcd_gotoxy(1,4); 
0AED6:  MOVLW  01
0AED8:  MOVLB  2
0AEDA:  MOVWF  x0E
0AEDC:  MOVLW  04
0AEDE:  MOVWF  x0F
0AEE0:  MOVLB  0
0AEE2:  CALL   2E90
.................... if (submenu == 4){ 
0AEE6:  MOVLB  2
0AEE8:  MOVF   x00,W
0AEEA:  SUBLW  04
0AEEC:  BNZ   AF36
.................... if (bit_test(tiempo1,0)) printf(lcd_putc, "Hora: %02u ",hora); 
0AEEE:  BTFSS  48.0
0AEF0:  BRA    AF24
0AEF2:  MOVLW  5E
0AEF4:  MOVWF  FF6
0AEF6:  MOVLW  11
0AEF8:  MOVWF  FF7
0AEFA:  MOVLW  06
0AEFC:  MOVWF  x0A
0AEFE:  MOVLB  0
0AF00:  CALL   3496
0AF04:  MOVFF  1EE,203
0AF08:  MOVLW  01
0AF0A:  MOVLB  2
0AF0C:  MOVWF  x04
0AF0E:  MOVLB  0
0AF10:  CALL   3692
0AF14:  MOVLW  20
0AF16:  MOVLB  2
0AF18:  MOVWF  x0D
0AF1A:  MOVLB  0
0AF1C:  CALL   2EFA
0AF20:  BRA    AF32
0AF22:  MOVLB  2
.................... else printf(lcd_putc, "Hora:    "); 
0AF24:  MOVLW  6A
0AF26:  MOVWF  FF6
0AF28:  MOVLW  11
0AF2A:  MOVWF  FF7
0AF2C:  MOVLB  0
0AF2E:  CALL   2F62
.................... } else { 
0AF32:  BRA    AF74
0AF34:  MOVLB  2
.................... lcd_gotoxy(1,4); 
0AF36:  MOVLW  01
0AF38:  MOVWF  x0E
0AF3A:  MOVLW  04
0AF3C:  MOVWF  x0F
0AF3E:  MOVLB  0
0AF40:  CALL   2E90
.................... printf(lcd_putc, "Hora: %02u ",hora); 
0AF44:  MOVLW  74
0AF46:  MOVWF  FF6
0AF48:  MOVLW  11
0AF4A:  MOVWF  FF7
0AF4C:  MOVLW  06
0AF4E:  MOVLB  2
0AF50:  MOVWF  x0A
0AF52:  MOVLB  0
0AF54:  CALL   3496
0AF58:  MOVFF  1EE,203
0AF5C:  MOVLW  01
0AF5E:  MOVLB  2
0AF60:  MOVWF  x04
0AF62:  MOVLB  0
0AF64:  CALL   3692
0AF68:  MOVLW  20
0AF6A:  MOVLB  2
0AF6C:  MOVWF  x0D
0AF6E:  MOVLB  0
0AF70:  CALL   2EFA
.................... } 
....................  
.................... lcd_gotoxy(10,4); 
0AF74:  MOVLW  0A
0AF76:  MOVLB  2
0AF78:  MOVWF  x0E
0AF7A:  MOVLW  04
0AF7C:  MOVWF  x0F
0AF7E:  MOVLB  0
0AF80:  CALL   2E90
.................... if (submenu == 5){ 
0AF84:  MOVLB  2
0AF86:  MOVF   x00,W
0AF88:  SUBLW  05
0AF8A:  BNZ   AFC8
.................... if (bit_test(tiempo1,0)) printf(lcd_putc, "Minutos: %02u",minuto); 
0AF8C:  BTFSS  48.0
0AF8E:  BRA    AFB6
0AF90:  MOVLW  80
0AF92:  MOVWF  FF6
0AF94:  MOVLW  11
0AF96:  MOVWF  FF7
0AF98:  MOVLW  09
0AF9A:  MOVWF  x0A
0AF9C:  MOVLB  0
0AF9E:  CALL   3496
0AFA2:  MOVFF  1EF,203
0AFA6:  MOVLW  01
0AFA8:  MOVLB  2
0AFAA:  MOVWF  x04
0AFAC:  MOVLB  0
0AFAE:  CALL   3692
0AFB2:  BRA    AFC4
0AFB4:  MOVLB  2
.................... else printf(lcd_putc, "Minutos:   "); 
0AFB6:  MOVLW  8E
0AFB8:  MOVWF  FF6
0AFBA:  MOVLW  11
0AFBC:  MOVWF  FF7
0AFBE:  MOVLB  0
0AFC0:  CALL   2F62
.................... } else { 
0AFC4:  BRA    AFFA
0AFC6:  MOVLB  2
.................... lcd_gotoxy(10,4); 
0AFC8:  MOVLW  0A
0AFCA:  MOVWF  x0E
0AFCC:  MOVLW  04
0AFCE:  MOVWF  x0F
0AFD0:  MOVLB  0
0AFD2:  CALL   2E90
.................... printf(lcd_putc, "Minutos: %02u",minuto); 
0AFD6:  MOVLW  9A
0AFD8:  MOVWF  FF6
0AFDA:  MOVLW  11
0AFDC:  MOVWF  FF7
0AFDE:  MOVLW  09
0AFE0:  MOVLB  2
0AFE2:  MOVWF  x0A
0AFE4:  MOVLB  0
0AFE6:  CALL   3496
0AFEA:  MOVFF  1EF,203
0AFEE:  MOVLW  01
0AFF0:  MOVLB  2
0AFF2:  MOVWF  x04
0AFF4:  MOVLB  0
0AFF6:  CALL   3692
.................... } 
.................... restart_wdt(); 
0AFFA:  CLRWDT
0AFFC:  MOVLB  2
0AFFE:  BRA    A8C2
....................  
.................... } // todo lleno cuando salgo de aqui 
....................  
.................... if (submenu == 10) Menu = 62; 
0B000:  MOVF   x00,W
0B002:  SUBLW  0A
0B004:  BNZ   B00A
0B006:  MOVLW  3E
0B008:  MOVWF  28
.................... if (submenu == 6) { 
0B00A:  MOVF   x00,W
0B00C:  SUBLW  06
0B00E:  BNZ   B036
.................... Menu = 1; 
0B010:  MOVLW  01
0B012:  MOVWF  28
.................... ds1307_set_date_time(dia,mes,anio,dias,hora,minuto,0); 
0B014:  MOVFF  1EC,201
0B018:  MOVFF  1EB,202
0B01C:  MOVFF  1F0,203
0B020:  MOVFF  1ED,204
0B024:  MOVFF  1EE,205
0B028:  MOVFF  1EF,206
0B02C:  CLRF   x07
0B02E:  MOVLB  0
0B030:  CALL   A740
0B034:  MOVLB  2
.................... } 
0B036:  MOVLB  0
0B038:  GOTO   BA42 (RETURN)
.................... } 
....................  
.................... void inicio(){  /////////////// INICIO ////////////////////// 
.................... ONLCDLED; 
*
0309C:  BCF    F95.6
0309E:  BCF    F8C.6
.................... //// Pullups para el teclado //// 
.................... port_b_pullups(true); 
030A0:  BCF    FF1.7
....................  
.................... /////////  Inicio el WatchDog  /////////////// 
.................... setup_wdt(WDT_ON); 
030A2:  BSF    FD1.0
....................  
.................... //// Interrupciones ///// 
.................... enable_interrupts(global); 
030A4:  MOVLW  C0
030A6:  IORWF  FF2,F
.................... //disable_interrupts(global); 
.................... enable_interrupts(int_RDA); // Interrupcion de llegada de datos 
030A8:  BSF    F9D.5
.................... enable_interrupts(int_TIMER1); // Interrupcion por timer 1 
030AA:  BSF    F9D.0
....................  
.................... ////// Inicio de dispositivos ////// 
.................... DHT11_init(); 
030AC:  BRA    2B30
.................... DS1307_init(); 
030AE:  BRA    2B84
.................... lcd_init(); 
030B0:  BRA    2E02
.................... LIMPIARLCD; 
030B2:  MOVLW  A8
030B4:  MOVWF  FF6
030B6:  MOVLW  11
030B8:  MOVWF  FF7
030BA:  RCALL  2F62
.................... lcd_gotoxy(1,2); 
030BC:  MOVLW  01
030BE:  MOVLB  2
030C0:  MOVWF  x0E
030C2:  MOVLW  02
030C4:  MOVWF  x0F
030C6:  MOVLB  0
030C8:  RCALL  2E90
.................... printf(lcd_putc, "      CASANDRA      "); 
030CA:  MOVLW  AA
030CC:  MOVWF  FF6
030CE:  MOVLW  11
030D0:  MOVWF  FF7
030D2:  RCALL  2F62
.................... lcd_gotoxy(1,3); 
030D4:  MOVLW  01
030D6:  MOVLB  2
030D8:  MOVWF  x0E
030DA:  MOVLW  03
030DC:  MOVWF  x0F
030DE:  MOVLB  0
030E0:  RCALL  2E90
.................... printf(lcd_putc, "    Iniciando....   "); 
030E2:  MOVLW  C0
030E4:  MOVWF  FF6
030E6:  MOVLW  11
030E8:  MOVWF  FF7
030EA:  RCALL  2F62
030EC:  CLRF   19
030EE:  BTFSC  FF2.7
030F0:  BSF    19.7
030F2:  BCF    FF2.7
.................... delay_ms(50); 
030F4:  MOVLW  32
030F6:  MOVLB  2
030F8:  MOVWF  x20
030FA:  MOVLB  0
030FC:  CALL   1386
03100:  BTFSC  19.7
03102:  BSF    FF2.7
....................  
.................... /////////////////////// Arrancamos el timer 1 para medir tiempos internos //////////// 
.................... setup_timer_1(T1_INTERNAL | T1_DIV_BY_8); 
03104:  MOVLW  B5
03106:  MOVWF  FCD
.................... set_timer1(0); 
03108:  CLRF   FCF
0310A:  CLRF   FCE
....................  
.................... ////// Conversor AD ////// 
.................... setup_adc(ADC_CLOCK_INTERNAL ); 
0310C:  MOVF   FC0,W
0310E:  ANDLW  C0
03110:  IORLW  07
03112:  MOVWF  FC0
03114:  BSF    FC0.7
03116:  BSF    FC2.0
.................... setup_adc_ports(AN0_TO_AN3); 
03118:  MOVF   FC1,W
0311A:  ANDLW  C0
0311C:  IORLW  0B
0311E:  MOVWF  FC1
....................  
.................... ////// Inicio de variables /////////// 
.................... Menu = 1;      // Posicion dentro del menu 0 
03120:  MOVLW  01
03122:  MOVWF  28
.................... Tiempo1=0; // Contador de tiempos internos larga en 0 
03124:  CLRF   48
.................... TempOut=20;    // Temperatura remota (afuera) 
03126:  MOVLW  14
03128:  MOVWF  43
.................... Sol=50;       // Intensidad del sol (remota, afuera) 
0312A:  MOVLW  32
0312C:  MOVWF  44
.................... Rebote = false;    // Teclado no presionado 
0312E:  BCF    35.0
....................  
.................... EstadoAl = read_eeprom(EstAlarma);  // Leo el estado de alarma 
03130:  MOVFF  FF2,1EC
03134:  BCF    FF2.7
03136:  CLRF   FAA
03138:  MOVLW  02
0313A:  MOVWF  FA9
0313C:  BCF    FA6.6
0313E:  BCF    FA6.7
03140:  BSF    FA6.0
03142:  MOVF   FA8,W
03144:  MOVLB  1
03146:  BTFSC  xEC.7
03148:  BSF    FF2.7
0314A:  MOVWF  45
.................... ConfCas = read_eeprom(EstCasandra); 
0314C:  MOVFF  FF2,1EC
03150:  BCF    FF2.7
03152:  CLRF   FAA
03154:  MOVLW  03
03156:  MOVWF  FA9
03158:  BCF    FA6.6
0315A:  BCF    FA6.7
0315C:  BSF    FA6.0
0315E:  MOVF   FA8,W
03160:  BTFSC  xEC.7
03162:  BSF    FF2.7
03164:  MOVWF  46
....................  
.................... TpoSilencioso = read_eeprom(TpoSil);  // Leo el tiempo silencioso 
03166:  MOVFF  FF2,1EC
0316A:  BCF    FF2.7
0316C:  CLRF   FAA
0316E:  MOVLW  04
03170:  MOVWF  FA9
03172:  BCF    FA6.6
03174:  BCF    FA6.7
03176:  BSF    FA6.0
03178:  MOVF   FA8,W
0317A:  BTFSC  xEC.7
0317C:  BSF    FF2.7
0317E:  MOVWF  xD7
.................... TpoSalida = read_eeprom(TpoSal);  // Leo el tiempo para salir 
03180:  MOVFF  FF2,1EC
03184:  BCF    FF2.7
03186:  CLRF   FAA
03188:  MOVLW  05
0318A:  MOVWF  FA9
0318C:  BCF    FA6.6
0318E:  BCF    FA6.7
03190:  BSF    FA6.0
03192:  MOVF   FA8,W
03194:  BTFSC  xEC.7
03196:  BSF    FF2.7
03198:  MOVWF  xD8
....................  
.................... Passwd[0] = read_eeprom(Password);  // Contrasea1 de ROM a RAM 
0319A:  MOVFF  FF2,1EC
0319E:  BCF    FF2.7
031A0:  CLRF   FAA
031A2:  MOVLW  06
031A4:  MOVWF  FA9
031A6:  BCF    FA6.6
031A8:  BCF    FA6.7
031AA:  BSF    FA6.0
031AC:  MOVF   FA8,W
031AE:  BTFSC  xEC.7
031B0:  BSF    FF2.7
031B2:  MOVWF  xD5
.................... Passwd[1] = read_eeprom(Password + 1);  // Contrasea2 de ROM a RAM 
031B4:  MOVFF  FF2,1EC
031B8:  BCF    FF2.7
031BA:  CLRF   FAA
031BC:  MOVLW  07
031BE:  MOVWF  FA9
031C0:  BCF    FA6.6
031C2:  BCF    FA6.7
031C4:  BSF    FA6.0
031C6:  MOVF   FA8,W
031C8:  BTFSC  xEC.7
031CA:  BSF    FF2.7
031CC:  MOVWF  xD6
....................  
.................... Gdias[1] = read_eeprom(G1Dias); 
031CE:  MOVFF  FF2,1EC
031D2:  BCF    FF2.7
031D4:  CLRF   FAA
031D6:  MOVLW  0C
031D8:  MOVWF  FA9
031DA:  BCF    FA6.6
031DC:  BCF    FA6.7
031DE:  BSF    FA6.0
031E0:  MOVF   FA8,W
031E2:  BTFSC  xEC.7
031E4:  BSF    FF2.7
031E6:  MOVWF  xE0
.................... Gdias[2] = read_eeprom(G2Dias); 
031E8:  MOVFF  FF2,1EC
031EC:  BCF    FF2.7
031EE:  CLRF   FAA
031F0:  MOVLW  0D
031F2:  MOVWF  FA9
031F4:  BCF    FA6.6
031F6:  BCF    FA6.7
031F8:  BSF    FA6.0
031FA:  MOVF   FA8,W
031FC:  BTFSC  xEC.7
031FE:  BSF    FF2.7
03200:  MOVWF  xE1
.................... GOn[1] = read_eeprom(G1On); 
03202:  MOVFF  FF2,1EC
03206:  BCF    FF2.7
03208:  CLRF   FAA
0320A:  MOVLW  08
0320C:  MOVWF  FA9
0320E:  BCF    FA6.6
03210:  BCF    FA6.7
03212:  BSF    FA6.0
03214:  MOVF   FA8,W
03216:  BTFSC  xEC.7
03218:  BSF    FF2.7
0321A:  MOVWF  xDA
.................... GOn[2] = read_eeprom(G2On); 
0321C:  MOVFF  FF2,1EC
03220:  BCF    FF2.7
03222:  CLRF   FAA
03224:  MOVLW  09
03226:  MOVWF  FA9
03228:  BCF    FA6.6
0322A:  BCF    FA6.7
0322C:  BSF    FA6.0
0322E:  MOVF   FA8,W
03230:  BTFSC  xEC.7
03232:  BSF    FF2.7
03234:  MOVWF  xDB
.................... GOff[1] = read_eeprom(G1Off); 
03236:  MOVFF  FF2,1EC
0323A:  BCF    FF2.7
0323C:  CLRF   FAA
0323E:  MOVLW  0A
03240:  MOVWF  FA9
03242:  BCF    FA6.6
03244:  BCF    FA6.7
03246:  BSF    FA6.0
03248:  MOVF   FA8,W
0324A:  BTFSC  xEC.7
0324C:  BSF    FF2.7
0324E:  MOVWF  xDD
.................... GOff[2] = read_eeprom(G2Off); 
03250:  MOVFF  FF2,1EC
03254:  BCF    FF2.7
03256:  CLRF   FAA
03258:  MOVLW  0B
0325A:  MOVWF  FA9
0325C:  BCF    FA6.6
0325E:  BCF    FA6.7
03260:  BSF    FA6.0
03262:  MOVF   FA8,W
03264:  BTFSC  xEC.7
03266:  BSF    FF2.7
03268:  MOVWF  xDE
.................... Umbral = read_eeprom(Umbra); 
0326A:  MOVFF  FF2,1EC
0326E:  BCF    FF2.7
03270:  CLRF   FAA
03272:  MOVLW  0E
03274:  MOVWF  FA9
03276:  BCF    FA6.6
03278:  BCF    FA6.7
0327A:  BSF    FA6.0
0327C:  MOVF   FA8,W
0327E:  BTFSC  xEC.7
03280:  BSF    FF2.7
03282:  MOVWF  47
....................  
....................  
.................... //Passwd[0] = 0; 
.................... //Passwd[1] = 0; 
.................... //ds1307_set_date_time(1,1,1,1,0,0,0);  // Inicio de valores para el DS1307 
....................  
.................... restart_wdt(); 
03284:  CLRWDT
....................  
.................... ////////////// Recuperamos intensidades de EEPROM ///////////////// 
.................... int aux1; 
.................... for (aux1=32;aux1<94;aux1++){ // llena todo desde el 32 al 94  
03286:  MOVLW  20
03288:  MOVWF  xEB
0328A:  MOVF   xEB,W
0328C:  SUBLW  5D
0328E:  BTFSS  FD8.0
03290:  BRA    33E6
.................... IntLuz[aux1] = read_eeprom(aux1); 
03292:  CLRF   03
03294:  MOVF   xEB,W
03296:  ADDLW  49
03298:  MOVWF  FE9
0329A:  MOVLW  00
0329C:  ADDWFC 03,W
0329E:  MOVWF  FEA
032A0:  MOVFF  FF2,1EE
032A4:  BCF    FF2.7
032A6:  CLRF   FAA
032A8:  MOVFF  1EB,FA9
032AC:  BCF    FA6.6
032AE:  BCF    FA6.7
032B0:  BSF    FA6.0
032B2:  MOVF   FA8,W
032B4:  BTFSC  xEE.7
032B6:  BSF    FF2.7
032B8:  MOVWF  FEF
032BA:  CLRF   19
032BC:  BTFSC  FF2.7
032BE:  BSF    19.7
032C0:  BCF    FF2.7
.................... //IntLuz[aux1] = 15; 
.................... delay_ms(5); 
032C2:  MOVLW  05
032C4:  MOVLB  2
032C6:  MOVWF  x20
032C8:  MOVLB  0
032CA:  CALL   1386
032CE:  BTFSC  19.7
032D0:  BSF    FF2.7
.................... if (IntLuz[aux1] > 80) { // La luz estaba encendida 
032D2:  CLRF   03
032D4:  MOVLB  1
032D6:  MOVF   xEB,W
032D8:  ADDLW  49
032DA:  MOVWF  FE9
032DC:  MOVLW  00
032DE:  ADDWFC 03,W
032E0:  MOVWF  FEA
032E2:  MOVF   FEF,W
032E4:  SUBLW  50
032E6:  BC    3386
.................... printf("%c%c%c%c", 250, aux1, (IntLuz[aux1]-100), aux1+(IntLuz[aux1]-100)); // Le cargo la intensidad 
032E8:  CLRF   03
032EA:  MOVF   xEB,W
032EC:  ADDLW  49
032EE:  MOVWF  FE9
032F0:  MOVLW  00
032F2:  ADDWFC 03,W
032F4:  MOVWF  FEA
032F6:  MOVLW  64
032F8:  SUBWF  FEF,W
032FA:  MOVWF  xEC
032FC:  CLRF   03
032FE:  MOVF   xEB,W
03300:  ADDLW  49
03302:  MOVWF  FE9
03304:  MOVLW  00
03306:  ADDWFC 03,W
03308:  MOVWF  FEA
0330A:  MOVLW  64
0330C:  SUBWF  FEF,W
0330E:  ADDWF  xEB,W
03310:  MOVWF  xED
03312:  MOVLW  FA
03314:  MOVWF  xFB
03316:  MOVLB  0
03318:  RCALL  2F82
0331A:  MOVFF  1EB,1FB
0331E:  RCALL  2F82
03320:  MOVFF  1EC,1FB
03324:  RCALL  2F82
03326:  MOVFF  1ED,1FB
0332A:  RCALL  2F82
0332C:  CLRF   19
0332E:  BTFSC  FF2.7
03330:  BSF    19.7
03332:  BCF    FF2.7
.................... delay_ms(5); 
03334:  MOVLW  05
03336:  MOVLB  2
03338:  MOVWF  x20
0333A:  MOVLB  0
0333C:  CALL   1386
03340:  BTFSC  19.7
03342:  BSF    FF2.7
.................... printf("%c%c%c%c", 250, aux1, 90, aux1+90); // La enciendo 
03344:  MOVLW  5A
03346:  MOVLB  1
03348:  ADDWF  xEB,W
0334A:  MOVWF  xEC
0334C:  MOVLW  FA
0334E:  MOVWF  xFB
03350:  MOVLB  0
03352:  RCALL  2F82
03354:  MOVFF  1EB,1FB
03358:  RCALL  2F82
0335A:  MOVLW  5A
0335C:  MOVLB  1
0335E:  MOVWF  xFB
03360:  MOVLB  0
03362:  RCALL  2F82
03364:  MOVFF  1EC,1FB
03368:  RCALL  2F82
0336A:  CLRF   19
0336C:  BTFSC  FF2.7
0336E:  BSF    19.7
03370:  BCF    FF2.7
.................... delay_ms(5); 
03372:  MOVLW  05
03374:  MOVLB  2
03376:  MOVWF  x20
03378:  MOVLB  0
0337A:  CALL   1386
0337E:  BTFSC  19.7
03380:  BSF    FF2.7
.................... } else{ // La luz estaba apagada 
03382:  BRA    33DE
03384:  MOVLB  1
.................... printf("%c%c%c%c", 250, aux1, (IntLuz[aux1]), aux1+(IntLuz[aux1])); // Le cargo la intensidad 
03386:  CLRF   03
03388:  MOVF   xEB,W
0338A:  ADDLW  49
0338C:  MOVWF  FE9
0338E:  MOVLW  00
03390:  ADDWFC 03,W
03392:  MOVWF  FEA
03394:  MOVFF  FEF,1EC
03398:  CLRF   03
0339A:  MOVF   xEB,W
0339C:  ADDLW  49
0339E:  MOVWF  FE9
033A0:  MOVLW  00
033A2:  ADDWFC 03,W
033A4:  MOVWF  FEA
033A6:  MOVF   FEF,W
033A8:  ADDWF  xEB,W
033AA:  MOVWF  xED
033AC:  MOVLW  FA
033AE:  MOVWF  xFB
033B0:  MOVLB  0
033B2:  RCALL  2F82
033B4:  MOVFF  1EB,1FB
033B8:  RCALL  2F82
033BA:  MOVFF  1EC,1FB
033BE:  RCALL  2F82
033C0:  MOVFF  1ED,1FB
033C4:  RCALL  2F82
033C6:  CLRF   19
033C8:  BTFSC  FF2.7
033CA:  BSF    19.7
033CC:  BCF    FF2.7
.................... delay_ms(5); 
033CE:  MOVLW  05
033D0:  MOVLB  2
033D2:  MOVWF  x20
033D4:  MOVLB  0
033D6:  CALL   1386
033DA:  BTFSC  19.7
033DC:  BSF    FF2.7
.................... } 
.................... restart_wdt(); 
033DE:  CLRWDT
033E0:  MOVLB  1
033E2:  INCF   xEB,F
033E4:  BRA    328A
.................... } 
....................  
.................... Defini(); 
033E6:  MOVLB  0
033E8:  BRA    2FA2
....................  
.................... LIMPIARLCD; // Limpiamos la pantalla 
033EA:  MOVLW  D6
033EC:  MOVWF  FF6
033EE:  MOVLW  11
033F0:  MOVWF  FF7
033F2:  RCALL  2F62
033F4:  GOTO   B96E (RETURN)
....................  
.................... /*while(1){  ///////////////////// Impresion de caracteres 
.................... int kkk; 
....................  
.................... for(kkk=0;kkk<255;++kkk){ 
....................    lcd_gotoxy(1,1); 
....................    printf(lcd_putc, "(%03u)%c (%03u)%c (%03u)%c",kkk,kkk,kkk+1,kkk+1,kkk+2,kkk+2); 
....................    lcd_gotoxy(1,2); 
....................    printf(lcd_putc, "(%03u)%c (%03u)%c (%03u)%c",kkk+3,kkk+3,kkk+4,kkk+4,kkk+5,kkk+5); 
....................    lcd_gotoxy(1,3); 
....................    printf(lcd_putc, "(%03u)%c (%03u)%c (%03u)%c",kkk+6,kkk+6,kkk+7,kkk+7,kkk+8,kkk+8); 
....................    lcd_gotoxy(1,4); 
....................    printf(lcd_putc, "(%03u)%c (%03u)%c (%03u)%c",kkk+9,kkk+9,kkk+10,kkk+10,kkk+11,kkk+11); 
.................... delay_ms(2000); 
.................... } 
.................... */ 
.................... } 
....................  
....................  
.................... void DHT11_init() 
.................... { 
.................... output_float(DHT11_pin); 
*
02B30:  BSF    F93.5
.................... delay_ms(1000); 
02B32:  MOVLW  04
02B34:  MOVLB  1
02B36:  MOVWF  xEC
02B38:  CLRF   19
02B3A:  BTFSC  FF2.7
02B3C:  BSF    19.7
02B3E:  BCF    FF2.7
02B40:  MOVLW  FA
02B42:  MOVLB  2
02B44:  MOVWF  x20
02B46:  MOVLB  0
02B48:  CALL   1386
02B4C:  BTFSC  19.7
02B4E:  BSF    FF2.7
02B50:  MOVLB  1
02B52:  DECFSZ xEC,F
02B54:  BRA    2B38
02B56:  MOVLB  0
02B58:  GOTO   30AE (RETURN)
.................... } 
....................  
.................... unsigned char get_byte() 
*
01ADC:  MOVLB  2
01ADE:  CLRF   x22
01AE0:  CLRF   x23
.................... { 
.................... unsigned char s=0; 
.................... unsigned char value=0; 
....................  
.................... for(s=0;s<8;s+=1) 
01AE2:  CLRF   x22
01AE4:  MOVF   x22,W
01AE6:  SUBLW  07
01AE8:  BNC   1B12
.................... { 
.................... value<<=1; 
01AEA:  BCF    FD8.0
01AEC:  RLCF   x23,F
.................... while(!input(DHT11_pin)); 
01AEE:  BSF    F93.5
01AF0:  BTFSS  F81.5
01AF2:  BRA    1AEE
.................... delay_us(30); 
01AF4:  MOVLW  09
01AF6:  MOVWF  00
01AF8:  DECFSZ 00,F
01AFA:  BRA    1AF8
01AFC:  BRA    1AFE
....................  
.................... if(input(DHT11_pin)) 
01AFE:  BSF    F93.5
01B00:  BTFSS  F81.5
01B02:  BRA    1B06
.................... { 
.................... value|=1; 
01B04:  BSF    x23.0
.................... } 
.................... while(input(DHT11_pin)); 
01B06:  BSF    F93.5
01B08:  BTFSC  F81.5
01B0A:  BRA    1B06
01B0C:  MOVLW  01
01B0E:  ADDWF  x22,F
01B10:  BRA    1AE4
.................... } 
.................... return value; 
01B12:  MOVFF  223,01
01B16:  MOVLB  0
01B18:  GOTO   1B9C (RETURN)
.................... } 
....................  
.................... unsigned char get_data() 
01B1C:  MOVLB  2
01B1E:  BCF    x1D.0
01B20:  CLRF   x1E
01B22:  CLRF   x1F
.................... { 
.................... short chk=0; 
.................... unsigned char s=0; 
.................... unsigned char check_sum=0; 
....................  
.................... output_high(DHT11_pin); 
01B24:  BCF    F93.5
01B26:  BSF    F8A.5
.................... output_low(DHT11_pin); 
01B28:  BCF    F93.5
01B2A:  BCF    F8A.5
.................... delay_ms(18); 
01B2C:  MOVLW  12
01B2E:  MOVWF  x20
01B30:  MOVLB  0
01B32:  RCALL  1386
.................... output_high(DHT11_pin); 
01B34:  BCF    F93.5
01B36:  BSF    F8A.5
.................... delay_us(26); 
01B38:  MOVLW  08
01B3A:  MOVWF  00
01B3C:  DECFSZ 00,F
01B3E:  BRA    1B3C
01B40:  NOP   
....................  
.................... chk=input(DHT11_pin); 
01B42:  BSF    F93.5
01B44:  MOVLB  2
01B46:  BCF    x1D.0
01B48:  BTFSC  F81.5
01B4A:  BSF    x1D.0
.................... if(chk) 
01B4C:  BTFSS  x1D.0
01B4E:  BRA    1B56
.................... { 
.................... return 1; 
01B50:  MOVLW  01
01B52:  MOVWF  01
01B54:  BRA    1BE6
.................... } 
.................... delay_us(80); 
01B56:  MOVLW  1A
01B58:  MOVWF  00
01B5A:  DECFSZ 00,F
01B5C:  BRA    1B5A
01B5E:  NOP   
....................  
.................... chk=input(DHT11_pin); 
01B60:  BSF    F93.5
01B62:  BCF    x1D.0
01B64:  BTFSC  F81.5
01B66:  BSF    x1D.0
.................... if(!chk) 
01B68:  BTFSC  x1D.0
01B6A:  BRA    1B72
.................... { 
.................... return 2; 
01B6C:  MOVLW  02
01B6E:  MOVWF  01
01B70:  BRA    1BE6
.................... } 
.................... delay_us(80); 
01B72:  MOVLW  1A
01B74:  MOVWF  00
01B76:  DECFSZ 00,F
01B78:  BRA    1B76
01B7A:  NOP   
....................  
.................... for(s=0;s<=4;s+=1) 
01B7C:  CLRF   x1E
01B7E:  MOVF   x1E,W
01B80:  SUBLW  04
01B82:  BNC   1BB0
.................... { 
.................... values[s]=get_byte(); 
01B84:  CLRF   03
01B86:  MOVF   x1E,W
01B88:  ADDLW  1B
01B8A:  MOVWF  01
01B8C:  MOVLW  00
01B8E:  ADDWFC 03,F
01B90:  MOVFF  01,220
01B94:  MOVFF  03,221
01B98:  MOVLB  0
01B9A:  BRA    1ADC
01B9C:  MOVFF  221,FEA
01BA0:  MOVFF  220,FE9
01BA4:  MOVFF  01,FEF
01BA8:  MOVLW  01
01BAA:  MOVLB  2
01BAC:  ADDWF  x1E,F
01BAE:  BRA    1B7E
.................... } 
....................  
.................... output_high(DHT11_pin); 
01BB0:  BCF    F93.5
01BB2:  BSF    F8A.5
....................  
.................... for(s=0;s<4;s+=1) 
01BB4:  CLRF   x1E
01BB6:  MOVF   x1E,W
01BB8:  SUBLW  03
01BBA:  BNC   1BD4
.................... { 
.................... check_sum+=values[s]; 
01BBC:  CLRF   03
01BBE:  MOVF   x1E,W
01BC0:  ADDLW  1B
01BC2:  MOVWF  FE9
01BC4:  MOVLW  00
01BC6:  ADDWFC 03,W
01BC8:  MOVWF  FEA
01BCA:  MOVF   FEF,W
01BCC:  ADDWF  x1F,F
01BCE:  MOVLW  01
01BD0:  ADDWF  x1E,F
01BD2:  BRA    1BB6
.................... } 
....................  
.................... if(check_sum!=values[4]) 
01BD4:  MOVF   1F,W
01BD6:  SUBWF  x1F,W
01BD8:  BZ    1BE2
.................... { 
.................... return 3; 
01BDA:  MOVLW  03
01BDC:  MOVWF  01
01BDE:  BRA    1BE6
.................... } 
01BE0:  BRA    1BE6
.................... else 
.................... { 
.................... return 0; 
01BE2:  MOVLW  00
01BE4:  MOVWF  01
.................... } 
01BE6:  MOVLB  0
01BE8:  GOTO   1BF0 (RETURN)
.................... } 
....................  
....................  
.................... ////////////////////////// INTERRUPCIONES ////////////////////////////// 
.................... #int_RDA 
.................... void RDA_isr(){ 
.................... if (kbhit()){ 
*
0126E:  BTFSS  F9E.5
01270:  BRA    12B8
.................... Comando[i]=getc(); 
01272:  CLRF   03
01274:  MOVF   3A,W
01276:  ADDLW  36
01278:  MOVWF  FE9
0127A:  MOVLW  00
0127C:  ADDWFC 03,W
0127E:  MOVWF  FEA
01280:  MOVFF  FEA,21A
01284:  MOVFF  FE9,219
01288:  BRA    11D8
0128A:  MOVFF  21A,FEA
0128E:  MOVFF  219,FE9
01292:  MOVFF  01,FEF
.................... if (Comando[i] == 250) i=0; 
01296:  CLRF   03
01298:  MOVF   3A,W
0129A:  ADDLW  36
0129C:  MOVWF  FE9
0129E:  MOVLW  00
012A0:  ADDWFC 03,W
012A2:  MOVWF  FEA
012A4:  MOVF   FEF,W
012A6:  SUBLW  FA
012A8:  BNZ   12AE
012AA:  CLRF   3A
012AC:  BRA    12B0
.................... else ++i; 
012AE:  INCF   3A,F
.................... if (i==3) Comunica(); 
012B0:  MOVF   3A,W
012B2:  SUBLW  03
012B4:  BTFSC  FD8.2
012B6:  BRA    121C
.................... } 
.................... } 
....................  
012B8:  BCF    F9E.5
012BA:  GOTO   006C
.................... #int_TIMER1 
.................... void  TIMER1_isr(void) { //Funcin de interrupcin por desbordamiento TMR1   
.................... set_timer1(0); //carga del TMR1 
*
01FA0:  CLRF   FCF
01FA2:  CLRF   FCE
.................... restart_wdt(); 
01FA4:  CLRWDT
.................... Tiempo(); // Tomo el tiempo 
01FA6:  GOTO   13B0
.................... DosVeinte(); // Tomo los valores del ADC 
01FAA:  BRA    197A
.................... if ((bit_test(tiempo1,0) == 0) && (bit_test(tiempo1,3) == 0)) Ambiente(); // Tomo las variables ambientales (incluidas las remotas con cuidado de no saturar el bus) 
01FAC:  BTFSC  48.0
01FAE:  BRA    1FB4
01FB0:  BTFSS  48.3
01FB2:  BRA    1BEC
.................... ++Tiempo1; 
01FB4:  INCF   48,F
01FB6:  BCF    F9E.0
01FB8:  GOTO   006C
.................... } 
....................  
.................... void Comunica(){ 
.................... restart_wdt(); 
*
0121C:  CLRWDT
.................... i=0; 
0121E:  CLRF   3A
.................... if (( (Comando[0]) + (Comando[1]) ) == Comando[2]){ // Prueba de checksum 
01220:  MOVF   37,W
01222:  ADDWF  36,W
01224:  SUBWF  38,W
01226:  BNZ   126A
....................  
.................... if (Comando[0] == 165) Sol = Comando[1]; 
01228:  MOVF   36,W
0122A:  SUBLW  A5
0122C:  BTFSC  FD8.2
0122E:  MOVFF  37,44
.................... if (Comando[0] == 163) Vbata = Comando[1]; 
01232:  MOVF   36,W
01234:  SUBLW  A3
01236:  BTFSC  FD8.2
01238:  MOVFF  37,1E2
.................... if (Comando[0] == 160) TempOut = ((Comando[1]-10)/5); 
0123C:  MOVF   36,W
0123E:  SUBLW  A0
01240:  BNZ   1258
01242:  MOVLW  0A
01244:  SUBWF  37,W
01246:  MOVLB  2
01248:  MOVWF  x18
0124A:  MOVWF  x19
0124C:  MOVLW  05
0124E:  MOVWF  x1A
01250:  MOVLB  0
01252:  RCALL  11F0
01254:  MOVFF  01,43
....................  
.................... //////////////////////////////// 
.................... //int IntLuz[99];    // Arreglo que guarda los niveles de intensidad de cada luz 
.................... //if (((Comando[0])-RESTA) < 13) {  // Solo Luces individuales 
.................... //LEDON; 
....................       IntLuz[Comando[0]] = Comando[1]; 
01258:  CLRF   03
0125A:  MOVF   36,W
0125C:  ADDLW  49
0125E:  MOVWF  FE9
01260:  MOVLW  00
01262:  ADDWFC 03,W
01264:  MOVWF  FEA
01266:  MOVFF  37,FEF
.................... //}// If 
.................... //////////////////////////////// 
.................... } // if checksum 
0126A:  GOTO   12B8 (RETURN)
.................... } //fn 
....................  
....................  
.................... void Teclado(){ 
....................  
.................... restart_wdt(); 
*
04BF2:  CLRWDT
.................... if (input(ARRIBA)==1 && input(ABAJO)==1 && input(OOKK)==1 && input(CANCEL)==1) Rebote = false; // Soltamos las teclas 
04BF4:  BSF    F93.0
04BF6:  BTFSS  F81.0
04BF8:  BRA    4C0E
04BFA:  BSF    F93.1
04BFC:  BTFSS  F81.1
04BFE:  BRA    4C0E
04C00:  BSF    F93.2
04C02:  BTFSS  F81.2
04C04:  BRA    4C0E
04C06:  BSF    F93.3
04C08:  BTFSS  F81.3
04C0A:  BRA    4C0E
04C0C:  BCF    35.0
....................  
.................... if (Rebote == false){ // Tomamos el comando ya que el antirebote nos dice que esta ok 
04C0E:  BTFSC  35.0
04C10:  BRA    502A
....................  
.................... switch (Menu){ 
04C12:  MOVF   28,W
04C14:  ADDLW  BE
04C16:  BTFSC  FD8.0
04C18:  BRA    502A
04C1A:  ADDLW  42
04C1C:  GOTO   502E
....................  
.................... ////////////////////////////// Comienza Menu basico /////////////////////////// 
....................    case 0: 
....................    if (input(ARRIBA)==0 || input(ABAJO)==0 || input(OOKK)==0 || input(CANCEL)==0){ 
04C20:  BSF    F93.0
04C22:  BTFSS  F81.0
04C24:  BRA    4C38
04C26:  BSF    F93.1
04C28:  BTFSS  F81.1
04C2A:  BRA    4C38
04C2C:  BSF    F93.2
04C2E:  BTFSS  F81.2
04C30:  BRA    4C38
04C32:  BSF    F93.3
04C34:  BTFSC  F81.3
04C36:  BRA    4C44
....................    Holding(); 
04C38:  GOTO   33F8
....................    Rebote = True; 
04C3C:  BSF    35.0
....................    Menu = 1; 
04C3E:  MOVLW  01
04C40:  MOVWF  28
....................    } else Notificador(); 
04C42:  BRA    4C48
04C44:  GOTO   3456
....................    break; 
04C48:  BRA    502A
....................     
....................    case 1:  // Resumen ppal 
....................    if (input(OOKK)==0){ 
04C4A:  BSF    F93.2
04C4C:  BTFSC  F81.2
04C4E:  BRA    4C56
....................    Rebote = True; 
04C50:  BSF    35.0
....................    Menu = 2; 
04C52:  MOVLW  02
04C54:  MOVWF  28
....................    } 
....................    if (input(CANCEL)==0){ 
04C56:  BSF    F93.3
04C58:  BTFSC  F81.3
04C5A:  BRA    4C60
....................    Menu = 0; 
04C5C:  CLRF   28
....................    Rebote = True; 
04C5E:  BSF    35.0
....................    } 
....................    if (input(ARRIBA)==0){ 
04C60:  BSF    F93.0
04C62:  BTFSC  F81.0
04C64:  BRA    4C6C
....................    Rebote = True; 
04C66:  BSF    35.0
....................    VerTemp(); 
04C68:  GOTO   372E
....................    } 
....................    if (input(ABAJO)==0){ 
04C6C:  BSF    F93.1
04C6E:  BTFSC  F81.1
04C70:  BRA    4C78
....................    Rebote = True; 
04C72:  BSF    35.0
....................    VerTens(); 
04C74:  GOTO   3DE0
....................    } 
....................    break; 
04C78:  BRA    502A
....................     
....................    case 2:  // Menu - Activar alarma 
....................    if (input(ARRIBA)==0){ 
04C7A:  BSF    F93.0
04C7C:  BTFSC  F81.0
04C7E:  BRA    4C80
....................    } 
....................    if (input(ABAJO)==0){ 
04C80:  BSF    F93.1
04C82:  BTFSC  F81.1
04C84:  BRA    4C8C
....................    Rebote = True; 
04C86:  BSF    35.0
....................    Menu = 3; 
04C88:  MOVLW  03
04C8A:  MOVWF  28
....................    } 
....................    if (input(OOKK)==0){ 
04C8C:  BSF    F93.2
04C8E:  BTFSC  F81.2
04C90:  BRA    4C98
....................    Rebote = True; 
04C92:  BSF    35.0
....................    Menu = 21; 
04C94:  MOVLW  15
04C96:  MOVWF  28
....................    } 
....................    if (input(CANCEL)==0){ 
04C98:  BSF    F93.3
04C9A:  BTFSC  F81.3
04C9C:  BRA    4CA4
....................    Rebote = True; 
04C9E:  BSF    35.0
....................    Menu = 1; 
04CA0:  MOVLW  01
04CA2:  MOVWF  28
....................    } 
....................    break; 
04CA4:  BRA    502A
....................     
....................    case 3: // Menu - Luces 
....................    if (input(ARRIBA)==0){ 
04CA6:  BSF    F93.0
04CA8:  BTFSC  F81.0
04CAA:  BRA    4CB2
....................    Rebote = True; 
04CAC:  BSF    35.0
....................    Menu = 2; 
04CAE:  MOVLW  02
04CB0:  MOVWF  28
....................    } 
....................    if (input(ABAJO)==0){ 
04CB2:  BSF    F93.1
04CB4:  BTFSC  F81.1
04CB6:  BRA    4CBE
....................    Rebote = True; 
04CB8:  BSF    35.0
....................    Menu = 4; 
04CBA:  MOVLW  04
04CBC:  MOVWF  28
....................    } 
....................    if (input(OOKK)==0){ 
04CBE:  BSF    F93.2
04CC0:  BTFSC  F81.2
04CC2:  BRA    4CCA
....................    Rebote = True; 
04CC4:  BSF    35.0
....................    Menu = 31; 
04CC6:  MOVLW  1F
04CC8:  MOVWF  28
....................    } 
....................    if (input(CANCEL)==0){ 
04CCA:  BSF    F93.3
04CCC:  BTFSC  F81.3
04CCE:  BRA    4CD6
....................    Rebote = True; 
04CD0:  BSF    35.0
....................    Menu = 1; 
04CD2:  MOVLW  01
04CD4:  MOVWF  28
....................    } 
....................    break; 
04CD6:  BRA    502A
....................     
....................    case 4: // Menu - Casandra 
....................    if (input(ARRIBA)==0){ 
04CD8:  BSF    F93.0
04CDA:  BTFSC  F81.0
04CDC:  BRA    4CE4
....................    Rebote = True; 
04CDE:  BSF    35.0
....................    Menu = 3; 
04CE0:  MOVLW  03
04CE2:  MOVWF  28
....................    } 
....................    if (input(ABAJO)==0){ 
04CE4:  BSF    F93.1
04CE6:  BTFSC  F81.1
04CE8:  BRA    4CF0
....................    Rebote = True; 
04CEA:  BSF    35.0
....................    Menu = 5; 
04CEC:  MOVLW  05
04CEE:  MOVWF  28
....................    } 
....................    if (input(OOKK)==0){ 
04CF0:  BSF    F93.2
04CF2:  BTFSC  F81.2
04CF4:  BRA    4CFC
....................    Rebote = True; 
04CF6:  BSF    35.0
....................    Menu = 41; 
04CF8:  MOVLW  29
04CFA:  MOVWF  28
....................    } 
....................    if (input(CANCEL)==0){ 
04CFC:  BSF    F93.3
04CFE:  BTFSC  F81.3
04D00:  BRA    4D08
....................    Rebote = True; 
04D02:  BSF    35.0
....................    Menu = 1; 
04D04:  MOVLW  01
04D06:  MOVWF  28
....................    } 
....................    break; 
04D08:  BRA    502A
....................     
....................    case 5: // Menu - Grupo automatico 
....................    if (input(ARRIBA)==0){ 
04D0A:  BSF    F93.0
04D0C:  BTFSC  F81.0
04D0E:  BRA    4D16
....................    Rebote = True; 
04D10:  BSF    35.0
....................    Menu = 4; 
04D12:  MOVLW  04
04D14:  MOVWF  28
....................    } 
....................    if (input(ABAJO)==0){ 
04D16:  BSF    F93.1
04D18:  BTFSC  F81.1
04D1A:  BRA    4D22
....................    Rebote = True; 
04D1C:  BSF    35.0
....................    Menu = 6; 
04D1E:  MOVLW  06
04D20:  MOVWF  28
....................    } 
....................    if (input(OOKK)==0){ 
04D22:  BSF    F93.2
04D24:  BTFSC  F81.2
04D26:  BRA    4D2E
....................    Rebote = True; 
04D28:  BSF    35.0
....................    Menu = 51; 
04D2A:  MOVLW  33
04D2C:  MOVWF  28
....................    } 
....................    if (input(CANCEL)==0){ 
04D2E:  BSF    F93.3
04D30:  BTFSC  F81.3
04D32:  BRA    4D3A
....................    Rebote = True; 
04D34:  BSF    35.0
....................    Menu = 1; 
04D36:  MOVLW  01
04D38:  MOVWF  28
....................    } 
....................    break; 
04D3A:  BRA    502A
....................     
....................    case 6: // Menu - Luces 
....................    if (input(ARRIBA)==0){ 
04D3C:  BSF    F93.0
04D3E:  BTFSC  F81.0
04D40:  BRA    4D48
....................    Rebote = True; 
04D42:  BSF    35.0
....................    Menu = 5; 
04D44:  MOVLW  05
04D46:  MOVWF  28
....................    } 
....................    if (input(ABAJO)==0){ 
04D48:  BSF    F93.1
04D4A:  BTFSC  F81.1
04D4C:  BRA    4D4E
....................    } 
....................    if (input(OOKK)==0){ 
04D4E:  BSF    F93.2
04D50:  BTFSC  F81.2
04D52:  BRA    4D5A
....................    Rebote = True; 
04D54:  BSF    35.0
....................    Menu = 61; 
04D56:  MOVLW  3D
04D58:  MOVWF  28
....................    } 
....................    if (input(CANCEL)==0){ 
04D5A:  BSF    F93.3
04D5C:  BTFSC  F81.3
04D5E:  BRA    4D66
....................    Rebote = True; 
04D60:  BSF    35.0
....................    Menu = 1; 
04D62:  MOVLW  01
04D64:  MOVWF  28
....................    } 
....................    break; 
04D66:  BRA    502A
....................     
....................  
....................  
.................... ///////////////////////////////////////////// Comienza menu alarma ///////// 
....................  
....................    case 21: // Menu - ALARMA Total 
....................    if (input(ARRIBA)==0){ 
04D68:  BSF    F93.0
04D6A:  BTFSC  F81.0
04D6C:  BRA    4D6E
....................    } 
....................    if (input(ABAJO)==0){ 
04D6E:  BSF    F93.1
04D70:  BTFSC  F81.1
04D72:  BRA    4D7A
....................    Rebote = True; 
04D74:  BSF    35.0
....................    Menu = 22; 
04D76:  MOVLW  16
04D78:  MOVWF  28
....................    } 
....................    if (input(OOKK)==0){ 
04D7A:  BSF    F93.2
04D7C:  BTFSC  F81.2
04D7E:  BRA    4D86
....................    Rebote = True; 
04D80:  BSF    35.0
....................    Menu = 121; 
04D82:  MOVLW  79
04D84:  MOVWF  28
....................    } 
....................    if (input(CANCEL)==0){ 
04D86:  BSF    F93.3
04D88:  BTFSC  F81.3
04D8A:  BRA    4D92
....................    Rebote = True; 
04D8C:  BSF    35.0
....................    Menu = 2; 
04D8E:  MOVLW  02
04D90:  MOVWF  28
....................    } 
....................    break; 
04D92:  BRA    502A
....................     
....................    case 22: // Menu - Alarma noche suave 
....................    if (input(ARRIBA)==0){ 
04D94:  BSF    F93.0
04D96:  BTFSC  F81.0
04D98:  BRA    4DA0
....................    Rebote = True; 
04D9A:  BSF    35.0
....................    Menu = 21; 
04D9C:  MOVLW  15
04D9E:  MOVWF  28
....................    } 
....................    if (input(ABAJO)==0){ 
04DA0:  BSF    F93.1
04DA2:  BTFSC  F81.1
04DA4:  BRA    4DAC
....................    Rebote = True; 
04DA6:  BSF    35.0
....................    Menu = 23; 
04DA8:  MOVLW  17
04DAA:  MOVWF  28
....................    } 
....................    if (input(OOKK)==0){ 
04DAC:  BSF    F93.2
04DAE:  BTFSC  F81.2
04DB0:  BRA    4DB8
....................    Rebote = True; 
04DB2:  BSF    35.0
....................    Menu = 122; 
04DB4:  MOVLW  7A
04DB6:  MOVWF  28
....................    } 
....................    if (input(CANCEL)==0){ 
04DB8:  BSF    F93.3
04DBA:  BTFSC  F81.3
04DBC:  BRA    4DC4
....................    Rebote = True; 
04DBE:  BSF    35.0
....................    Menu = 2; 
04DC0:  MOVLW  02
04DC2:  MOVWF  28
....................    } 
....................    break; 
04DC4:  BRA    502A
....................     
....................    case 23: // Menu - Alarma noche dura 
....................    if (input(ARRIBA)==0){ 
04DC6:  BSF    F93.0
04DC8:  BTFSC  F81.0
04DCA:  BRA    4DD2
....................    Rebote = True; 
04DCC:  BSF    35.0
....................    Menu = 22; 
04DCE:  MOVLW  16
04DD0:  MOVWF  28
....................    } 
....................    if (input(ABAJO)==0){ 
04DD2:  BSF    F93.1
04DD4:  BTFSC  F81.1
04DD6:  BRA    4DDE
....................    Rebote = True; 
04DD8:  BSF    35.0
....................    Menu = 24; 
04DDA:  MOVLW  18
04DDC:  MOVWF  28
....................    } 
....................    if (input(OOKK)==0){ 
04DDE:  BSF    F93.2
04DE0:  BTFSC  F81.2
04DE2:  BRA    4DEA
....................    Rebote = True; 
04DE4:  BSF    35.0
....................    Menu = 123; 
04DE6:  MOVLW  7B
04DE8:  MOVWF  28
....................    } 
....................    if (input(CANCEL)==0){ 
04DEA:  BSF    F93.3
04DEC:  BTFSC  F81.3
04DEE:  BRA    4DF6
....................    Rebote = True; 
04DF0:  BSF    35.0
....................    Menu = 2; 
04DF2:  MOVLW  02
04DF4:  MOVWF  28
....................    } 
....................    break; 
04DF6:  BRA    502A
....................     
....................    case 24: // Menu - Alarma conf 
....................    if (input(ARRIBA)==0){ 
04DF8:  BSF    F93.0
04DFA:  BTFSC  F81.0
04DFC:  BRA    4E04
....................    Rebote = True; 
04DFE:  BSF    35.0
....................    Menu = 23; 
04E00:  MOVLW  17
04E02:  MOVWF  28
....................    } 
....................    if (input(ABAJO)==0){ 
04E04:  BSF    F93.1
04E06:  BTFSC  F81.1
04E08:  BRA    4E0A
....................    } 
....................    if (input(OOKK)==0){ 
04E0A:  BSF    F93.2
04E0C:  BTFSC  F81.2
04E0E:  BRA    4E16
....................    Rebote = True; 
04E10:  BSF    35.0
....................    Menu = 124; 
04E12:  MOVLW  7C
04E14:  MOVWF  28
....................    } 
....................    if (input(CANCEL)==0){ 
04E16:  BSF    F93.3
04E18:  BTFSC  F81.3
04E1A:  BRA    4E22
....................    Rebote = True; 
04E1C:  BSF    35.0
....................    Menu = 2; 
04E1E:  MOVLW  02
04E20:  MOVWF  28
....................    } 
....................    break; 
04E22:  BRA    502A
....................     
....................  
.................... ///////////////////////////////////////////// Comienza menu de Luces ///////// 
....................  
....................    case 31: // Menu - Grupo automatico 
....................    if (input(ARRIBA)==0){ 
04E24:  BSF    F93.0
04E26:  BTFSC  F81.0
04E28:  BRA    4E2A
....................    } 
....................    if (input(ABAJO)==0){ 
04E2A:  BSF    F93.1
04E2C:  BTFSC  F81.1
04E2E:  BRA    4E36
....................    Rebote = True; 
04E30:  BSF    35.0
....................    Menu = 32; 
04E32:  MOVLW  20
04E34:  MOVWF  28
....................    } 
....................    if (input(OOKK)==0){ 
04E36:  BSF    F93.2
04E38:  BTFSC  F81.2
04E3A:  BRA    4E42
....................    Rebote = True; 
04E3C:  BSF    35.0
....................    Menu = 131; 
04E3E:  MOVLW  83
04E40:  MOVWF  28
....................    } 
....................    if (input(CANCEL)==0){ 
04E42:  BSF    F93.3
04E44:  BTFSC  F81.3
04E46:  BRA    4E4E
....................    Rebote = True; 
04E48:  BSF    35.0
....................    Menu = 3; 
04E4A:  MOVLW  03
04E4C:  MOVWF  28
....................    } 
....................    break; 
04E4E:  BRA    502A
....................     
....................    case 32: // Menu - Grupo automatico 
....................    if (input(ARRIBA)==0){ 
04E50:  BSF    F93.0
04E52:  BTFSC  F81.0
04E54:  BRA    4E5C
....................    Rebote = True; 
04E56:  BSF    35.0
....................    Menu = 31; 
04E58:  MOVLW  1F
04E5A:  MOVWF  28
....................    } 
....................    if (input(ABAJO)==0){ 
04E5C:  BSF    F93.1
04E5E:  BTFSC  F81.1
04E60:  BRA    4E68
....................    Rebote = True; 
04E62:  BSF    35.0
....................    Menu = 33; 
04E64:  MOVLW  21
04E66:  MOVWF  28
....................    } 
....................    if (input(OOKK)==0){ 
04E68:  BSF    F93.2
04E6A:  BTFSC  F81.2
04E6C:  BRA    4E74
....................    Rebote = True; 
04E6E:  BSF    35.0
....................    Menu = 132; 
04E70:  MOVLW  84
04E72:  MOVWF  28
....................    } 
....................    if (input(CANCEL)==0){ 
04E74:  BSF    F93.3
04E76:  BTFSC  F81.3
04E78:  BRA    4E80
....................    Rebote = True; 
04E7A:  BSF    35.0
....................    Menu = 3; 
04E7C:  MOVLW  03
04E7E:  MOVWF  28
....................    } 
....................    break; 
04E80:  BRA    502A
....................     
....................    case 33: // Menu - Grupo automatico 
....................    if (input(ARRIBA)==0){ 
04E82:  BSF    F93.0
04E84:  BTFSC  F81.0
04E86:  BRA    4E8E
....................    Rebote = True; 
04E88:  BSF    35.0
....................    Menu = 32; 
04E8A:  MOVLW  20
04E8C:  MOVWF  28
....................    } 
....................    if (input(ABAJO)==0){ 
04E8E:  BSF    F93.1
04E90:  BTFSC  F81.1
04E92:  BRA    4E94
....................    } 
....................    if (input(OOKK)==0){ 
04E94:  BSF    F93.2
04E96:  BTFSC  F81.2
04E98:  BRA    4EA0
....................    Rebote = True; 
04E9A:  BSF    35.0
....................    Menu = 133; 
04E9C:  MOVLW  85
04E9E:  MOVWF  28
....................    } 
....................    if (input(CANCEL)==0){ 
04EA0:  BSF    F93.3
04EA2:  BTFSC  F81.3
04EA4:  BRA    4EAC
....................    Rebote = True; 
04EA6:  BSF    35.0
....................    Menu = 3; 
04EA8:  MOVLW  03
04EAA:  MOVWF  28
....................    } 
....................    break; 
04EAC:  BRA    502A
....................     
....................  
....................  
.................... /*//////////////////////////////////////////// Comienza menu de Casandra ///////// 
....................  
....................    case 41: // Menu - Grupo automatico 
....................    if (input(ARRIBA)==0){ 
....................    } 
....................    if (input(ABAJO)==0){ 
....................    Rebote = True; 
....................    Menu = 42; 
....................    } 
....................    if (input(OOKK)==0){ 
....................    Rebote = True; 
....................    Menu = 141; 
....................    } 
....................    if (input(CANCEL)==0){ 
....................    Rebote = True; 
....................    Menu = 4; 
....................    } 
....................    break; 
....................     
....................    case 42: // Menu - Grupo automatico 
....................    if (input(ARRIBA)==0){ 
....................    Rebote = True; 
....................    Menu = 41; 
....................    } 
....................    if (input(ABAJO)==0){ 
....................    Rebote = True; 
....................    Menu = 43; 
....................    } 
....................    if (input(OOKK)==0){ 
....................    Rebote = True; 
....................    Menu = 142; 
....................    } 
....................    if (input(CANCEL)==0){ 
....................    Rebote = True; 
....................    Menu = 4; 
....................    } 
....................    break; 
....................     
....................    case 43: // Menu - Grupo automatico 
....................    if (input(ARRIBA)==0){ 
....................    Rebote = True; 
....................    Menu = 42; 
....................    } 
....................    if (input(ABAJO)==0){ 
....................    Rebote = True; 
....................    Menu = 44; 
....................    } 
....................    if (input(OOKK)==0){ 
....................    Rebote = True; 
....................    Menu = 143; 
....................    } 
....................    if (input(CANCEL)==0){ 
....................    Rebote = True; 
....................    Menu = 4; 
....................    } 
....................    break; 
....................     
....................    case 44: // Menu - Grupo automatico 
....................    if (input(ARRIBA)==0){ 
....................    Rebote = True; 
....................    Menu = 43; 
....................    } 
....................    if (input(ABAJO)==0){ 
....................    } 
....................    if (input(OOKK)==0){ 
....................    Rebote = True; 
....................    Menu = 144; 
....................    } 
....................    if (input(CANCEL)==0){ 
....................    Rebote = True; 
....................    Menu = 4; 
....................    } 
....................    break; 
....................     
.................... */ 
....................  
.................... ///////////////////////////////////////////// Comienza menu del Automatico ///////// 
....................  
....................    case 51: // Menu - Grupo automatico 
....................    if (input(ARRIBA)==0){ 
04EAE:  BSF    F93.0
04EB0:  BTFSC  F81.0
04EB2:  BRA    4EB4
....................    } 
....................    if (input(ABAJO)==0){ 
04EB4:  BSF    F93.1
04EB6:  BTFSC  F81.1
04EB8:  BRA    4EC0
....................    Rebote = True; 
04EBA:  BSF    35.0
....................    Menu = 52; 
04EBC:  MOVLW  34
04EBE:  MOVWF  28
....................    } 
....................    if (input(OOKK)==0){ 
04EC0:  BSF    F93.2
04EC2:  BTFSC  F81.2
04EC4:  BRA    4ECC
....................    Rebote = True; 
04EC6:  BSF    35.0
....................    Menu = 151; 
04EC8:  MOVLW  97
04ECA:  MOVWF  28
....................    } 
....................    if (input(CANCEL)==0){ 
04ECC:  BSF    F93.3
04ECE:  BTFSC  F81.3
04ED0:  BRA    4ED8
....................    Rebote = True; 
04ED2:  BSF    35.0
....................    Menu = 5; 
04ED4:  MOVLW  05
04ED6:  MOVWF  28
....................    } 
....................    break; 
04ED8:  BRA    502A
....................     
....................    case 52: // Menu - Grupo automatico 
....................    if (input(ARRIBA)==0){ 
04EDA:  BSF    F93.0
04EDC:  BTFSC  F81.0
04EDE:  BRA    4EE6
....................    Rebote = True; 
04EE0:  BSF    35.0
....................    Menu = 51; 
04EE2:  MOVLW  33
04EE4:  MOVWF  28
....................    } 
....................    if (input(ABAJO)==0){ 
04EE6:  BSF    F93.1
04EE8:  BTFSC  F81.1
04EEA:  BRA    4EF2
....................    Rebote = True; 
04EEC:  BSF    35.0
....................    Menu = 53; 
04EEE:  MOVLW  35
04EF0:  MOVWF  28
....................    } 
....................    if (input(OOKK)==0){ 
04EF2:  BSF    F93.2
04EF4:  BTFSC  F81.2
04EF6:  BRA    4EFE
....................    Rebote = True; 
04EF8:  BSF    35.0
....................    Menu = 152; 
04EFA:  MOVLW  98
04EFC:  MOVWF  28
....................    } 
....................    if (input(CANCEL)==0){ 
04EFE:  BSF    F93.3
04F00:  BTFSC  F81.3
04F02:  BRA    4F0A
....................    Rebote = True; 
04F04:  BSF    35.0
....................    Menu = 5; 
04F06:  MOVLW  05
04F08:  MOVWF  28
....................    } 
....................    break; 
04F0A:  BRA    502A
....................     
....................    case 53: // Menu - Grupo automatico 
....................    if (input(ARRIBA)==0){ 
04F0C:  BSF    F93.0
04F0E:  BTFSC  F81.0
04F10:  BRA    4F18
....................    Rebote = True; 
04F12:  BSF    35.0
....................    Menu = 52; 
04F14:  MOVLW  34
04F16:  MOVWF  28
....................    } 
....................    if (input(ABAJO)==0){ 
04F18:  BSF    F93.1
04F1A:  BTFSC  F81.1
04F1C:  BRA    4F1E
....................    } 
....................    if (input(OOKK)==0){ 
04F1E:  BSF    F93.2
04F20:  BTFSC  F81.2
04F22:  BRA    4F2A
....................    Rebote = True; 
04F24:  BSF    35.0
....................    Menu = 153; 
04F26:  MOVLW  99
04F28:  MOVWF  28
....................    } 
....................    if (input(CANCEL)==0){ 
04F2A:  BSF    F93.3
04F2C:  BTFSC  F81.3
04F2E:  BRA    4F36
....................    Rebote = True; 
04F30:  BSF    35.0
....................    Menu = 5; 
04F32:  MOVLW  05
04F34:  MOVWF  28
....................    } 
....................    break; 
04F36:  BRA    502A
....................     
....................  
.................... ///////////////////////////////////////////// Comienza menu de Configuracion ///////// 
....................  
....................    case 61: // Menu - Grupo automatico 
....................    if (input(ARRIBA)==0){ 
04F38:  BSF    F93.0
04F3A:  BTFSC  F81.0
04F3C:  BRA    4F3E
....................    } 
....................    if (input(ABAJO)==0){ 
04F3E:  BSF    F93.1
04F40:  BTFSC  F81.1
04F42:  BRA    4F4A
....................    Rebote = True; 
04F44:  BSF    35.0
....................    Menu = 62; 
04F46:  MOVLW  3E
04F48:  MOVWF  28
....................    } 
....................    if (input(OOKK)==0){ 
04F4A:  BSF    F93.2
04F4C:  BTFSC  F81.2
04F4E:  BRA    4F56
....................    Rebote = True; 
04F50:  BSF    35.0
....................    Menu = 161; 
04F52:  MOVLW  A1
04F54:  MOVWF  28
....................    } 
....................    if (input(CANCEL)==0){ 
04F56:  BSF    F93.3
04F58:  BTFSC  F81.3
04F5A:  BRA    4F62
....................    Rebote = True; 
04F5C:  BSF    35.0
....................    Menu = 6; 
04F5E:  MOVLW  06
04F60:  MOVWF  28
....................    } 
....................    break; 
04F62:  BRA    502A
....................     
....................    case 62: // Menu - Grupo automatico 
....................    if (input(ARRIBA)==0){ 
04F64:  BSF    F93.0
04F66:  BTFSC  F81.0
04F68:  BRA    4F70
....................    Rebote = True; 
04F6A:  BSF    35.0
....................    Menu = 61; 
04F6C:  MOVLW  3D
04F6E:  MOVWF  28
....................    } 
....................    if (input(ABAJO)==0){ 
04F70:  BSF    F93.1
04F72:  BTFSC  F81.1
04F74:  BRA    4F7C
....................    Rebote = True; 
04F76:  BSF    35.0
....................    Menu = 63; 
04F78:  MOVLW  3F
04F7A:  MOVWF  28
....................    } 
....................    if (input(OOKK)==0){ 
04F7C:  BSF    F93.2
04F7E:  BTFSC  F81.2
04F80:  BRA    4F88
....................    Rebote = True; 
04F82:  BSF    35.0
....................    Menu = 162; 
04F84:  MOVLW  A2
04F86:  MOVWF  28
....................    } 
....................    if (input(CANCEL)==0){ 
04F88:  BSF    F93.3
04F8A:  BTFSC  F81.3
04F8C:  BRA    4F94
....................    Rebote = True; 
04F8E:  BSF    35.0
....................    Menu = 6; 
04F90:  MOVLW  06
04F92:  MOVWF  28
....................    } 
....................    break; 
04F94:  BRA    502A
....................     
....................    case 63: // Menu - Grupo automatico 
....................    if (input(ARRIBA)==0){ 
04F96:  BSF    F93.0
04F98:  BTFSC  F81.0
04F9A:  BRA    4FA2
....................    Rebote = True; 
04F9C:  BSF    35.0
....................    Menu = 62; 
04F9E:  MOVLW  3E
04FA0:  MOVWF  28
....................    } 
....................    if (input(ABAJO)==0){ 
04FA2:  BSF    F93.1
04FA4:  BTFSC  F81.1
04FA6:  BRA    4FAE
....................    Rebote = True; 
04FA8:  BSF    35.0
....................    Menu = 64; 
04FAA:  MOVLW  40
04FAC:  MOVWF  28
....................    } 
....................    if (input(OOKK)==0){ 
04FAE:  BSF    F93.2
04FB0:  BTFSC  F81.2
04FB2:  BRA    4FBA
....................    Rebote = True; 
04FB4:  BSF    35.0
....................    Menu = 163; 
04FB6:  MOVLW  A3
04FB8:  MOVWF  28
....................    } 
....................    if (input(CANCEL)==0){ 
04FBA:  BSF    F93.3
04FBC:  BTFSC  F81.3
04FBE:  BRA    4FC6
....................    Rebote = True; 
04FC0:  BSF    35.0
....................    Menu = 6; 
04FC2:  MOVLW  06
04FC4:  MOVWF  28
....................    } 
....................    break; 
04FC6:  BRA    502A
....................     
....................    case 64: // Menu - Grupo automatico 
....................    if (input(ARRIBA)==0){ 
04FC8:  BSF    F93.0
04FCA:  BTFSC  F81.0
04FCC:  BRA    4FD4
....................    Rebote = True; 
04FCE:  BSF    35.0
....................    Menu = 63; 
04FD0:  MOVLW  3F
04FD2:  MOVWF  28
....................    } 
....................    if (input(ABAJO)==0){ 
04FD4:  BSF    F93.1
04FD6:  BTFSC  F81.1
04FD8:  BRA    4FE0
....................    Rebote = True; 
04FDA:  BSF    35.0
....................    Menu = 65; 
04FDC:  MOVLW  41
04FDE:  MOVWF  28
....................  
....................    } 
....................    if (input(OOKK)==0){ 
04FE0:  BSF    F93.2
04FE2:  BTFSC  F81.2
04FE4:  BRA    4FEC
....................    Rebote = True; 
04FE6:  BSF    35.0
....................    Menu = 164; 
04FE8:  MOVLW  A4
04FEA:  MOVWF  28
....................    } 
....................    if (input(CANCEL)==0){ 
04FEC:  BSF    F93.3
04FEE:  BTFSC  F81.3
04FF0:  BRA    4FF8
....................    Rebote = True; 
04FF2:  BSF    35.0
....................    Menu = 6; 
04FF4:  MOVLW  06
04FF6:  MOVWF  28
....................    } 
....................    break; 
04FF8:  BRA    502A
....................  
....................    case 65: // Menu - Grupo automatico 
....................    if (input(ARRIBA)==0){ 
04FFA:  BSF    F93.0
04FFC:  BTFSC  F81.0
04FFE:  BRA    5006
....................    Rebote = True; 
05000:  BSF    35.0
....................    Menu = 64; 
05002:  MOVLW  40
05004:  MOVWF  28
....................    } 
....................    if (input(ABAJO)==0){ 
05006:  BSF    F93.1
05008:  BTFSC  F81.1
0500A:  BRA    500C
....................    } 
....................    if (input(OOKK)==0){ 
0500C:  BSF    F93.2
0500E:  BTFSC  F81.2
05010:  BRA    5018
....................    Rebote = True; 
05012:  BSF    35.0
....................    Menu = 165; 
05014:  MOVLW  A5
05016:  MOVWF  28
....................    } 
....................    if (input(CANCEL)==0){ 
05018:  BSF    F93.3
0501A:  BTFSC  F81.3
0501C:  BRA    5024
....................    Rebote = True; 
0501E:  BSF    35.0
....................    Menu = 6; 
05020:  MOVLW  06
05022:  MOVWF  28
....................    } 
....................    break; 
05024:  BRA    502A
....................     
.................... Pantalla(); // Actualizamos la pantalla 
05026:  CALL   3F86
....................  
.................... } // switch 
.................... } // if del antirebote 
0502A:  GOTO   B9C4 (RETURN)
.................... } // Fn 
....................  
.................... void Pantalla(){ 
....................  
.................... restart_wdt(); 
*
03F86:  CLRWDT
.................... switch (Menu){ 
03F88:  MOVF   28,W
03F8A:  ADDLW  BE
03F8C:  BTFSC  FD8.0
03F8E:  GOTO   4B52
03F92:  ADDLW  42
03F94:  GOTO   4B54
....................  
....................    case 0: 
.................... //   output_high(LCDLED); 
.................... //   lcd_putc("\f"); // Limpiamos la pantalla, por este motivo solo la llamamos cuando es necesario 
....................    break; 
03F98:  GOTO   4B52
....................  
....................    case 1: 
.................... //   output_low(LCDLED); 
....................    lcd_gotoxy(1,1); 
03F9C:  MOVLW  01
03F9E:  MOVLB  2
03FA0:  MOVWF  x0E
03FA2:  MOVWF  x0F
03FA4:  MOVLB  0
03FA6:  CALL   2E90
....................    printf(lcd_putc, "%c%c%c %02u %c%c%c  %02u:%02u:%02u", Dia[0], Dia[1], Dia[2], day, Mes[0], Mes[1], Mes[2], hrs, min, sec); 
03FAA:  MOVFF  3B,20D
03FAE:  CALL   2EFA
03FB2:  MOVFF  3C,20D
03FB6:  CALL   2EFA
03FBA:  MOVFF  3D,20D
03FBE:  CALL   2EFA
03FC2:  MOVLW  20
03FC4:  MOVLB  2
03FC6:  MOVWF  x0D
03FC8:  MOVLB  0
03FCA:  CALL   2EFA
03FCE:  MOVFF  24,203
03FD2:  MOVLW  01
03FD4:  MOVLB  2
03FD6:  MOVWF  x04
03FD8:  MOVLB  0
03FDA:  CALL   3692
03FDE:  MOVLW  20
03FE0:  MOVLB  2
03FE2:  MOVWF  x0D
03FE4:  MOVLB  0
03FE6:  CALL   2EFA
03FEA:  MOVFF  3F,20D
03FEE:  CALL   2EFA
03FF2:  MOVFF  40,20D
03FF6:  CALL   2EFA
03FFA:  MOVFF  41,20D
03FFE:  CALL   2EFA
04002:  MOVLW  20
04004:  MOVLB  2
04006:  MOVWF  x0D
04008:  MOVLB  0
0400A:  CALL   2EFA
0400E:  MOVLW  20
04010:  MOVLB  2
04012:  MOVWF  x0D
04014:  MOVLB  0
04016:  CALL   2EFA
0401A:  MOVFF  23,203
0401E:  MOVLW  01
04020:  MOVLB  2
04022:  MOVWF  x04
04024:  MOVLB  0
04026:  CALL   3692
0402A:  MOVLW  3A
0402C:  MOVLB  2
0402E:  MOVWF  x0D
04030:  MOVLB  0
04032:  CALL   2EFA
04036:  MOVFF  22,203
0403A:  MOVLW  01
0403C:  MOVLB  2
0403E:  MOVWF  x04
04040:  MOVLB  0
04042:  CALL   3692
04046:  MOVLW  3A
04048:  MOVLB  2
0404A:  MOVWF  x0D
0404C:  MOVLB  0
0404E:  CALL   2EFA
04052:  MOVFF  21,203
04056:  MOVLW  01
04058:  MOVLB  2
0405A:  MOVWF  x04
0405C:  MOVLB  0
0405E:  CALL   3692
....................    lcd_gotoxy(1,2); 
04062:  MOVLW  01
04064:  MOVLB  2
04066:  MOVWF  x0E
04068:  MOVLW  02
0406A:  MOVWF  x0F
0406C:  MOVLB  0
0406E:  CALL   2E90
....................    printf(lcd_putc, " Temp: %2d%cC / %2d%cC  ", TempIn-4, 210, TempOut, 210); 
04072:  MOVLW  04
04074:  SUBWF  1D,W
04076:  MOVLB  1
04078:  MOVWF  xEB
0407A:  MOVLW  BC
0407C:  MOVWF  FF6
0407E:  MOVLW  1F
04080:  MOVWF  FF7
04082:  MOVLW  07
04084:  MOVLB  2
04086:  MOVWF  x0A
04088:  MOVLB  0
0408A:  CALL   3496
0408E:  MOVFF  1EB,203
04092:  MOVLW  11
04094:  MOVLB  2
04096:  MOVWF  x04
04098:  MOVLB  0
0409A:  CALL   34E2
0409E:  MOVLW  D2
040A0:  MOVLB  2
040A2:  MOVWF  x0D
040A4:  MOVLB  0
040A6:  CALL   2EFA
040AA:  MOVLW  C8
040AC:  MOVWF  FF6
040AE:  MOVLW  1F
040B0:  MOVWF  FF7
040B2:  MOVLW  04
040B4:  MOVLB  2
040B6:  MOVWF  x0A
040B8:  MOVLB  0
040BA:  CALL   3496
040BE:  MOVFF  43,203
040C2:  MOVLW  11
040C4:  MOVLB  2
040C6:  MOVWF  x04
040C8:  MOVLB  0
040CA:  CALL   34E2
040CE:  MOVLW  D2
040D0:  MOVLB  2
040D2:  MOVWF  x0D
040D4:  MOVLB  0
040D6:  CALL   2EFA
040DA:  MOVLW  D1
040DC:  MOVWF  FF6
040DE:  MOVLW  1F
040E0:  MOVWF  FF7
040E2:  MOVLW  03
040E4:  MOVLB  2
040E6:  MOVWF  x0A
040E8:  MOVLB  0
040EA:  CALL   3496
....................    lcd_gotoxy(1,3); 
040EE:  MOVLW  01
040F0:  MOVLB  2
040F2:  MOVWF  x0E
040F4:  MOVLW  03
040F6:  MOVWF  x0F
040F8:  MOVLB  0
040FA:  CALL   2E90
....................    if (Sol > 5) printf(lcd_putc, " HR: %02u%%   Sol:%3u " , Hum, Sol); 
040FE:  MOVF   44,W
04100:  SUBLW  05
04102:  BC    4166
04104:  MOVLW  D6
04106:  MOVWF  FF6
04108:  MOVLW  1F
0410A:  MOVWF  FF7
0410C:  MOVLW  05
0410E:  MOVLB  2
04110:  MOVWF  x0A
04112:  MOVLB  0
04114:  CALL   3496
04118:  MOVFF  1B,203
0411C:  MOVLW  01
0411E:  MOVLB  2
04120:  MOVWF  x04
04122:  MOVLB  0
04124:  CALL   3692
04128:  MOVLW  25
0412A:  MOVLB  2
0412C:  MOVWF  x0D
0412E:  MOVLB  0
04130:  CALL   2EFA
04134:  MOVLW  E1
04136:  MOVWF  FF6
04138:  MOVLW  1F
0413A:  MOVWF  FF7
0413C:  MOVLW  07
0413E:  MOVLB  2
04140:  MOVWF  x0A
04142:  MOVLB  0
04144:  CALL   3496
04148:  MOVFF  44,203
0414C:  MOVLW  13
0414E:  MOVLB  2
04150:  MOVWF  x04
04152:  MOVLB  0
04154:  CALL   3692
04158:  MOVLW  20
0415A:  MOVLB  2
0415C:  MOVWF  x0D
0415E:  MOVLB  0
04160:  CALL   2EFA
04164:  BRA    41D2
....................    else         printf(lcd_putc, " HR: %02u%%  Luna:%2u  ", Hum, Sol); 
04166:  MOVLW  EE
04168:  MOVWF  FF6
0416A:  MOVLW  1F
0416C:  MOVWF  FF7
0416E:  MOVLW  05
04170:  MOVLB  2
04172:  MOVWF  x0A
04174:  MOVLB  0
04176:  CALL   3496
0417A:  MOVFF  1B,203
0417E:  MOVLW  01
04180:  MOVLB  2
04182:  MOVWF  x04
04184:  MOVLB  0
04186:  CALL   3692
0418A:  MOVLW  25
0418C:  MOVLB  2
0418E:  MOVWF  x0D
04190:  MOVLB  0
04192:  CALL   2EFA
04196:  MOVLW  F9
04198:  MOVWF  FF6
0419A:  MOVLW  1F
0419C:  MOVWF  FF7
0419E:  MOVLW  07
041A0:  MOVLB  2
041A2:  MOVWF  x0A
041A4:  MOVLB  0
041A6:  CALL   3496
041AA:  MOVFF  44,203
041AE:  MOVLW  11
041B0:  MOVLB  2
041B2:  MOVWF  x04
041B4:  MOVLB  0
041B6:  CALL   3692
041BA:  MOVLW  20
041BC:  MOVLB  2
041BE:  MOVWF  x0D
041C0:  MOVLB  0
041C2:  CALL   2EFA
041C6:  MOVLW  20
041C8:  MOVLB  2
041CA:  MOVWF  x0D
041CC:  MOVLB  0
041CE:  CALL   2EFA
....................    lcd_gotoxy(1,4); 
041D2:  MOVLW  01
041D4:  MOVLB  2
041D6:  MOVWF  x0E
041D8:  MOVLW  04
041DA:  MOVWF  x0F
041DC:  MOVLB  0
041DE:  CALL   2E90
....................    if (EstadoAl==0)  printf(lcd_putc, "Alarma: Notificacion"); 
041E2:  MOVF   45,F
041E4:  BNZ   41F2
041E6:  MOVLW  06
041E8:  MOVWF  FF6
041EA:  MOVLW  20
041EC:  MOVWF  FF7
041EE:  CALL   2F62
....................    if (EstadoAl==1)  printf(lcd_putc, "Alarma: Desactivada "); 
041F2:  DECFSZ 45,W
041F4:  BRA    4202
041F6:  MOVLW  1C
041F8:  MOVWF  FF6
041FA:  MOVLW  20
041FC:  MOVWF  FF7
041FE:  CALL   2F62
....................    if (EstadoAl==3)  printf(lcd_putc, "Alarma: TOTAL Activa"); 
04202:  MOVF   45,W
04204:  SUBLW  03
04206:  BNZ   4214
04208:  MOVLW  32
0420A:  MOVWF  FF6
0420C:  MOVLW  20
0420E:  MOVWF  FF7
04210:  CALL   2F62
....................    if (EstadoAl==4)  printf(lcd_putc, "Alarma: NOCTURNA Act"); 
04214:  MOVF   45,W
04216:  SUBLW  04
04218:  BNZ   4226
0421A:  MOVLW  48
0421C:  MOVWF  FF6
0421E:  MOVLW  20
04220:  MOVWF  FF7
04222:  CALL   2F62
....................    if (EstadoAl==5)  printf(lcd_putc, "Alarma: MASCOTA Act."); 
04226:  MOVF   45,W
04228:  SUBLW  05
0422A:  BNZ   4238
0422C:  MOVLW  5E
0422E:  MOVWF  FF6
04230:  MOVLW  20
04232:  MOVWF  FF7
04234:  CALL   2F62
....................    if (EstadoAl==7)  printf(lcd_putc, "=PANICO= Silencioso "); 
04238:  MOVF   45,W
0423A:  SUBLW  07
0423C:  BNZ   424A
0423E:  MOVLW  74
04240:  MOVWF  FF6
04242:  MOVLW  20
04244:  MOVWF  FF7
04246:  CALL   2F62
....................    if (EstadoAl==8)  printf(lcd_putc, " -=PANICO=- Activado"); 
0424A:  MOVF   45,W
0424C:  SUBLW  08
0424E:  BNZ   425C
04250:  MOVLW  8A
04252:  MOVWF  FF6
04254:  MOVLW  20
04256:  MOVWF  FF7
04258:  CALL   2F62
....................    lcd_gotoxy(19,3); 
0425C:  MOVLW  13
0425E:  MOVLB  2
04260:  MOVWF  x0E
04262:  MOVLW  03
04264:  MOVWF  x0F
04266:  MOVLB  0
04268:  CALL   2E90
....................    if (Sol <= Umbral){ 
0426C:  MOVF   44,W
0426E:  SUBWF  47,W
04270:  BNC   4280
....................    printf(lcd_putc,"*"); 
04272:  MOVLW  2A
04274:  MOVLB  2
04276:  MOVWF  x0D
04278:  MOVLB  0
0427A:  CALL   2EFA
....................    } else printf(lcd_putc," "); 
0427E:  BRA    428C
04280:  MOVLW  20
04282:  MOVLB  2
04284:  MOVWF  x0D
04286:  MOVLB  0
04288:  CALL   2EFA
....................    break; 
0428C:  GOTO   4B52
....................  
....................    case 2: 
.................... //   Tiempo(); // Tomo el tiempo 
.................... //   Ambiente(); // Tomo las variables ambientales (incluidas las remotas con cuidado de no saturar el bus) 
.................... //   output_low(LCDLED); 
....................    lcd_gotoxy(1,1); 
04290:  MOVLW  01
04292:  MOVLB  2
04294:  MOVWF  x0E
04296:  MOVWF  x0F
04298:  MOVLB  0
0429A:  CALL   2E90
....................    printf(lcd_putc, "======= MENU ======="); 
0429E:  MOVLW  A0
042A0:  MOVWF  FF6
042A2:  MOVLW  20
042A4:  MOVWF  FF7
042A6:  CALL   2F62
....................    lcd_gotoxy(1,2); 
042AA:  MOVLW  01
042AC:  MOVLB  2
042AE:  MOVWF  x0E
042B0:  MOVLW  02
042B2:  MOVWF  x0F
042B4:  MOVLB  0
042B6:  CALL   2E90
....................    printf(lcd_putc, " ~ (1) Alarma       "); 
042BA:  MOVLW  B6
042BC:  MOVWF  FF6
042BE:  MOVLW  20
042C0:  MOVWF  FF7
042C2:  CALL   2F62
....................    lcd_gotoxy(1,3); 
042C6:  MOVLW  01
042C8:  MOVLB  2
042CA:  MOVWF  x0E
042CC:  MOVLW  03
042CE:  MOVWF  x0F
042D0:  MOVLB  0
042D2:  CALL   2E90
....................    printf(lcd_putc, "   (2) Luces        "); 
042D6:  MOVLW  CC
042D8:  MOVWF  FF6
042DA:  MOVLW  20
042DC:  MOVWF  FF7
042DE:  CALL   2F62
....................    lcd_gotoxy(1,4); 
042E2:  MOVLW  01
042E4:  MOVLB  2
042E6:  MOVWF  x0E
042E8:  MOVLW  04
042EA:  MOVWF  x0F
042EC:  MOVLB  0
042EE:  CALL   2E90
....................    printf(lcd_putc, "   (3) Casandra     "); 
042F2:  MOVLW  E2
042F4:  MOVWF  FF6
042F6:  MOVLW  20
042F8:  MOVWF  FF7
042FA:  CALL   2F62
....................    break; 
042FE:  GOTO   4B52
....................  
....................    case 3: 
.................... //   Tiempo(); // Tomo el tiempo 
.................... //   Ambiente(); // Tomo las variables ambientales (incluidas las remotas con cuidado de no saturar el bus) 
.................... //   output_low(LCDLED); 
....................    lcd_gotoxy(1,1); 
04302:  MOVLW  01
04304:  MOVLB  2
04306:  MOVWF  x0E
04308:  MOVWF  x0F
0430A:  MOVLB  0
0430C:  CALL   2E90
....................    printf(lcd_putc, "======= MENU ======="); 
04310:  MOVLW  F8
04312:  MOVWF  FF6
04314:  MOVLW  20
04316:  MOVWF  FF7
04318:  CALL   2F62
....................    lcd_gotoxy(1,2); 
0431C:  MOVLW  01
0431E:  MOVLB  2
04320:  MOVWF  x0E
04322:  MOVLW  02
04324:  MOVWF  x0F
04326:  MOVLB  0
04328:  CALL   2E90
....................    printf(lcd_putc, "   (1) Alarma       "); 
0432C:  MOVLW  0E
0432E:  MOVWF  FF6
04330:  MOVLW  21
04332:  MOVWF  FF7
04334:  CALL   2F62
....................    lcd_gotoxy(1,3); 
04338:  MOVLW  01
0433A:  MOVLB  2
0433C:  MOVWF  x0E
0433E:  MOVLW  03
04340:  MOVWF  x0F
04342:  MOVLB  0
04344:  CALL   2E90
....................    printf(lcd_putc, " ~ (2) Luces        "); 
04348:  MOVLW  24
0434A:  MOVWF  FF6
0434C:  MOVLW  21
0434E:  MOVWF  FF7
04350:  CALL   2F62
....................    lcd_gotoxy(1,4); 
04354:  MOVLW  01
04356:  MOVLB  2
04358:  MOVWF  x0E
0435A:  MOVLW  04
0435C:  MOVWF  x0F
0435E:  MOVLB  0
04360:  CALL   2E90
....................    printf(lcd_putc, "   (3) Casandra     "); 
04364:  MOVLW  3A
04366:  MOVWF  FF6
04368:  MOVLW  21
0436A:  MOVWF  FF7
0436C:  CALL   2F62
....................    break; 
04370:  GOTO   4B52
....................  
....................    case 4: 
.................... //   Tiempo(); // Tomo el tiempo 
.................... //   Ambiente(); // Tomo las variables ambientales (incluidas las remotas con cuidado de no saturar el bus) 
.................... //   output_low(LCDLED); 
....................    lcd_gotoxy(1,1); 
04374:  MOVLW  01
04376:  MOVLB  2
04378:  MOVWF  x0E
0437A:  MOVWF  x0F
0437C:  MOVLB  0
0437E:  CALL   2E90
....................    printf(lcd_putc, "======= MENU ======="); 
04382:  MOVLW  50
04384:  MOVWF  FF6
04386:  MOVLW  21
04388:  MOVWF  FF7
0438A:  CALL   2F62
....................    lcd_gotoxy(1,2); 
0438E:  MOVLW  01
04390:  MOVLB  2
04392:  MOVWF  x0E
04394:  MOVLW  02
04396:  MOVWF  x0F
04398:  MOVLB  0
0439A:  CALL   2E90
....................    printf(lcd_putc, "   (2) Luces        "); 
0439E:  MOVLW  66
043A0:  MOVWF  FF6
043A2:  MOVLW  21
043A4:  MOVWF  FF7
043A6:  CALL   2F62
....................    lcd_gotoxy(1,3); 
043AA:  MOVLW  01
043AC:  MOVLB  2
043AE:  MOVWF  x0E
043B0:  MOVLW  03
043B2:  MOVWF  x0F
043B4:  MOVLB  0
043B6:  CALL   2E90
....................    printf(lcd_putc, " ~ (3) Casandra     "); 
043BA:  MOVLW  7C
043BC:  MOVWF  FF6
043BE:  MOVLW  21
043C0:  MOVWF  FF7
043C2:  CALL   2F62
....................    lcd_gotoxy(1,4); 
043C6:  MOVLW  01
043C8:  MOVLB  2
043CA:  MOVWF  x0E
043CC:  MOVLW  04
043CE:  MOVWF  x0F
043D0:  MOVLB  0
043D2:  CALL   2E90
....................    printf(lcd_putc, "   (4) Automaticos  "); 
043D6:  MOVLW  92
043D8:  MOVWF  FF6
043DA:  MOVLW  21
043DC:  MOVWF  FF7
043DE:  CALL   2F62
....................    break; 
043E2:  BRA    4B52
....................  
....................    case 5: 
.................... //   Tiempo(); // Tomo el tiempo 
.................... //   Ambiente(); // Tomo las variables ambientales (incluidas las remotas con cuidado de no saturar el bus) 
.................... //   output_low(LCDLED); 
....................    lcd_gotoxy(1,1); 
043E4:  MOVLW  01
043E6:  MOVLB  2
043E8:  MOVWF  x0E
043EA:  MOVWF  x0F
043EC:  MOVLB  0
043EE:  CALL   2E90
....................    printf(lcd_putc, "======= MENU ======="); 
043F2:  MOVLW  A8
043F4:  MOVWF  FF6
043F6:  MOVLW  21
043F8:  MOVWF  FF7
043FA:  CALL   2F62
....................    lcd_gotoxy(1,2); 
043FE:  MOVLW  01
04400:  MOVLB  2
04402:  MOVWF  x0E
04404:  MOVLW  02
04406:  MOVWF  x0F
04408:  MOVLB  0
0440A:  CALL   2E90
....................    printf(lcd_putc, "   (3) Casandra     "); 
0440E:  MOVLW  BE
04410:  MOVWF  FF6
04412:  MOVLW  21
04414:  MOVWF  FF7
04416:  CALL   2F62
....................    lcd_gotoxy(1,3); 
0441A:  MOVLW  01
0441C:  MOVLB  2
0441E:  MOVWF  x0E
04420:  MOVLW  03
04422:  MOVWF  x0F
04424:  MOVLB  0
04426:  CALL   2E90
....................    printf(lcd_putc, " ~ (4) Automaticos  "); 
0442A:  MOVLW  D4
0442C:  MOVWF  FF6
0442E:  MOVLW  21
04430:  MOVWF  FF7
04432:  CALL   2F62
....................    lcd_gotoxy(1,4); 
04436:  MOVLW  01
04438:  MOVLB  2
0443A:  MOVWF  x0E
0443C:  MOVLW  04
0443E:  MOVWF  x0F
04440:  MOVLB  0
04442:  CALL   2E90
....................    printf(lcd_putc, "   (5) Configuracion"); 
04446:  MOVLW  EA
04448:  MOVWF  FF6
0444A:  MOVLW  21
0444C:  MOVWF  FF7
0444E:  CALL   2F62
....................    break; 
04452:  BRA    4B52
....................  
....................    case 6: 
.................... //   Tiempo(); // Tomo el tiempo 
.................... //   Ambiente(); // Tomo las variables ambientales (incluidas las remotas con cuidado de no saturar el bus) 
.................... //   output_low(LCDLED); 
....................    lcd_gotoxy(1,1); 
04454:  MOVLW  01
04456:  MOVLB  2
04458:  MOVWF  x0E
0445A:  MOVWF  x0F
0445C:  MOVLB  0
0445E:  CALL   2E90
....................    printf(lcd_putc, "======= MENU ======="); 
04462:  MOVLW  00
04464:  MOVWF  FF6
04466:  MOVLW  22
04468:  MOVWF  FF7
0446A:  CALL   2F62
....................    lcd_gotoxy(1,2); 
0446E:  MOVLW  01
04470:  MOVLB  2
04472:  MOVWF  x0E
04474:  MOVLW  02
04476:  MOVWF  x0F
04478:  MOVLB  0
0447A:  CALL   2E90
....................    printf(lcd_putc, "   (3) Casandra     "); 
0447E:  MOVLW  16
04480:  MOVWF  FF6
04482:  MOVLW  22
04484:  MOVWF  FF7
04486:  CALL   2F62
....................    lcd_gotoxy(1,3); 
0448A:  MOVLW  01
0448C:  MOVLB  2
0448E:  MOVWF  x0E
04490:  MOVLW  03
04492:  MOVWF  x0F
04494:  MOVLB  0
04496:  CALL   2E90
....................    printf(lcd_putc, "   (4) Automaticos  "); 
0449A:  MOVLW  2C
0449C:  MOVWF  FF6
0449E:  MOVLW  22
044A0:  MOVWF  FF7
044A2:  CALL   2F62
....................    lcd_gotoxy(1,4); 
044A6:  MOVLW  01
044A8:  MOVLB  2
044AA:  MOVWF  x0E
044AC:  MOVLW  04
044AE:  MOVWF  x0F
044B0:  MOVLB  0
044B2:  CALL   2E90
....................    printf(lcd_putc, " ~ (5) Configuracion"); 
044B6:  MOVLW  42
044B8:  MOVWF  FF6
044BA:  MOVLW  22
044BC:  MOVWF  FF7
044BE:  CALL   2F62
....................    break; 
044C2:  BRA    4B52
....................  
....................    case 21: 
.................... //   Tiempo(); // Tomo el tiempo 
.................... //   Ambiente(); // Tomo las variables ambientales (incluidas las remotas con cuidado de no saturar el bus) 
.................... //   output_low(LCDLED); 
....................    lcd_gotoxy(1,1); 
044C4:  MOVLW  01
044C6:  MOVLB  2
044C8:  MOVWF  x0E
044CA:  MOVWF  x0F
044CC:  MOVLB  0
044CE:  CALL   2E90
....................    printf(lcd_putc, "====== Alarma ======"); 
044D2:  MOVLW  58
044D4:  MOVWF  FF6
044D6:  MOVLW  22
044D8:  MOVWF  FF7
044DA:  CALL   2F62
....................    lcd_gotoxy(1,2); 
044DE:  MOVLW  01
044E0:  MOVLB  2
044E2:  MOVWF  x0E
044E4:  MOVLW  02
044E6:  MOVWF  x0F
044E8:  MOVLB  0
044EA:  CALL   2E90
....................    printf(lcd_putc, "~ (1) Activar Total "); 
044EE:  MOVLW  6E
044F0:  MOVWF  FF6
044F2:  MOVLW  22
044F4:  MOVWF  FF7
044F6:  CALL   2F62
....................    lcd_gotoxy(1,3); 
044FA:  MOVLW  01
044FC:  MOVLB  2
044FE:  MOVWF  x0E
04500:  MOVLW  03
04502:  MOVWF  x0F
04504:  MOVLB  0
04506:  CALL   2E90
....................    printf(lcd_putc, "  (2) Activar Noche "); 
0450A:  MOVLW  84
0450C:  MOVWF  FF6
0450E:  MOVLW  22
04510:  MOVWF  FF7
04512:  CALL   2F62
....................    lcd_gotoxy(1,4); 
04516:  MOVLW  01
04518:  MOVLB  2
0451A:  MOVWF  x0E
0451C:  MOVLW  04
0451E:  MOVWF  x0F
04520:  MOVLB  0
04522:  CALL   2E90
....................    printf(lcd_putc, "  (3) Activar Mascot"); 
04526:  MOVLW  9A
04528:  MOVWF  FF6
0452A:  MOVLW  22
0452C:  MOVWF  FF7
0452E:  CALL   2F62
....................    break; 
04532:  BRA    4B52
....................  
....................    case 22: 
.................... //   Tiempo(); // Tomo el tiempo 
.................... //   Ambiente(); // Tomo las variables ambientales (incluidas las remotas con cuidado de no saturar el bus) 
.................... //   output_low(LCDLED); 
....................    lcd_gotoxy(1,1); 
04534:  MOVLW  01
04536:  MOVLB  2
04538:  MOVWF  x0E
0453A:  MOVWF  x0F
0453C:  MOVLB  0
0453E:  CALL   2E90
....................    printf(lcd_putc, "====== Alarma ======"); 
04542:  MOVLW  B0
04544:  MOVWF  FF6
04546:  MOVLW  22
04548:  MOVWF  FF7
0454A:  CALL   2F62
....................    lcd_gotoxy(1,2); 
0454E:  MOVLW  01
04550:  MOVLB  2
04552:  MOVWF  x0E
04554:  MOVLW  02
04556:  MOVWF  x0F
04558:  MOVLB  0
0455A:  CALL   2E90
....................    printf(lcd_putc, "  (1) Activar Total "); 
0455E:  MOVLW  C6
04560:  MOVWF  FF6
04562:  MOVLW  22
04564:  MOVWF  FF7
04566:  CALL   2F62
....................    lcd_gotoxy(1,3); 
0456A:  MOVLW  01
0456C:  MOVLB  2
0456E:  MOVWF  x0E
04570:  MOVLW  03
04572:  MOVWF  x0F
04574:  MOVLB  0
04576:  CALL   2E90
....................    printf(lcd_putc, "~ (2) Activar Noche "); 
0457A:  MOVLW  DC
0457C:  MOVWF  FF6
0457E:  MOVLW  22
04580:  MOVWF  FF7
04582:  CALL   2F62
....................    lcd_gotoxy(1,4); 
04586:  MOVLW  01
04588:  MOVLB  2
0458A:  MOVWF  x0E
0458C:  MOVLW  04
0458E:  MOVWF  x0F
04590:  MOVLB  0
04592:  CALL   2E90
....................    printf(lcd_putc, "  (3) Activar Mascot"); 
04596:  MOVLW  F2
04598:  MOVWF  FF6
0459A:  MOVLW  22
0459C:  MOVWF  FF7
0459E:  CALL   2F62
....................    break; 
045A2:  BRA    4B52
....................  
....................    case 23: 
.................... //   Tiempo(); // Tomo el tiempo 
.................... //   Ambiente(); // Tomo las variables ambientales (incluidas las remotas con cuidado de no saturar el bus) 
.................... //   output_low(LCDLED); 
....................    lcd_gotoxy(1,1); 
045A4:  MOVLW  01
045A6:  MOVLB  2
045A8:  MOVWF  x0E
045AA:  MOVWF  x0F
045AC:  MOVLB  0
045AE:  CALL   2E90
....................    printf(lcd_putc, "====== Alarma ======"); 
045B2:  MOVLW  08
045B4:  MOVWF  FF6
045B6:  MOVLW  23
045B8:  MOVWF  FF7
045BA:  CALL   2F62
....................    lcd_gotoxy(1,2); 
045BE:  MOVLW  01
045C0:  MOVLB  2
045C2:  MOVWF  x0E
045C4:  MOVLW  02
045C6:  MOVWF  x0F
045C8:  MOVLB  0
045CA:  CALL   2E90
....................    printf(lcd_putc, "  (2) Activar Noche "); 
045CE:  MOVLW  1E
045D0:  MOVWF  FF6
045D2:  MOVLW  23
045D4:  MOVWF  FF7
045D6:  CALL   2F62
....................    lcd_gotoxy(1,3); 
045DA:  MOVLW  01
045DC:  MOVLB  2
045DE:  MOVWF  x0E
045E0:  MOVLW  03
045E2:  MOVWF  x0F
045E4:  MOVLB  0
045E6:  CALL   2E90
....................    printf(lcd_putc, "~ (3) Activar Mascot"); 
045EA:  MOVLW  34
045EC:  MOVWF  FF6
045EE:  MOVLW  23
045F0:  MOVWF  FF7
045F2:  CALL   2F62
....................    lcd_gotoxy(1,4); 
045F6:  MOVLW  01
045F8:  MOVLB  2
045FA:  MOVWF  x0E
045FC:  MOVLW  04
045FE:  MOVWF  x0F
04600:  MOVLB  0
04602:  CALL   2E90
....................    printf(lcd_putc, "  (4) Configuracion "); 
04606:  MOVLW  4A
04608:  MOVWF  FF6
0460A:  MOVLW  23
0460C:  MOVWF  FF7
0460E:  CALL   2F62
....................    break; 
04612:  BRA    4B52
....................  
....................    case 24: 
.................... //   Tiempo(); // Tomo el tiempo 
.................... //   Ambiente(); // Tomo las variables ambientales (incluidas las remotas con cuidado de no saturar el bus) 
.................... //   output_low(LCDLED); 
....................    lcd_gotoxy(1,1); 
04614:  MOVLW  01
04616:  MOVLB  2
04618:  MOVWF  x0E
0461A:  MOVWF  x0F
0461C:  MOVLB  0
0461E:  CALL   2E90
....................    printf(lcd_putc, "====== Alarma ======"); 
04622:  MOVLW  60
04624:  MOVWF  FF6
04626:  MOVLW  23
04628:  MOVWF  FF7
0462A:  CALL   2F62
....................    lcd_gotoxy(1,2); 
0462E:  MOVLW  01
04630:  MOVLB  2
04632:  MOVWF  x0E
04634:  MOVLW  02
04636:  MOVWF  x0F
04638:  MOVLB  0
0463A:  CALL   2E90
....................    printf(lcd_putc, "  (2) Activar Noche "); 
0463E:  MOVLW  76
04640:  MOVWF  FF6
04642:  MOVLW  23
04644:  MOVWF  FF7
04646:  CALL   2F62
....................    lcd_gotoxy(1,3); 
0464A:  MOVLW  01
0464C:  MOVLB  2
0464E:  MOVWF  x0E
04650:  MOVLW  03
04652:  MOVWF  x0F
04654:  MOVLB  0
04656:  CALL   2E90
....................    printf(lcd_putc, "  (3) Activar Mascot"); 
0465A:  MOVLW  8C
0465C:  MOVWF  FF6
0465E:  MOVLW  23
04660:  MOVWF  FF7
04662:  CALL   2F62
....................    lcd_gotoxy(1,4); 
04666:  MOVLW  01
04668:  MOVLB  2
0466A:  MOVWF  x0E
0466C:  MOVLW  04
0466E:  MOVWF  x0F
04670:  MOVLB  0
04672:  CALL   2E90
....................    printf(lcd_putc, "~ (4) Configuracion "); 
04676:  MOVLW  A2
04678:  MOVWF  FF6
0467A:  MOVLW  23
0467C:  MOVWF  FF7
0467E:  CALL   2F62
....................    break; 
04682:  BRA    4B52
....................  
....................    case 31: 
.................... //   Tiempo(); // Tomo el tiempo 
.................... //   Ambiente(); // Tomo las variables ambientales (incluidas las remotas con cuidado de no saturar el bus) 
.................... //   output_low(LCDLED); 
....................    lcd_gotoxy(1,1); 
04684:  MOVLW  01
04686:  MOVLB  2
04688:  MOVWF  x0E
0468A:  MOVWF  x0F
0468C:  MOVLB  0
0468E:  CALL   2E90
....................    printf(lcd_putc, "= Control de luces ="); 
04692:  MOVLW  B8
04694:  MOVWF  FF6
04696:  MOVLW  23
04698:  MOVWF  FF7
0469A:  CALL   2F62
....................    lcd_gotoxy(1,2); 
0469E:  MOVLW  01
046A0:  MOVLB  2
046A2:  MOVWF  x0E
046A4:  MOVLW  02
046A6:  MOVWF  x0F
046A8:  MOVLB  0
046AA:  CALL   2E90
....................    printf(lcd_putc, " ~ (1) Prend/Apagar "); 
046AE:  MOVLW  CE
046B0:  MOVWF  FF6
046B2:  MOVLW  23
046B4:  MOVWF  FF7
046B6:  CALL   2F62
....................    lcd_gotoxy(1,3); 
046BA:  MOVLW  01
046BC:  MOVLB  2
046BE:  MOVWF  x0E
046C0:  MOVLW  03
046C2:  MOVWF  x0F
046C4:  MOVLB  0
046C6:  CALL   2E90
....................    printf(lcd_putc, "   (2) Grupos       "); 
046CA:  MOVLW  E4
046CC:  MOVWF  FF6
046CE:  MOVLW  23
046D0:  MOVWF  FF7
046D2:  CALL   2F62
....................    lcd_gotoxy(1,4); 
046D6:  MOVLW  01
046D8:  MOVLB  2
046DA:  MOVWF  x0E
046DC:  MOVLW  04
046DE:  MOVWF  x0F
046E0:  MOVLB  0
046E2:  CALL   2E90
....................    printf(lcd_putc, "   (3) Regulacion   "); 
046E6:  MOVLW  FA
046E8:  MOVWF  FF6
046EA:  MOVLW  23
046EC:  MOVWF  FF7
046EE:  CALL   2F62
....................    break; 
046F2:  BRA    4B52
....................  
....................    case 32: 
.................... //   Tiempo(); // Tomo el tiempo 
.................... //   Ambiente(); // Tomo las variables ambientales (incluidas las remotas con cuidado de no saturar el bus) 
.................... //   output_low(LCDLED); 
....................    lcd_gotoxy(1,1); 
046F4:  MOVLW  01
046F6:  MOVLB  2
046F8:  MOVWF  x0E
046FA:  MOVWF  x0F
046FC:  MOVLB  0
046FE:  CALL   2E90
....................    printf(lcd_putc, "= Control de luces ="); 
04702:  MOVLW  10
04704:  MOVWF  FF6
04706:  MOVLW  24
04708:  MOVWF  FF7
0470A:  CALL   2F62
....................    lcd_gotoxy(1,2); 
0470E:  MOVLW  01
04710:  MOVLB  2
04712:  MOVWF  x0E
04714:  MOVLW  02
04716:  MOVWF  x0F
04718:  MOVLB  0
0471A:  CALL   2E90
....................    printf(lcd_putc, "   (1) Prend/Apagar "); 
0471E:  MOVLW  26
04720:  MOVWF  FF6
04722:  MOVLW  24
04724:  MOVWF  FF7
04726:  CALL   2F62
....................    lcd_gotoxy(1,3); 
0472A:  MOVLW  01
0472C:  MOVLB  2
0472E:  MOVWF  x0E
04730:  MOVLW  03
04732:  MOVWF  x0F
04734:  MOVLB  0
04736:  CALL   2E90
....................    printf(lcd_putc, " ~ (2) Grupos       "); 
0473A:  MOVLW  3C
0473C:  MOVWF  FF6
0473E:  MOVLW  24
04740:  MOVWF  FF7
04742:  CALL   2F62
....................    lcd_gotoxy(1,4); 
04746:  MOVLW  01
04748:  MOVLB  2
0474A:  MOVWF  x0E
0474C:  MOVLW  04
0474E:  MOVWF  x0F
04750:  MOVLB  0
04752:  CALL   2E90
....................    printf(lcd_putc, "   (3) Regulacion   "); 
04756:  MOVLW  52
04758:  MOVWF  FF6
0475A:  MOVLW  24
0475C:  MOVWF  FF7
0475E:  CALL   2F62
....................    break; 
04762:  BRA    4B52
....................  
....................    case 33: 
.................... //   Tiempo(); // Tomo el tiempo 
.................... //   Ambiente(); // Tomo las variables ambientales (incluidas las remotas con cuidado de no saturar el bus) 
.................... //   output_low(LCDLED); 
....................    lcd_gotoxy(1,1); 
04764:  MOVLW  01
04766:  MOVLB  2
04768:  MOVWF  x0E
0476A:  MOVWF  x0F
0476C:  MOVLB  0
0476E:  CALL   2E90
....................    printf(lcd_putc, "= Control de luces ="); 
04772:  MOVLW  68
04774:  MOVWF  FF6
04776:  MOVLW  24
04778:  MOVWF  FF7
0477A:  CALL   2F62
....................    lcd_gotoxy(1,2); 
0477E:  MOVLW  01
04780:  MOVLB  2
04782:  MOVWF  x0E
04784:  MOVLW  02
04786:  MOVWF  x0F
04788:  MOVLB  0
0478A:  CALL   2E90
....................    printf(lcd_putc, "   (1) Prend/Apagar "); 
0478E:  MOVLW  7E
04790:  MOVWF  FF6
04792:  MOVLW  24
04794:  MOVWF  FF7
04796:  CALL   2F62
....................    lcd_gotoxy(1,3); 
0479A:  MOVLW  01
0479C:  MOVLB  2
0479E:  MOVWF  x0E
047A0:  MOVLW  03
047A2:  MOVWF  x0F
047A4:  MOVLB  0
047A6:  CALL   2E90
....................    printf(lcd_putc, "   (2) Grupos       "); 
047AA:  MOVLW  94
047AC:  MOVWF  FF6
047AE:  MOVLW  24
047B0:  MOVWF  FF7
047B2:  CALL   2F62
....................    lcd_gotoxy(1,4); 
047B6:  MOVLW  01
047B8:  MOVLB  2
047BA:  MOVWF  x0E
047BC:  MOVLW  04
047BE:  MOVWF  x0F
047C0:  MOVLB  0
047C2:  CALL   2E90
....................    printf(lcd_putc, " ~ (3) Regulacion   "); 
047C6:  MOVLW  AA
047C8:  MOVWF  FF6
047CA:  MOVLW  24
047CC:  MOVWF  FF7
047CE:  CALL   2F62
....................    break; 
047D2:  BRA    4B52
.................... /* 
....................    case 41: 
.................... //   Tiempo(); // Tomo el tiempo 
.................... //   Ambiente(); // Tomo las variables ambientales (incluidas las remotas con cuidado de no saturar el bus) 
.................... //   output_low(LCDLED); 
....................    lcd_gotoxy(1,1); 
....................    printf(lcd_putc, "== Nivel Casandra =="); 
....................    lcd_gotoxy(1,2); 
....................    printf(lcd_putc, " ~ (1) Serv y Autom "); 
....................    lcd_gotoxy(1,3); 
....................    printf(lcd_putc, "   (2) Solo Serv    "); 
....................    lcd_gotoxy(1,4); 
....................    printf(lcd_putc, "   (3) Solo Autom   "); 
....................    break; 
....................  
....................    case 42: 
.................... //   Tiempo(); // Tomo el tiempo 
.................... //   Ambiente(); // Tomo las variables ambientales (incluidas las remotas con cuidado de no saturar el bus) 
.................... //   output_low(LCDLED); 
....................    lcd_gotoxy(1,1); 
....................    printf(lcd_putc, "== Nivel Casandra =="); 
....................    lcd_gotoxy(1,2); 
....................    printf(lcd_putc, "   (1) Serv y Autom "); 
....................    lcd_gotoxy(1,3); 
....................    printf(lcd_putc, " ~ (2) Solo Serv    "); 
....................    lcd_gotoxy(1,4); 
....................    printf(lcd_putc, "   (3) Solo Autom   "); 
....................    break; 
....................  
....................    case 43: 
.................... //   Tiempo(); // Tomo el tiempo 
.................... //   Ambiente(); // Tomo las variables ambientales (incluidas las remotas con cuidado de no saturar el bus) 
.................... //   output_low(LCDLED); 
....................    lcd_gotoxy(1,1); 
....................    printf(lcd_putc, "== Nivel Casandra =="); 
....................    lcd_gotoxy(1,2); 
....................    printf(lcd_putc, "   (2) Solo Serv    "); 
....................    lcd_gotoxy(1,3); 
....................    printf(lcd_putc, " ~ (3) Solo Autom   "); 
....................    lcd_gotoxy(1,4); 
....................    printf(lcd_putc, "   (4) Nada :(      "); 
....................    break; 
....................  
....................    case 44: 
.................... //   Tiempo(); // Tomo el tiempo 
.................... //   Ambiente(); // Tomo las variables ambientales (incluidas las remotas con cuidado de no saturar el bus) 
.................... //   output_low(LCDLED); 
....................    lcd_gotoxy(1,1); 
....................    printf(lcd_putc, "== Nivel Casandra =="); 
....................    lcd_gotoxy(1,2); 
....................    printf(lcd_putc, "   (2) Solo Serv    "); 
....................    lcd_gotoxy(1,3); 
....................    printf(lcd_putc, "   (3) Solo Autom   "); 
....................    lcd_gotoxy(1,4); 
....................    printf(lcd_putc, " ~ (4) Nada :(      "); 
....................    break; 
.................... */ 
....................    case 51: 
.................... //   Tiempo(); // Tomo el tiempo 
.................... //   Ambiente(); // Tomo las variables ambientales (incluidas las remotas con cuidado de no saturar el bus) 
.................... //   output_low(LCDLED); 
....................    lcd_gotoxy(1,1); 
047D4:  MOVLW  01
047D6:  MOVLB  2
047D8:  MOVWF  x0E
047DA:  MOVWF  x0F
047DC:  MOVLB  0
047DE:  CALL   2E90
....................    printf(lcd_putc, "==== Automatico ===="); 
047E2:  MOVLW  C0
047E4:  MOVWF  FF6
047E6:  MOVLW  24
047E8:  MOVWF  FF7
047EA:  CALL   2F62
....................    lcd_gotoxy(1,2); 
047EE:  MOVLW  01
047F0:  MOVLB  2
047F2:  MOVWF  x0E
047F4:  MOVLW  02
047F6:  MOVWF  x0F
047F8:  MOVLB  0
047FA:  CALL   2E90
....................    printf(lcd_putc, " ~ (1) Elegir dias  "); 
047FE:  MOVLW  D6
04800:  MOVWF  FF6
04802:  MOVLW  24
04804:  MOVWF  FF7
04806:  CALL   2F62
....................    lcd_gotoxy(1,3); 
0480A:  MOVLW  01
0480C:  MOVLB  2
0480E:  MOVWF  x0E
04810:  MOVLW  03
04812:  MOVWF  x0F
04814:  MOVLB  0
04816:  CALL   2E90
....................    printf(lcd_putc, "   (2) Horario      "); 
0481A:  MOVLW  EC
0481C:  MOVWF  FF6
0481E:  MOVLW  24
04820:  MOVWF  FF7
04822:  CALL   2F62
....................    lcd_gotoxy(1,4); 
04826:  MOVLW  01
04828:  MOVLB  2
0482A:  MOVWF  x0E
0482C:  MOVLW  04
0482E:  MOVWF  x0F
04830:  MOVLB  0
04832:  CALL   2E90
....................    printf(lcd_putc, "   (3) Elegir luces "); 
04836:  MOVLW  02
04838:  MOVWF  FF6
0483A:  MOVLW  25
0483C:  MOVWF  FF7
0483E:  CALL   2F62
....................    break; 
04842:  BRA    4B52
....................  
....................    case 52: 
.................... //   Tiempo(); // Tomo el tiempo 
.................... //   Ambiente(); // Tomo las variables ambientales (incluidas las remotas con cuidado de no saturar el bus) 
.................... //   output_low(LCDLED); 
....................    lcd_gotoxy(1,1); 
04844:  MOVLW  01
04846:  MOVLB  2
04848:  MOVWF  x0E
0484A:  MOVWF  x0F
0484C:  MOVLB  0
0484E:  CALL   2E90
....................    printf(lcd_putc, "==== Automatico ===="); 
04852:  MOVLW  18
04854:  MOVWF  FF6
04856:  MOVLW  25
04858:  MOVWF  FF7
0485A:  CALL   2F62
....................    lcd_gotoxy(1,2); 
0485E:  MOVLW  01
04860:  MOVLB  2
04862:  MOVWF  x0E
04864:  MOVLW  02
04866:  MOVWF  x0F
04868:  MOVLB  0
0486A:  CALL   2E90
....................    printf(lcd_putc, "   (1) Elegir dias  "); 
0486E:  MOVLW  2E
04870:  MOVWF  FF6
04872:  MOVLW  25
04874:  MOVWF  FF7
04876:  CALL   2F62
....................    lcd_gotoxy(1,3); 
0487A:  MOVLW  01
0487C:  MOVLB  2
0487E:  MOVWF  x0E
04880:  MOVLW  03
04882:  MOVWF  x0F
04884:  MOVLB  0
04886:  CALL   2E90
....................    printf(lcd_putc, " ~ (2) Horario      "); 
0488A:  MOVLW  44
0488C:  MOVWF  FF6
0488E:  MOVLW  25
04890:  MOVWF  FF7
04892:  CALL   2F62
....................    lcd_gotoxy(1,4); 
04896:  MOVLW  01
04898:  MOVLB  2
0489A:  MOVWF  x0E
0489C:  MOVLW  04
0489E:  MOVWF  x0F
048A0:  MOVLB  0
048A2:  CALL   2E90
....................    printf(lcd_putc, "   (3) Elegir luces "); 
048A6:  MOVLW  5A
048A8:  MOVWF  FF6
048AA:  MOVLW  25
048AC:  MOVWF  FF7
048AE:  CALL   2F62
....................    break; 
048B2:  BRA    4B52
....................  
....................    case 53: 
.................... //   Tiempo(); // Tomo el tiempo 
.................... //   Ambiente(); // Tomo las variables ambientales (incluidas las remotas con cuidado de no saturar el bus) 
.................... //   output_low(LCDLED); 
....................    lcd_gotoxy(1,1); 
048B4:  MOVLW  01
048B6:  MOVLB  2
048B8:  MOVWF  x0E
048BA:  MOVWF  x0F
048BC:  MOVLB  0
048BE:  CALL   2E90
....................    printf(lcd_putc, "==== Automatico ===="); 
048C2:  MOVLW  70
048C4:  MOVWF  FF6
048C6:  MOVLW  25
048C8:  MOVWF  FF7
048CA:  CALL   2F62
....................    lcd_gotoxy(1,2); 
048CE:  MOVLW  01
048D0:  MOVLB  2
048D2:  MOVWF  x0E
048D4:  MOVLW  02
048D6:  MOVWF  x0F
048D8:  MOVLB  0
048DA:  CALL   2E90
....................    printf(lcd_putc, "   (1) Elegir dias  "); 
048DE:  MOVLW  86
048E0:  MOVWF  FF6
048E2:  MOVLW  25
048E4:  MOVWF  FF7
048E6:  CALL   2F62
....................    lcd_gotoxy(1,3); 
048EA:  MOVLW  01
048EC:  MOVLB  2
048EE:  MOVWF  x0E
048F0:  MOVLW  03
048F2:  MOVWF  x0F
048F4:  MOVLB  0
048F6:  CALL   2E90
....................    printf(lcd_putc, "   (2) Horario      "); 
048FA:  MOVLW  9C
048FC:  MOVWF  FF6
048FE:  MOVLW  25
04900:  MOVWF  FF7
04902:  CALL   2F62
....................    lcd_gotoxy(1,4); 
04906:  MOVLW  01
04908:  MOVLB  2
0490A:  MOVWF  x0E
0490C:  MOVLW  04
0490E:  MOVWF  x0F
04910:  MOVLB  0
04912:  CALL   2E90
....................    printf(lcd_putc, " ~ (3) Elegir luces "); 
04916:  MOVLW  B2
04918:  MOVWF  FF6
0491A:  MOVLW  25
0491C:  MOVWF  FF7
0491E:  CALL   2F62
....................    break; 
04922:  BRA    4B52
....................  
....................    case 61: 
.................... //   Tiempo(); // Tomo el tiempo 
.................... //   Ambiente(); // Tomo las variables ambientales (incluidas las remotas con cuidado de no saturar el bus) 
.................... //   output_low(LCDLED); 
....................    lcd_gotoxy(1,1); 
04924:  MOVLW  01
04926:  MOVLB  2
04928:  MOVWF  x0E
0492A:  MOVWF  x0F
0492C:  MOVLB  0
0492E:  CALL   2E90
....................    printf(lcd_putc, "=== Configuracion =="); 
04932:  MOVLW  C8
04934:  MOVWF  FF6
04936:  MOVLW  25
04938:  MOVWF  FF7
0493A:  CALL   2F62
....................    lcd_gotoxy(1,2); 
0493E:  MOVLW  01
04940:  MOVLB  2
04942:  MOVWF  x0E
04944:  MOVLW  02
04946:  MOVWF  x0F
04948:  MOVLB  0
0494A:  CALL   2E90
....................    printf(lcd_putc, " ~ (1) Cambiar Clave"); 
0494E:  MOVLW  DE
04950:  MOVWF  FF6
04952:  MOVLW  25
04954:  MOVWF  FF7
04956:  CALL   2F62
....................    lcd_gotoxy(1,3); 
0495A:  MOVLW  01
0495C:  MOVLB  2
0495E:  MOVWF  x0E
04960:  MOVLW  03
04962:  MOVWF  x0F
04964:  MOVLB  0
04966:  CALL   2E90
....................    printf(lcd_putc, "   (2) Fecha y hora "); 
0496A:  MOVLW  F4
0496C:  MOVWF  FF6
0496E:  MOVLW  25
04970:  MOVWF  FF7
04972:  CALL   2F62
....................    lcd_gotoxy(1,4); 
04976:  MOVLW  01
04978:  MOVLB  2
0497A:  MOVWF  x0E
0497C:  MOVLW  04
0497E:  MOVWF  x0F
04980:  MOVLB  0
04982:  CALL   2E90
....................    printf(lcd_putc, "   (3) Fotocelula   "); 
04986:  MOVLW  0A
04988:  MOVWF  FF6
0498A:  MOVLW  26
0498C:  MOVWF  FF7
0498E:  CALL   2F62
....................    break; 
04992:  BRA    4B52
....................  
....................    case 62: 
.................... //   Tiempo(); // Tomo el tiempo 
.................... //   Ambiente(); // Tomo las variables ambientales (incluidas las remotas con cuidado de no saturar el bus) 
.................... //   output_low(LCDLED); 
....................    lcd_gotoxy(1,1); 
04994:  MOVLW  01
04996:  MOVLB  2
04998:  MOVWF  x0E
0499A:  MOVWF  x0F
0499C:  MOVLB  0
0499E:  CALL   2E90
....................    printf(lcd_putc, "=== Configuracion =="); 
049A2:  MOVLW  20
049A4:  MOVWF  FF6
049A6:  MOVLW  26
049A8:  MOVWF  FF7
049AA:  CALL   2F62
....................    lcd_gotoxy(1,2); 
049AE:  MOVLW  01
049B0:  MOVLB  2
049B2:  MOVWF  x0E
049B4:  MOVLW  02
049B6:  MOVWF  x0F
049B8:  MOVLB  0
049BA:  CALL   2E90
....................    printf(lcd_putc, "   (1) Cambiar Clave"); 
049BE:  MOVLW  36
049C0:  MOVWF  FF6
049C2:  MOVLW  26
049C4:  MOVWF  FF7
049C6:  CALL   2F62
....................    lcd_gotoxy(1,3); 
049CA:  MOVLW  01
049CC:  MOVLB  2
049CE:  MOVWF  x0E
049D0:  MOVLW  03
049D2:  MOVWF  x0F
049D4:  MOVLB  0
049D6:  CALL   2E90
....................    printf(lcd_putc, " ~ (2) Fecha y hora "); 
049DA:  MOVLW  4C
049DC:  MOVWF  FF6
049DE:  MOVLW  26
049E0:  MOVWF  FF7
049E2:  CALL   2F62
....................    lcd_gotoxy(1,4); 
049E6:  MOVLW  01
049E8:  MOVLB  2
049EA:  MOVWF  x0E
049EC:  MOVLW  04
049EE:  MOVWF  x0F
049F0:  MOVLB  0
049F2:  CALL   2E90
....................    printf(lcd_putc, "   (3) Fotocelula   "); 
049F6:  MOVLW  62
049F8:  MOVWF  FF6
049FA:  MOVLW  26
049FC:  MOVWF  FF7
049FE:  CALL   2F62
....................    break; 
04A02:  BRA    4B52
....................  
....................    case 63: 
.................... //   Tiempo(); // Tomo el tiempo 
.................... //   Ambiente(); // Tomo las variables ambientales (incluidas las remotas con cuidado de no saturar el bus) 
.................... //   output_low(LCDLED); 
....................    lcd_gotoxy(1,1); 
04A04:  MOVLW  01
04A06:  MOVLB  2
04A08:  MOVWF  x0E
04A0A:  MOVWF  x0F
04A0C:  MOVLB  0
04A0E:  CALL   2E90
....................    printf(lcd_putc, "=== Configuracion =="); 
04A12:  MOVLW  78
04A14:  MOVWF  FF6
04A16:  MOVLW  26
04A18:  MOVWF  FF7
04A1A:  CALL   2F62
....................    lcd_gotoxy(1,2); 
04A1E:  MOVLW  01
04A20:  MOVLB  2
04A22:  MOVWF  x0E
04A24:  MOVLW  02
04A26:  MOVWF  x0F
04A28:  MOVLB  0
04A2A:  CALL   2E90
....................    printf(lcd_putc, "   (2) Fecha y hora "); 
04A2E:  MOVLW  8E
04A30:  MOVWF  FF6
04A32:  MOVLW  26
04A34:  MOVWF  FF7
04A36:  CALL   2F62
....................    lcd_gotoxy(1,3); 
04A3A:  MOVLW  01
04A3C:  MOVLB  2
04A3E:  MOVWF  x0E
04A40:  MOVLW  03
04A42:  MOVWF  x0F
04A44:  MOVLB  0
04A46:  CALL   2E90
....................    printf(lcd_putc, " ~ (3) Fotocelula   "); 
04A4A:  MOVLW  A4
04A4C:  MOVWF  FF6
04A4E:  MOVLW  26
04A50:  MOVWF  FF7
04A52:  CALL   2F62
....................    lcd_gotoxy(1,4); 
04A56:  MOVLW  01
04A58:  MOVLB  2
04A5A:  MOVWF  x0E
04A5C:  MOVLW  04
04A5E:  MOVWF  x0F
04A60:  MOVLB  0
04A62:  CALL   2E90
....................    printf(lcd_putc, "   (4) Resetear :O  "); 
04A66:  MOVLW  BA
04A68:  MOVWF  FF6
04A6A:  MOVLW  26
04A6C:  MOVWF  FF7
04A6E:  CALL   2F62
....................    break; 
04A72:  BRA    4B52
....................  
....................    case 64: 
.................... //   Tiempo(); // Tomo el tiempo 
.................... //   Ambiente(); // Tomo las variables ambientales (incluidas las remotas con cuidado de no saturar el bus) 
.................... //   output_low(LCDLED); 
....................    lcd_gotoxy(1,1); 
04A74:  MOVLW  01
04A76:  MOVLB  2
04A78:  MOVWF  x0E
04A7A:  MOVWF  x0F
04A7C:  MOVLB  0
04A7E:  CALL   2E90
....................    printf(lcd_putc, "=== Configuracion =="); 
04A82:  MOVLW  D0
04A84:  MOVWF  FF6
04A86:  MOVLW  26
04A88:  MOVWF  FF7
04A8A:  CALL   2F62
....................    lcd_gotoxy(1,2); 
04A8E:  MOVLW  01
04A90:  MOVLB  2
04A92:  MOVWF  x0E
04A94:  MOVLW  02
04A96:  MOVWF  x0F
04A98:  MOVLB  0
04A9A:  CALL   2E90
....................    printf(lcd_putc, "   (3) Fotocelula   "); 
04A9E:  MOVLW  E6
04AA0:  MOVWF  FF6
04AA2:  MOVLW  26
04AA4:  MOVWF  FF7
04AA6:  CALL   2F62
....................    lcd_gotoxy(1,3); 
04AAA:  MOVLW  01
04AAC:  MOVLB  2
04AAE:  MOVWF  x0E
04AB0:  MOVLW  03
04AB2:  MOVWF  x0F
04AB4:  MOVLB  0
04AB6:  CALL   2E90
....................    printf(lcd_putc, " ~ (4) Resetear :O  "); 
04ABA:  MOVLW  FC
04ABC:  MOVWF  FF6
04ABE:  MOVLW  26
04AC0:  MOVWF  FF7
04AC2:  CALL   2F62
....................    lcd_gotoxy(1,4); 
04AC6:  MOVLW  01
04AC8:  MOVLB  2
04ACA:  MOVWF  x0E
04ACC:  MOVLW  04
04ACE:  MOVWF  x0F
04AD0:  MOVLB  0
04AD2:  CALL   2E90
....................    printf(lcd_putc, "   (5) Acerca de..  "); 
04AD6:  MOVLW  12
04AD8:  MOVWF  FF6
04ADA:  MOVLW  27
04ADC:  MOVWF  FF7
04ADE:  CALL   2F62
....................    break; 
04AE2:  BRA    4B52
....................  
....................  
....................    case 65: 
.................... //   Tiempo(); // Tomo el tiempo 
.................... //   Ambiente(); // Tomo las variables ambientales (incluidas las remotas con cuidado de no saturar el bus) 
.................... //   output_low(LCDLED); 
....................    lcd_gotoxy(1,1); 
04AE4:  MOVLW  01
04AE6:  MOVLB  2
04AE8:  MOVWF  x0E
04AEA:  MOVWF  x0F
04AEC:  MOVLB  0
04AEE:  CALL   2E90
....................    printf(lcd_putc, "=== Configuracion =="); 
04AF2:  MOVLW  28
04AF4:  MOVWF  FF6
04AF6:  MOVLW  27
04AF8:  MOVWF  FF7
04AFA:  CALL   2F62
....................    lcd_gotoxy(1,2); 
04AFE:  MOVLW  01
04B00:  MOVLB  2
04B02:  MOVWF  x0E
04B04:  MOVLW  02
04B06:  MOVWF  x0F
04B08:  MOVLB  0
04B0A:  CALL   2E90
....................    printf(lcd_putc, "   (3) Fotocelula   "); 
04B0E:  MOVLW  3E
04B10:  MOVWF  FF6
04B12:  MOVLW  27
04B14:  MOVWF  FF7
04B16:  CALL   2F62
....................    lcd_gotoxy(1,3); 
04B1A:  MOVLW  01
04B1C:  MOVLB  2
04B1E:  MOVWF  x0E
04B20:  MOVLW  03
04B22:  MOVWF  x0F
04B24:  MOVLB  0
04B26:  CALL   2E90
....................    printf(lcd_putc, "   (4) Resetear :O  "); 
04B2A:  MOVLW  54
04B2C:  MOVWF  FF6
04B2E:  MOVLW  27
04B30:  MOVWF  FF7
04B32:  CALL   2F62
....................    lcd_gotoxy(1,4); 
04B36:  MOVLW  01
04B38:  MOVLB  2
04B3A:  MOVWF  x0E
04B3C:  MOVLW  04
04B3E:  MOVWF  x0F
04B40:  MOVLB  0
04B42:  CALL   2E90
....................    printf(lcd_putc, " ~ (5) Acerca de..  "); 
04B46:  MOVLW  6A
04B48:  MOVWF  FF6
04B4A:  MOVLW  27
04B4C:  MOVWF  FF7
04B4E:  CALL   2F62
....................    break; 
....................   
.................... } 
04B52:  RETURN 0
....................  
.................... } 
....................  
.................... void Tiempo(){ 
.................... restart_wdt(); 
*
013B0:  CLRWDT
.................... ds1307_get_date(day,month,year,dow); 
.................... delay_ms(2); 
*
01466:  MOVLW  02
01468:  MOVLB  2
0146A:  MOVWF  x20
0146C:  MOVLB  0
0146E:  RCALL  1386
....................  
.................... ds1307_get_time(hrs,min,sec); 
.................... delay_ms(2); 
*
0150E:  MOVLW  02
01510:  MOVLB  2
01512:  MOVWF  x20
01514:  MOVLB  0
01516:  RCALL  1386
....................  
.................... if ((hrs == 0) && (min == 0) && (sec == 0)){ // Empieza un nuevo dia, reseteamos los valores maximos y minimos 
01518:  MOVF   23,F
0151A:  BNZ   152A
0151C:  MOVF   22,F
0151E:  BNZ   152A
01520:  MOVF   21,F
01522:  BNZ   152A
.................... TempMax[0]=0; 
01524:  CLRF   29
.................... TempMin[0]=255; 
01526:  SETF   2D
.................... SolMax[0]=0; 
01528:  CLRF   31
.................... } 
....................  
.................... switch (dow){ 
0152A:  MOVF   27,W
0152C:  XORLW  01
0152E:  BZ    154A
01530:  XORLW  03
01532:  BZ    1564
01534:  XORLW  01
01536:  BZ    157E
01538:  XORLW  07
0153A:  BZ    1598
0153C:  XORLW  01
0153E:  BZ    15B2
01540:  XORLW  03
01542:  BZ    15CC
01544:  XORLW  01
01546:  BZ    15E6
01548:  BRA    1600
....................    case 1: 
....................    Dia="Lun"; 
0154A:  CLRF   FEA
0154C:  MOVLW  3B
0154E:  MOVWF  FE9
01550:  MOVLW  00
01552:  CALL   01B6
01556:  TBLRD*-
01558:  TBLRD*+
0155A:  MOVF   FF5,W
0155C:  MOVWF  FEE
0155E:  IORLW  00
01560:  BNZ   1558
....................    break; 
01562:  BRA    1618
....................  
....................    case 2: 
....................    Dia="Mar"; 
01564:  CLRF   FEA
01566:  MOVLW  3B
01568:  MOVWF  FE9
0156A:  MOVLW  00
0156C:  CALL   01DE
01570:  TBLRD*-
01572:  TBLRD*+
01574:  MOVF   FF5,W
01576:  MOVWF  FEE
01578:  IORLW  00
0157A:  BNZ   1572
....................    break; 
0157C:  BRA    1618
....................  
....................    case 3: 
....................    Dia="Mie"; 
0157E:  CLRF   FEA
01580:  MOVLW  3B
01582:  MOVWF  FE9
01584:  MOVLW  00
01586:  CALL   0454
0158A:  TBLRD*-
0158C:  TBLRD*+
0158E:  MOVF   FF5,W
01590:  MOVWF  FEE
01592:  IORLW  00
01594:  BNZ   158C
....................    break; 
01596:  BRA    1618
....................  
....................    case 4: 
....................    Dia="Jue"; 
01598:  CLRF   FEA
0159A:  MOVLW  3B
0159C:  MOVWF  FE9
0159E:  MOVLW  00
015A0:  CALL   021E
015A4:  TBLRD*-
015A6:  TBLRD*+
015A8:  MOVF   FF5,W
015AA:  MOVWF  FEE
015AC:  IORLW  00
015AE:  BNZ   15A6
....................    break; 
015B0:  BRA    1618
....................  
....................    case 5: 
....................    Dia="Vie"; 
015B2:  CLRF   FEA
015B4:  MOVLW  3B
015B6:  MOVWF  FE9
015B8:  MOVLW  00
015BA:  CALL   0232
015BE:  TBLRD*-
015C0:  TBLRD*+
015C2:  MOVF   FF5,W
015C4:  MOVWF  FEE
015C6:  IORLW  00
015C8:  BNZ   15C0
....................    break; 
015CA:  BRA    1618
....................  
....................    case 6: 
....................    Dia="Sab"; 
015CC:  CLRF   FEA
015CE:  MOVLW  3B
015D0:  MOVWF  FE9
015D2:  MOVLW  00
015D4:  CALL   0246
015D8:  TBLRD*-
015DA:  TBLRD*+
015DC:  MOVF   FF5,W
015DE:  MOVWF  FEE
015E0:  IORLW  00
015E2:  BNZ   15DA
....................    break; 
015E4:  BRA    1618
....................  
....................    case 7: 
....................    Dia="Dom"; 
015E6:  CLRF   FEA
015E8:  MOVLW  3B
015EA:  MOVWF  FE9
015EC:  MOVLW  00
015EE:  CALL   025A
015F2:  TBLRD*-
015F4:  TBLRD*+
015F6:  MOVF   FF5,W
015F8:  MOVWF  FEE
015FA:  IORLW  00
015FC:  BNZ   15F4
....................    break; 
015FE:  BRA    1618
....................  
....................    default: 
....................    Dia="??"; 
01600:  CLRF   FEA
01602:  MOVLW  3B
01604:  MOVWF  FE9
01606:  MOVLW  00
01608:  CALL   0468
0160C:  TBLRD*-
0160E:  TBLRD*+
01610:  MOVF   FF5,W
01612:  MOVWF  FEE
01614:  IORLW  00
01616:  BNZ   160E
....................    break; 
.................... } 
....................  
.................... switch (month){ 
01618:  MOVF   25,W
0161A:  XORLW  01
0161C:  BZ    1656
0161E:  XORLW  03
01620:  BZ    1670
01622:  XORLW  01
01624:  BZ    168A
01626:  XORLW  07
01628:  BZ    16A4
0162A:  XORLW  01
0162C:  BZ    16BE
0162E:  XORLW  03
01630:  BZ    16D8
01632:  XORLW  01
01634:  BZ    16F2
01636:  XORLW  0F
01638:  BTFSC  FD8.2
0163A:  BRA    170C
0163C:  XORLW  01
0163E:  BTFSC  FD8.2
01640:  BRA    1726
01642:  XORLW  03
01644:  BTFSC  FD8.2
01646:  BRA    1740
01648:  XORLW  01
0164A:  BTFSC  FD8.2
0164C:  BRA    175A
0164E:  XORLW  07
01650:  BTFSC  FD8.2
01652:  BRA    1774
01654:  BRA    178E
....................    case 1: 
....................    Mes="Ene"; 
01656:  CLRF   FEA
01658:  MOVLW  3F
0165A:  MOVWF  FE9
0165C:  MOVLW  00
0165E:  CALL   0378
01662:  TBLRD*-
01664:  TBLRD*+
01666:  MOVF   FF5,W
01668:  MOVWF  FEE
0166A:  IORLW  00
0166C:  BNZ   1664
....................    break; 
0166E:  BRA    17A6
....................  
....................    case 2: 
....................    Mes="Feb"; 
01670:  CLRF   FEA
01672:  MOVLW  3F
01674:  MOVWF  FE9
01676:  MOVLW  00
01678:  CALL   038C
0167C:  TBLRD*-
0167E:  TBLRD*+
01680:  MOVF   FF5,W
01682:  MOVWF  FEE
01684:  IORLW  00
01686:  BNZ   167E
....................    break; 
01688:  BRA    17A6
....................  
....................    case 3: 
....................    Mes="Mar"; 
0168A:  CLRF   FEA
0168C:  MOVLW  3F
0168E:  MOVWF  FE9
01690:  MOVLW  00
01692:  CALL   01DE
01696:  TBLRD*-
01698:  TBLRD*+
0169A:  MOVF   FF5,W
0169C:  MOVWF  FEE
0169E:  IORLW  00
016A0:  BNZ   1698
....................    break; 
016A2:  BRA    17A6
....................  
....................    case 4: 
....................    Mes="Abr"; 
016A4:  CLRF   FEA
016A6:  MOVLW  3F
016A8:  MOVWF  FE9
016AA:  MOVLW  00
016AC:  CALL   03A0
016B0:  TBLRD*-
016B2:  TBLRD*+
016B4:  MOVF   FF5,W
016B6:  MOVWF  FEE
016B8:  IORLW  00
016BA:  BNZ   16B2
....................    break; 
016BC:  BRA    17A6
....................  
....................    case 5: 
....................    Mes="May"; 
016BE:  CLRF   FEA
016C0:  MOVLW  3F
016C2:  MOVWF  FE9
016C4:  MOVLW  00
016C6:  CALL   03B4
016CA:  TBLRD*-
016CC:  TBLRD*+
016CE:  MOVF   FF5,W
016D0:  MOVWF  FEE
016D2:  IORLW  00
016D4:  BNZ   16CC
....................    break; 
016D6:  BRA    17A6
....................  
....................    case 6: 
....................    Mes="Jun"; 
016D8:  CLRF   FEA
016DA:  MOVLW  3F
016DC:  MOVWF  FE9
016DE:  MOVLW  00
016E0:  CALL   03C8
016E4:  TBLRD*-
016E6:  TBLRD*+
016E8:  MOVF   FF5,W
016EA:  MOVWF  FEE
016EC:  IORLW  00
016EE:  BNZ   16E6
....................    break; 
016F0:  BRA    17A6
....................  
....................    case 7: 
....................    Mes="Jul"; 
016F2:  CLRF   FEA
016F4:  MOVLW  3F
016F6:  MOVWF  FE9
016F8:  MOVLW  00
016FA:  CALL   03DC
016FE:  TBLRD*-
01700:  TBLRD*+
01702:  MOVF   FF5,W
01704:  MOVWF  FEE
01706:  IORLW  00
01708:  BNZ   1700
....................    break; 
0170A:  BRA    17A6
....................  
....................    case 8: 
....................    Mes="Ago"; 
0170C:  CLRF   FEA
0170E:  MOVLW  3F
01710:  MOVWF  FE9
01712:  MOVLW  00
01714:  CALL   03F0
01718:  TBLRD*-
0171A:  TBLRD*+
0171C:  MOVF   FF5,W
0171E:  MOVWF  FEE
01720:  IORLW  00
01722:  BNZ   171A
....................    break; 
01724:  BRA    17A6
....................  
....................    case 9: 
....................    Mes="Sep"; 
01726:  CLRF   FEA
01728:  MOVLW  3F
0172A:  MOVWF  FE9
0172C:  MOVLW  00
0172E:  CALL   0404
01732:  TBLRD*-
01734:  TBLRD*+
01736:  MOVF   FF5,W
01738:  MOVWF  FEE
0173A:  IORLW  00
0173C:  BNZ   1734
....................    break; 
0173E:  BRA    17A6
....................  
....................    case 10: 
....................    Mes="Oct"; 
01740:  CLRF   FEA
01742:  MOVLW  3F
01744:  MOVWF  FE9
01746:  MOVLW  00
01748:  CALL   0418
0174C:  TBLRD*-
0174E:  TBLRD*+
01750:  MOVF   FF5,W
01752:  MOVWF  FEE
01754:  IORLW  00
01756:  BNZ   174E
....................    break; 
01758:  BRA    17A6
....................  
....................    case 11: 
....................    Mes="Nov"; 
0175A:  CLRF   FEA
0175C:  MOVLW  3F
0175E:  MOVWF  FE9
01760:  MOVLW  00
01762:  CALL   042C
01766:  TBLRD*-
01768:  TBLRD*+
0176A:  MOVF   FF5,W
0176C:  MOVWF  FEE
0176E:  IORLW  00
01770:  BNZ   1768
....................    break; 
01772:  BRA    17A6
....................  
....................    case 12: 
....................    Mes="Dic"; 
01774:  CLRF   FEA
01776:  MOVLW  3F
01778:  MOVWF  FE9
0177A:  MOVLW  00
0177C:  CALL   0440
01780:  TBLRD*-
01782:  TBLRD*+
01784:  MOVF   FF5,W
01786:  MOVWF  FEE
01788:  IORLW  00
0178A:  BNZ   1782
....................    break; 
0178C:  BRA    17A6
....................     
....................    default: 
....................    Dia="??"; 
0178E:  CLRF   FEA
01790:  MOVLW  3B
01792:  MOVWF  FE9
01794:  MOVLW  00
01796:  CALL   0468
0179A:  TBLRD*-
0179C:  TBLRD*+
0179E:  MOVF   FF5,W
017A0:  MOVWF  FEE
017A2:  IORLW  00
017A4:  BNZ   179C
....................    break; 
....................  
.................... } 
017A6:  GOTO   1FAA (RETURN)
....................  
.................... } 
....................  
.................... void Ambiente(){ 
.................... restart_wdt(); 
*
01BEC:  CLRWDT
.................... state = get_data(); 
01BEE:  BRA    1B1C
01BF0:  MOVFF  01,20
....................  
.................... if (TempOut > TempMax[0]){ // tenemos una nueva temperatura maxima del dia 
01BF4:  MOVF   43,W
01BF6:  SUBWF  29,W
01BF8:  BTFSC  FD8.0
01BFA:  BRA    1D2C
.................... TempMax[0] = TempOut; 
01BFC:  MOVFF  43,29
.................... long puntero; 
.................... puntero = (long) ((dow * 5) + 95); 
01C00:  MOVF   27,W
01C02:  MULLW  05
01C04:  MOVF   FF3,W
01C06:  ADDLW  5F
01C08:  MOVLB  2
01C0A:  CLRF   x18
01C0C:  MOVWF  x17
.................... write_eeprom(puntero,TempMax[0]); 
01C0E:  MOVF   FF2,W
01C10:  MOVWF  00
01C12:  BCF    FF2.7
01C14:  MOVFF  218,FAA
01C18:  MOVFF  217,FA9
01C1C:  MOVFF  29,FA8
01C20:  BCF    FA6.6
01C22:  BCF    FA6.7
01C24:  BSF    FA6.2
01C26:  MOVLB  F
01C28:  MOVLW  55
01C2A:  MOVWF  FA7
01C2C:  MOVLW  AA
01C2E:  MOVWF  FA7
01C30:  BSF    FA6.1
01C32:  BTFSC  FA6.1
01C34:  BRA    1C32
01C36:  BCF    FA6.2
01C38:  MOVF   00,W
01C3A:  IORWF  FF2,F
.................... delay_ms(2); 
01C3C:  MOVLW  02
01C3E:  MOVLB  2
01C40:  MOVWF  x20
01C42:  MOVLB  0
01C44:  CALL   1386
.................... TempMax[1] = day; 
01C48:  MOVFF  24,2A
.................... puntero = (long) ((dow * 5) + 96); 
01C4C:  MOVF   27,W
01C4E:  MULLW  05
01C50:  MOVF   FF3,W
01C52:  ADDLW  60
01C54:  MOVLB  2
01C56:  CLRF   x18
01C58:  MOVWF  x17
.................... write_eeprom(puntero,TempMax[1]); 
01C5A:  MOVF   FF2,W
01C5C:  MOVWF  00
01C5E:  BCF    FF2.7
01C60:  MOVFF  218,FAA
01C64:  MOVFF  217,FA9
01C68:  MOVFF  2A,FA8
01C6C:  BCF    FA6.6
01C6E:  BCF    FA6.7
01C70:  BSF    FA6.2
01C72:  MOVLB  F
01C74:  MOVLW  55
01C76:  MOVWF  FA7
01C78:  MOVLW  AA
01C7A:  MOVWF  FA7
01C7C:  BSF    FA6.1
01C7E:  BTFSC  FA6.1
01C80:  BRA    1C7E
01C82:  BCF    FA6.2
01C84:  MOVF   00,W
01C86:  IORWF  FF2,F
.................... delay_ms(2); 
01C88:  MOVLW  02
01C8A:  MOVLB  2
01C8C:  MOVWF  x20
01C8E:  MOVLB  0
01C90:  CALL   1386
.................... TempMax[2] = hrs; 
01C94:  MOVFF  23,2B
.................... puntero = (long) ((dow * 5) + 97); 
01C98:  MOVF   27,W
01C9A:  MULLW  05
01C9C:  MOVF   FF3,W
01C9E:  ADDLW  61
01CA0:  MOVLB  2
01CA2:  CLRF   x18
01CA4:  MOVWF  x17
.................... write_eeprom(puntero,TempMax[2]); 
01CA6:  MOVF   FF2,W
01CA8:  MOVWF  00
01CAA:  BCF    FF2.7
01CAC:  MOVFF  218,FAA
01CB0:  MOVFF  217,FA9
01CB4:  MOVFF  2B,FA8
01CB8:  BCF    FA6.6
01CBA:  BCF    FA6.7
01CBC:  BSF    FA6.2
01CBE:  MOVLB  F
01CC0:  MOVLW  55
01CC2:  MOVWF  FA7
01CC4:  MOVLW  AA
01CC6:  MOVWF  FA7
01CC8:  BSF    FA6.1
01CCA:  BTFSC  FA6.1
01CCC:  BRA    1CCA
01CCE:  BCF    FA6.2
01CD0:  MOVF   00,W
01CD2:  IORWF  FF2,F
.................... delay_ms(2); 
01CD4:  MOVLW  02
01CD6:  MOVLB  2
01CD8:  MOVWF  x20
01CDA:  MOVLB  0
01CDC:  CALL   1386
.................... TempMax[3] = min; 
01CE0:  MOVFF  22,2C
.................... puntero = (long) ((dow * 5) + 98); 
01CE4:  MOVF   27,W
01CE6:  MULLW  05
01CE8:  MOVF   FF3,W
01CEA:  ADDLW  62
01CEC:  MOVLB  2
01CEE:  CLRF   x18
01CF0:  MOVWF  x17
.................... write_eeprom(puntero,TempMax[3]); 
01CF2:  MOVF   FF2,W
01CF4:  MOVWF  00
01CF6:  BCF    FF2.7
01CF8:  MOVFF  218,FAA
01CFC:  MOVFF  217,FA9
01D00:  MOVFF  2C,FA8
01D04:  BCF    FA6.6
01D06:  BCF    FA6.7
01D08:  BSF    FA6.2
01D0A:  MOVLB  F
01D0C:  MOVLW  55
01D0E:  MOVWF  FA7
01D10:  MOVLW  AA
01D12:  MOVWF  FA7
01D14:  BSF    FA6.1
01D16:  BTFSC  FA6.1
01D18:  BRA    1D16
01D1A:  BCF    FA6.2
01D1C:  MOVF   00,W
01D1E:  IORWF  FF2,F
.................... delay_ms(2); 
01D20:  MOVLW  02
01D22:  MOVLB  2
01D24:  MOVWF  x20
01D26:  MOVLB  0
01D28:  CALL   1386
.................... } 
....................  
.................... if (TempOut < TempMin[0]){ // tenemos una nueva temperatura minima del dia 
01D2C:  MOVF   2D,W
01D2E:  SUBWF  43,W
01D30:  BTFSC  FD8.0
01D32:  BRA    1E64
.................... TempMin[0] = TempOut; 
01D34:  MOVFF  43,2D
.................... long puntero; 
.................... puntero = (long) ((dow * 5) + 130); 
01D38:  MOVF   27,W
01D3A:  MULLW  05
01D3C:  MOVF   FF3,W
01D3E:  ADDLW  82
01D40:  MOVLB  2
01D42:  CLRF   x1A
01D44:  MOVWF  x19
.................... write_eeprom(puntero,TempMin[0]); 
01D46:  MOVF   FF2,W
01D48:  MOVWF  00
01D4A:  BCF    FF2.7
01D4C:  MOVFF  21A,FAA
01D50:  MOVFF  219,FA9
01D54:  MOVFF  2D,FA8
01D58:  BCF    FA6.6
01D5A:  BCF    FA6.7
01D5C:  BSF    FA6.2
01D5E:  MOVLB  F
01D60:  MOVLW  55
01D62:  MOVWF  FA7
01D64:  MOVLW  AA
01D66:  MOVWF  FA7
01D68:  BSF    FA6.1
01D6A:  BTFSC  FA6.1
01D6C:  BRA    1D6A
01D6E:  BCF    FA6.2
01D70:  MOVF   00,W
01D72:  IORWF  FF2,F
.................... delay_ms(2); 
01D74:  MOVLW  02
01D76:  MOVLB  2
01D78:  MOVWF  x20
01D7A:  MOVLB  0
01D7C:  CALL   1386
.................... TempMin[1] = day; 
01D80:  MOVFF  24,2E
.................... puntero = (long) ((dow * 5) + 131); 
01D84:  MOVF   27,W
01D86:  MULLW  05
01D88:  MOVF   FF3,W
01D8A:  ADDLW  83
01D8C:  MOVLB  2
01D8E:  CLRF   x1A
01D90:  MOVWF  x19
.................... write_eeprom(puntero,TempMin[1]); 
01D92:  MOVF   FF2,W
01D94:  MOVWF  00
01D96:  BCF    FF2.7
01D98:  MOVFF  21A,FAA
01D9C:  MOVFF  219,FA9
01DA0:  MOVFF  2E,FA8
01DA4:  BCF    FA6.6
01DA6:  BCF    FA6.7
01DA8:  BSF    FA6.2
01DAA:  MOVLB  F
01DAC:  MOVLW  55
01DAE:  MOVWF  FA7
01DB0:  MOVLW  AA
01DB2:  MOVWF  FA7
01DB4:  BSF    FA6.1
01DB6:  BTFSC  FA6.1
01DB8:  BRA    1DB6
01DBA:  BCF    FA6.2
01DBC:  MOVF   00,W
01DBE:  IORWF  FF2,F
.................... delay_ms(2); 
01DC0:  MOVLW  02
01DC2:  MOVLB  2
01DC4:  MOVWF  x20
01DC6:  MOVLB  0
01DC8:  CALL   1386
.................... TempMin[2] = hrs; 
01DCC:  MOVFF  23,2F
.................... puntero = (long) ((dow * 5) + 132); 
01DD0:  MOVF   27,W
01DD2:  MULLW  05
01DD4:  MOVF   FF3,W
01DD6:  ADDLW  84
01DD8:  MOVLB  2
01DDA:  CLRF   x1A
01DDC:  MOVWF  x19
.................... write_eeprom(puntero,TempMin[2]); 
01DDE:  MOVF   FF2,W
01DE0:  MOVWF  00
01DE2:  BCF    FF2.7
01DE4:  MOVFF  21A,FAA
01DE8:  MOVFF  219,FA9
01DEC:  MOVFF  2F,FA8
01DF0:  BCF    FA6.6
01DF2:  BCF    FA6.7
01DF4:  BSF    FA6.2
01DF6:  MOVLB  F
01DF8:  MOVLW  55
01DFA:  MOVWF  FA7
01DFC:  MOVLW  AA
01DFE:  MOVWF  FA7
01E00:  BSF    FA6.1
01E02:  BTFSC  FA6.1
01E04:  BRA    1E02
01E06:  BCF    FA6.2
01E08:  MOVF   00,W
01E0A:  IORWF  FF2,F
.................... delay_ms(2); 
01E0C:  MOVLW  02
01E0E:  MOVLB  2
01E10:  MOVWF  x20
01E12:  MOVLB  0
01E14:  CALL   1386
.................... TempMin[3] = min; 
01E18:  MOVFF  22,30
.................... puntero = (long) ((dow * 5) + 133); 
01E1C:  MOVF   27,W
01E1E:  MULLW  05
01E20:  MOVF   FF3,W
01E22:  ADDLW  85
01E24:  MOVLB  2
01E26:  CLRF   x1A
01E28:  MOVWF  x19
.................... write_eeprom(puntero,TempMin[3]); 
01E2A:  MOVF   FF2,W
01E2C:  MOVWF  00
01E2E:  BCF    FF2.7
01E30:  MOVFF  21A,FAA
01E34:  MOVFF  219,FA9
01E38:  MOVFF  30,FA8
01E3C:  BCF    FA6.6
01E3E:  BCF    FA6.7
01E40:  BSF    FA6.2
01E42:  MOVLB  F
01E44:  MOVLW  55
01E46:  MOVWF  FA7
01E48:  MOVLW  AA
01E4A:  MOVWF  FA7
01E4C:  BSF    FA6.1
01E4E:  BTFSC  FA6.1
01E50:  BRA    1E4E
01E52:  BCF    FA6.2
01E54:  MOVF   00,W
01E56:  IORWF  FF2,F
.................... delay_ms(2); 
01E58:  MOVLW  02
01E5A:  MOVLB  2
01E5C:  MOVWF  x20
01E5E:  MOVLB  0
01E60:  CALL   1386
.................... } 
....................  
.................... if (Sol > SolMax[0]){ // tenemos una nueva radiacion solar maxima 
01E64:  MOVF   44,W
01E66:  SUBWF  31,W
01E68:  BTFSC  FD8.0
01E6A:  BRA    1F9C
.................... SolMax[0] = Sol; 
01E6C:  MOVFF  44,31
.................... long puntero; 
.................... puntero = (long) ((dow * 5) + 165); 
01E70:  MOVF   27,W
01E72:  MULLW  05
01E74:  MOVF   FF3,W
01E76:  ADDLW  A5
01E78:  MOVLB  2
01E7A:  CLRF   x1C
01E7C:  MOVWF  x1B
.................... write_eeprom(puntero,SolMax[0]); 
01E7E:  MOVF   FF2,W
01E80:  MOVWF  00
01E82:  BCF    FF2.7
01E84:  MOVFF  21C,FAA
01E88:  MOVFF  21B,FA9
01E8C:  MOVFF  31,FA8
01E90:  BCF    FA6.6
01E92:  BCF    FA6.7
01E94:  BSF    FA6.2
01E96:  MOVLB  F
01E98:  MOVLW  55
01E9A:  MOVWF  FA7
01E9C:  MOVLW  AA
01E9E:  MOVWF  FA7
01EA0:  BSF    FA6.1
01EA2:  BTFSC  FA6.1
01EA4:  BRA    1EA2
01EA6:  BCF    FA6.2
01EA8:  MOVF   00,W
01EAA:  IORWF  FF2,F
.................... delay_ms(2); 
01EAC:  MOVLW  02
01EAE:  MOVLB  2
01EB0:  MOVWF  x20
01EB2:  MOVLB  0
01EB4:  CALL   1386
.................... SolMax[1] = day; 
01EB8:  MOVFF  24,32
.................... puntero = (long) ((dow * 5) + 166); 
01EBC:  MOVF   27,W
01EBE:  MULLW  05
01EC0:  MOVF   FF3,W
01EC2:  ADDLW  A6
01EC4:  MOVLB  2
01EC6:  CLRF   x1C
01EC8:  MOVWF  x1B
.................... write_eeprom(puntero,SolMax[1]); 
01ECA:  MOVF   FF2,W
01ECC:  MOVWF  00
01ECE:  BCF    FF2.7
01ED0:  MOVFF  21C,FAA
01ED4:  MOVFF  21B,FA9
01ED8:  MOVFF  32,FA8
01EDC:  BCF    FA6.6
01EDE:  BCF    FA6.7
01EE0:  BSF    FA6.2
01EE2:  MOVLB  F
01EE4:  MOVLW  55
01EE6:  MOVWF  FA7
01EE8:  MOVLW  AA
01EEA:  MOVWF  FA7
01EEC:  BSF    FA6.1
01EEE:  BTFSC  FA6.1
01EF0:  BRA    1EEE
01EF2:  BCF    FA6.2
01EF4:  MOVF   00,W
01EF6:  IORWF  FF2,F
.................... delay_ms(2); 
01EF8:  MOVLW  02
01EFA:  MOVLB  2
01EFC:  MOVWF  x20
01EFE:  MOVLB  0
01F00:  CALL   1386
.................... SolMax[2] = hrs; 
01F04:  MOVFF  23,33
.................... puntero = (long) ((dow * 5) + 167); 
01F08:  MOVF   27,W
01F0A:  MULLW  05
01F0C:  MOVF   FF3,W
01F0E:  ADDLW  A7
01F10:  MOVLB  2
01F12:  CLRF   x1C
01F14:  MOVWF  x1B
.................... write_eeprom(puntero,SolMax[2]); 
01F16:  MOVF   FF2,W
01F18:  MOVWF  00
01F1A:  BCF    FF2.7
01F1C:  MOVFF  21C,FAA
01F20:  MOVFF  21B,FA9
01F24:  MOVFF  33,FA8
01F28:  BCF    FA6.6
01F2A:  BCF    FA6.7
01F2C:  BSF    FA6.2
01F2E:  MOVLB  F
01F30:  MOVLW  55
01F32:  MOVWF  FA7
01F34:  MOVLW  AA
01F36:  MOVWF  FA7
01F38:  BSF    FA6.1
01F3A:  BTFSC  FA6.1
01F3C:  BRA    1F3A
01F3E:  BCF    FA6.2
01F40:  MOVF   00,W
01F42:  IORWF  FF2,F
.................... delay_ms(2); 
01F44:  MOVLW  02
01F46:  MOVLB  2
01F48:  MOVWF  x20
01F4A:  MOVLB  0
01F4C:  CALL   1386
.................... SolMax[3] = min; 
01F50:  MOVFF  22,34
.................... puntero = (long) ((dow * 5) + 168); 
01F54:  MOVF   27,W
01F56:  MULLW  05
01F58:  MOVF   FF3,W
01F5A:  ADDLW  A8
01F5C:  MOVLB  2
01F5E:  CLRF   x1C
01F60:  MOVWF  x1B
.................... write_eeprom(puntero,SolMax[3]); 
01F62:  MOVF   FF2,W
01F64:  MOVWF  00
01F66:  BCF    FF2.7
01F68:  MOVFF  21C,FAA
01F6C:  MOVFF  21B,FA9
01F70:  MOVFF  34,FA8
01F74:  BCF    FA6.6
01F76:  BCF    FA6.7
01F78:  BSF    FA6.2
01F7A:  MOVLB  F
01F7C:  MOVLW  55
01F7E:  MOVWF  FA7
01F80:  MOVLW  AA
01F82:  MOVWF  FA7
01F84:  BSF    FA6.1
01F86:  BTFSC  FA6.1
01F88:  BRA    1F86
01F8A:  BCF    FA6.2
01F8C:  MOVF   00,W
01F8E:  IORWF  FF2,F
.................... delay_ms(2); 
01F90:  MOVLW  02
01F92:  MOVLB  2
01F94:  MOVWF  x20
01F96:  MOVLB  0
01F98:  CALL   1386
.................... } 
01F9C:  GOTO   1FB4 (RETURN)
....................  
.................... } // fn 
....................  
.................... void Holding(){ 
.................... ONLCDLED; 
*
033F8:  BCF    F95.6
033FA:  BCF    F8C.6
.................... LIMPIARLCD; 
033FC:  MOVLW  80
033FE:  MOVWF  FF6
03400:  MOVLW  27
03402:  MOVWF  FF7
03404:  RCALL  2F62
.................... while (input(ARRIBA)==0 || input(ABAJO)==0 || input(OOKK)==0 || input(CANCEL)==0){ 
03406:  BSF    F93.0
03408:  BTFSS  F81.0
0340A:  BRA    341E
0340C:  BSF    F93.1
0340E:  BTFSS  F81.1
03410:  BRA    341E
03412:  BSF    F93.2
03414:  BTFSS  F81.2
03416:  BRA    341E
03418:  BSF    F93.3
0341A:  BTFSC  F81.3
0341C:  BRA    3452
.................... restart_wdt(); 
0341E:  CLRWDT
.................... lcd_gotoxy(1,2); 
03420:  MOVLW  01
03422:  MOVLB  2
03424:  MOVWF  x0E
03426:  MOVLW  02
03428:  MOVWF  x0F
0342A:  MOVLB  0
0342C:  RCALL  2E90
.................... printf(lcd_putc," Esta es la funcion"); 
0342E:  MOVLW  82
03430:  MOVWF  FF6
03432:  MOVLW  27
03434:  MOVWF  FF7
03436:  RCALL  2F62
.................... lcd_gotoxy(1,3); 
03438:  MOVLW  01
0343A:  MOVLB  2
0343C:  MOVWF  x0E
0343E:  MOVLW  03
03440:  MOVWF  x0F
03442:  MOVLB  0
03444:  RCALL  2E90
.................... printf(lcd_putc,"    Holding();   "); 
03446:  MOVLW  96
03448:  MOVWF  FF6
0344A:  MOVLW  27
0344C:  MOVWF  FF7
0344E:  RCALL  2F62
03450:  BRA    3406
....................  
.................... } // while 
03452:  GOTO   4C3C (RETURN)
....................  
.................... } //fn 
....................  
....................  
.................... void Notificador(){ 
.................... LIMPIARLCD; 
03456:  MOVLW  A8
03458:  MOVWF  FF6
0345A:  MOVLW  27
0345C:  MOVWF  FF7
0345E:  RCALL  2F62
.................... restart_wdt(); 
03460:  CLRWDT
.................... lcd_gotoxy(1,2); 
03462:  MOVLW  01
03464:  MOVLB  2
03466:  MOVWF  x0E
03468:  MOVLW  02
0346A:  MOVWF  x0F
0346C:  MOVLB  0
0346E:  RCALL  2E90
.................... printf(lcd_putc," Esta es la funcion"); 
03470:  MOVLW  AA
03472:  MOVWF  FF6
03474:  MOVLW  27
03476:  MOVWF  FF7
03478:  RCALL  2F62
.................... lcd_gotoxy(1,3); 
0347A:  MOVLW  01
0347C:  MOVLB  2
0347E:  MOVWF  x0E
03480:  MOVLW  03
03482:  MOVWF  x0F
03484:  MOVLB  0
03486:  RCALL  2E90
.................... printf(lcd_putc,"    Notificador();   "); 
03488:  MOVLW  BE
0348A:  MOVWF  FF6
0348C:  MOVLW  27
0348E:  MOVWF  FF7
03490:  RCALL  2F62
03492:  GOTO   4C48 (RETURN)
....................  
.................... } //fn 
....................  
....................  
.................... void AcercaDe(){ // se lleva el 5% de ROM 
.................... LIMPIARLCD; 
*
0B564:  MOVLW  D4
0B566:  MOVWF  FF6
0B568:  MOVLW  27
0B56A:  MOVWF  FF7
0B56C:  CALL   2F62
.................... restart_wdt(); 
0B570:  CLRWDT
.................... int k=0; 
0B572:  MOVLB  1
0B574:  CLRF   xEB
.................... while (input(ARRIBA)==1 && input(ABAJO)==1 && input(CANCEL)==1){ 
0B576:  BSF    F93.0
0B578:  BTFSS  F81.0
0B57A:  BRA    B936
0B57C:  BSF    F93.1
0B57E:  BTFSS  F81.1
0B580:  BRA    B936
0B582:  BSF    F93.3
0B584:  BTFSS  F81.3
0B586:  BRA    B936
.................... if (k<250) ++k; 
0B588:  MOVF   xEB,W
0B58A:  SUBLW  F9
0B58C:  BNC   B590
0B58E:  INCF   xEB,F
.................... lcd_gotoxy(1,1); 
0B590:  MOVLW  01
0B592:  MOVLB  2
0B594:  MOVWF  x0E
0B596:  MOVWF  x0F
0B598:  MOVLB  0
0B59A:  CALL   2E90
.................... if (k==0) printf(lcd_putc,"==                 C"); 
0B59E:  MOVLB  1
0B5A0:  MOVF   xEB,F
0B5A2:  BNZ   B5B4
0B5A4:  MOVLW  D6
0B5A6:  MOVWF  FF6
0B5A8:  MOVLW  27
0B5AA:  MOVWF  FF7
0B5AC:  MOVLB  0
0B5AE:  CALL   2F62
0B5B2:  MOVLB  1
.................... if (k==5) printf(lcd_putc,"==                C "); 
0B5B4:  MOVF   xEB,W
0B5B6:  SUBLW  05
0B5B8:  BNZ   B5CA
0B5BA:  MOVLW  EC
0B5BC:  MOVWF  FF6
0B5BE:  MOVLW  27
0B5C0:  MOVWF  FF7
0B5C2:  MOVLB  0
0B5C4:  CALL   2F62
0B5C8:  MOVLB  1
.................... if (k==10) printf(lcd_putc,"==               C  "); 
0B5CA:  MOVF   xEB,W
0B5CC:  SUBLW  0A
0B5CE:  BNZ   B5E0
0B5D0:  MOVLW  02
0B5D2:  MOVWF  FF6
0B5D4:  MOVLW  28
0B5D6:  MOVWF  FF7
0B5D8:  MOVLB  0
0B5DA:  CALL   2F62
0B5DE:  MOVLB  1
.................... if (k==15) printf(lcd_putc,"==              C  A"); 
0B5E0:  MOVF   xEB,W
0B5E2:  SUBLW  0F
0B5E4:  BNZ   B5F6
0B5E6:  MOVLW  18
0B5E8:  MOVWF  FF6
0B5EA:  MOVLW  28
0B5EC:  MOVWF  FF7
0B5EE:  MOVLB  0
0B5F0:  CALL   2F62
0B5F4:  MOVLB  1
.................... if (k==20) printf(lcd_putc,"==             C  A "); 
0B5F6:  MOVF   xEB,W
0B5F8:  SUBLW  14
0B5FA:  BNZ   B60C
0B5FC:  MOVLW  2E
0B5FE:  MOVWF  FF6
0B600:  MOVLW  28
0B602:  MOVWF  FF7
0B604:  MOVLB  0
0B606:  CALL   2F62
0B60A:  MOVLB  1
.................... if (k==25) printf(lcd_putc,"==            C  A  "); 
0B60C:  MOVF   xEB,W
0B60E:  SUBLW  19
0B610:  BNZ   B622
0B612:  MOVLW  44
0B614:  MOVWF  FF6
0B616:  MOVLW  28
0B618:  MOVWF  FF7
0B61A:  MOVLB  0
0B61C:  CALL   2F62
0B620:  MOVLB  1
.................... if (k==30) printf(lcd_putc,"==           C  A  S"); 
0B622:  MOVF   xEB,W
0B624:  SUBLW  1E
0B626:  BNZ   B638
0B628:  MOVLW  5A
0B62A:  MOVWF  FF6
0B62C:  MOVLW  28
0B62E:  MOVWF  FF7
0B630:  MOVLB  0
0B632:  CALL   2F62
0B636:  MOVLB  1
.................... if (k==35) printf(lcd_putc,"==          C  A  S "); 
0B638:  MOVF   xEB,W
0B63A:  SUBLW  23
0B63C:  BNZ   B64E
0B63E:  MOVLW  70
0B640:  MOVWF  FF6
0B642:  MOVLW  28
0B644:  MOVWF  FF7
0B646:  MOVLB  0
0B648:  CALL   2F62
0B64C:  MOVLB  1
.................... if (k==40) printf(lcd_putc,"==         C  A  S  "); 
0B64E:  MOVF   xEB,W
0B650:  SUBLW  28
0B652:  BNZ   B664
0B654:  MOVLW  86
0B656:  MOVWF  FF6
0B658:  MOVLW  28
0B65A:  MOVWF  FF7
0B65C:  MOVLB  0
0B65E:  CALL   2F62
0B662:  MOVLB  1
.................... if (k==45) printf(lcd_putc,"==        C  A  S  A"); 
0B664:  MOVF   xEB,W
0B666:  SUBLW  2D
0B668:  BNZ   B67A
0B66A:  MOVLW  9C
0B66C:  MOVWF  FF6
0B66E:  MOVLW  28
0B670:  MOVWF  FF7
0B672:  MOVLB  0
0B674:  CALL   2F62
0B678:  MOVLB  1
.................... if (k==50) printf(lcd_putc,"==       C  A  S  A "); 
0B67A:  MOVF   xEB,W
0B67C:  SUBLW  32
0B67E:  BNZ   B690
0B680:  MOVLW  B2
0B682:  MOVWF  FF6
0B684:  MOVLW  28
0B686:  MOVWF  FF7
0B688:  MOVLB  0
0B68A:  CALL   2F62
0B68E:  MOVLB  1
.................... if (k==55) printf(lcd_putc,"==      C  A  S  A  "); 
0B690:  MOVF   xEB,W
0B692:  SUBLW  37
0B694:  BNZ   B6A6
0B696:  MOVLW  C8
0B698:  MOVWF  FF6
0B69A:  MOVLW  28
0B69C:  MOVWF  FF7
0B69E:  MOVLB  0
0B6A0:  CALL   2F62
0B6A4:  MOVLB  1
.................... if (k==60) printf(lcd_putc,"==     C  A  S  A  N"); 
0B6A6:  MOVF   xEB,W
0B6A8:  SUBLW  3C
0B6AA:  BNZ   B6BC
0B6AC:  MOVLW  DE
0B6AE:  MOVWF  FF6
0B6B0:  MOVLW  28
0B6B2:  MOVWF  FF7
0B6B4:  MOVLB  0
0B6B6:  CALL   2F62
0B6BA:  MOVLB  1
.................... if (k==65) printf(lcd_putc,"==    C  A  S  A  N "); 
0B6BC:  MOVF   xEB,W
0B6BE:  SUBLW  41
0B6C0:  BNZ   B6D2
0B6C2:  MOVLW  F4
0B6C4:  MOVWF  FF6
0B6C6:  MOVLW  28
0B6C8:  MOVWF  FF7
0B6CA:  MOVLB  0
0B6CC:  CALL   2F62
0B6D0:  MOVLB  1
.................... if (k==70) printf(lcd_putc,"==   C  A  S  A  N  "); 
0B6D2:  MOVF   xEB,W
0B6D4:  SUBLW  46
0B6D6:  BNZ   B6E8
0B6D8:  MOVLW  0A
0B6DA:  MOVWF  FF6
0B6DC:  MOVLW  29
0B6DE:  MOVWF  FF7
0B6E0:  MOVLB  0
0B6E2:  CALL   2F62
0B6E6:  MOVLB  1
.................... if (k==75) printf(lcd_putc,"==  C  A  S  A  N  D"); 
0B6E8:  MOVF   xEB,W
0B6EA:  SUBLW  4B
0B6EC:  BNZ   B6FE
0B6EE:  MOVLW  20
0B6F0:  MOVWF  FF6
0B6F2:  MOVLW  29
0B6F4:  MOVWF  FF7
0B6F6:  MOVLB  0
0B6F8:  CALL   2F62
0B6FC:  MOVLB  1
.................... if (k==80) printf(lcd_putc,"== C  A  S  A  N  D "); 
0B6FE:  MOVF   xEB,W
0B700:  SUBLW  50
0B702:  BNZ   B714
0B704:  MOVLW  36
0B706:  MOVWF  FF6
0B708:  MOVLW  29
0B70A:  MOVWF  FF7
0B70C:  MOVLB  0
0B70E:  CALL   2F62
0B712:  MOVLB  1
.................... if (k==85) printf(lcd_putc,"== C A  S  A  N  D  "); 
0B714:  MOVF   xEB,W
0B716:  SUBLW  55
0B718:  BNZ   B72A
0B71A:  MOVLW  4C
0B71C:  MOVWF  FF6
0B71E:  MOVLW  29
0B720:  MOVWF  FF7
0B722:  MOVLB  0
0B724:  CALL   2F62
0B728:  MOVLB  1
.................... if (k==90) printf(lcd_putc,"== CA  S  A  N  D  R"); 
0B72A:  MOVF   xEB,W
0B72C:  SUBLW  5A
0B72E:  BNZ   B740
0B730:  MOVLW  62
0B732:  MOVWF  FF6
0B734:  MOVLW  29
0B736:  MOVWF  FF7
0B738:  MOVLB  0
0B73A:  CALL   2F62
0B73E:  MOVLB  1
.................... if (k==95) printf(lcd_putc, "== CA S  A  N  D  R "); 
0B740:  MOVF   xEB,W
0B742:  SUBLW  5F
0B744:  BNZ   B756
0B746:  MOVLW  78
0B748:  MOVWF  FF6
0B74A:  MOVLW  29
0B74C:  MOVWF  FF7
0B74E:  MOVLB  0
0B750:  CALL   2F62
0B754:  MOVLB  1
.................... if (k==100) printf(lcd_putc,"== CAS  A  N  D  R  "); 
0B756:  MOVF   xEB,W
0B758:  SUBLW  64
0B75A:  BNZ   B76C
0B75C:  MOVLW  8E
0B75E:  MOVWF  FF6
0B760:  MOVLW  29
0B762:  MOVWF  FF7
0B764:  MOVLB  0
0B766:  CALL   2F62
0B76A:  MOVLB  1
.................... if (k==105) printf(lcd_putc,"== CAS A  N  D  R  A"); 
0B76C:  MOVF   xEB,W
0B76E:  SUBLW  69
0B770:  BNZ   B782
0B772:  MOVLW  A4
0B774:  MOVWF  FF6
0B776:  MOVLW  29
0B778:  MOVWF  FF7
0B77A:  MOVLB  0
0B77C:  CALL   2F62
0B780:  MOVLB  1
.................... if (k==110) printf(lcd_putc,"== CASA  N  D  R  A "); 
0B782:  MOVF   xEB,W
0B784:  SUBLW  6E
0B786:  BNZ   B798
0B788:  MOVLW  BA
0B78A:  MOVWF  FF6
0B78C:  MOVLW  29
0B78E:  MOVWF  FF7
0B790:  MOVLB  0
0B792:  CALL   2F62
0B796:  MOVLB  1
.................... if (k==115) printf(lcd_putc,"== CASA N  D  R  A  "); 
0B798:  MOVF   xEB,W
0B79A:  SUBLW  73
0B79C:  BNZ   B7AE
0B79E:  MOVLW  D0
0B7A0:  MOVWF  FF6
0B7A2:  MOVLW  29
0B7A4:  MOVWF  FF7
0B7A6:  MOVLB  0
0B7A8:  CALL   2F62
0B7AC:  MOVLB  1
.................... if (k==120) printf(lcd_putc,"== CASAN  D  R  A   "); 
0B7AE:  MOVF   xEB,W
0B7B0:  SUBLW  78
0B7B2:  BNZ   B7C4
0B7B4:  MOVLW  E6
0B7B6:  MOVWF  FF6
0B7B8:  MOVLW  29
0B7BA:  MOVWF  FF7
0B7BC:  MOVLB  0
0B7BE:  CALL   2F62
0B7C2:  MOVLB  1
.................... if (k==125) printf(lcd_putc,"== CASAN D  R  A    "); 
0B7C4:  MOVF   xEB,W
0B7C6:  SUBLW  7D
0B7C8:  BNZ   B7DA
0B7CA:  MOVLW  FC
0B7CC:  MOVWF  FF6
0B7CE:  MOVLW  29
0B7D0:  MOVWF  FF7
0B7D2:  MOVLB  0
0B7D4:  CALL   2F62
0B7D8:  MOVLB  1
.................... if (k==130) printf(lcd_putc,"== CASAND  R  A     "); 
0B7DA:  MOVF   xEB,W
0B7DC:  SUBLW  82
0B7DE:  BNZ   B7F0
0B7E0:  MOVLW  12
0B7E2:  MOVWF  FF6
0B7E4:  MOVLW  2A
0B7E6:  MOVWF  FF7
0B7E8:  MOVLB  0
0B7EA:  CALL   2F62
0B7EE:  MOVLB  1
.................... if (k==135) printf(lcd_putc,"== CASAND R  A      "); 
0B7F0:  MOVF   xEB,W
0B7F2:  SUBLW  87
0B7F4:  BNZ   B806
0B7F6:  MOVLW  28
0B7F8:  MOVWF  FF6
0B7FA:  MOVLW  2A
0B7FC:  MOVWF  FF7
0B7FE:  MOVLB  0
0B800:  CALL   2F62
0B804:  MOVLB  1
.................... if (k==140) printf(lcd_putc,"== CASANDR  A       "); 
0B806:  MOVF   xEB,W
0B808:  SUBLW  8C
0B80A:  BNZ   B81C
0B80C:  MOVLW  3E
0B80E:  MOVWF  FF6
0B810:  MOVLW  2A
0B812:  MOVWF  FF7
0B814:  MOVLB  0
0B816:  CALL   2F62
0B81A:  MOVLB  1
.................... if (k==145) printf(lcd_putc,"== CASANDR A        "); 
0B81C:  MOVF   xEB,W
0B81E:  SUBLW  91
0B820:  BNZ   B832
0B822:  MOVLW  54
0B824:  MOVWF  FF6
0B826:  MOVLW  2A
0B828:  MOVWF  FF7
0B82A:  MOVLB  0
0B82C:  CALL   2F62
0B830:  MOVLB  1
.................... if (k==150) printf(lcd_putc,"== CASANDRA         "); 
0B832:  MOVF   xEB,W
0B834:  SUBLW  96
0B836:  BNZ   B848
0B838:  MOVLW  6A
0B83A:  MOVWF  FF6
0B83C:  MOVLW  2A
0B83E:  MOVWF  FF7
0B840:  MOVLB  0
0B842:  CALL   2F62
0B846:  MOVLB  1
.................... if (k==155) printf(lcd_putc,"=== CASANDRA       ="); 
0B848:  MOVF   xEB,W
0B84A:  SUBLW  9B
0B84C:  BNZ   B85E
0B84E:  MOVLW  80
0B850:  MOVWF  FF6
0B852:  MOVLW  2A
0B854:  MOVWF  FF7
0B856:  MOVLB  0
0B858:  CALL   2F62
0B85C:  MOVLB  1
.................... if (k==160) printf(lcd_putc,"==== CASANDRA     =="); 
0B85E:  MOVF   xEB,W
0B860:  SUBLW  A0
0B862:  BNZ   B874
0B864:  MOVLW  96
0B866:  MOVWF  FF6
0B868:  MOVLW  2A
0B86A:  MOVWF  FF7
0B86C:  MOVLB  0
0B86E:  CALL   2F62
0B872:  MOVLB  1
.................... if (k==165) printf(lcd_putc,"===== CASANDRA   ==="); 
0B874:  MOVF   xEB,W
0B876:  SUBLW  A5
0B878:  BNZ   B88A
0B87A:  MOVLW  AC
0B87C:  MOVWF  FF6
0B87E:  MOVLW  2A
0B880:  MOVWF  FF7
0B882:  MOVLB  0
0B884:  CALL   2F62
0B888:  MOVLB  1
.................... if (k==170) printf(lcd_putc,"===== CASANDRA ====="); 
0B88A:  MOVF   xEB,W
0B88C:  SUBLW  AA
0B88E:  BNZ   B8A0
0B890:  MOVLW  C2
0B892:  MOVWF  FF6
0B894:  MOVLW  2A
0B896:  MOVWF  FF7
0B898:  MOVLB  0
0B89A:  CALL   2F62
0B89E:  MOVLB  1
.................... if (k==247) printf(lcd_putc,"     CASANDRA %c     ",220); 
0B8A0:  MOVF   xEB,W
0B8A2:  SUBLW  F7
0B8A4:  BNZ   B8DC
0B8A6:  MOVLW  D8
0B8A8:  MOVWF  FF6
0B8AA:  MOVLW  2A
0B8AC:  MOVWF  FF7
0B8AE:  MOVLW  0E
0B8B0:  MOVLB  2
0B8B2:  MOVWF  x0A
0B8B4:  MOVLB  0
0B8B6:  CALL   3496
0B8BA:  MOVLW  DC
0B8BC:  MOVLB  2
0B8BE:  MOVWF  x0D
0B8C0:  MOVLB  0
0B8C2:  CALL   2EFA
0B8C6:  MOVLW  E8
0B8C8:  MOVWF  FF6
0B8CA:  MOVLW  2A
0B8CC:  MOVWF  FF7
0B8CE:  MOVLW  05
0B8D0:  MOVLB  2
0B8D2:  MOVWF  x0A
0B8D4:  MOVLB  0
0B8D6:  CALL   3496
0B8DA:  MOVLB  1
....................  
.................... lcd_gotoxy(1,2); 
0B8DC:  MOVLW  01
0B8DE:  MOVLB  2
0B8E0:  MOVWF  x0E
0B8E2:  MOVLW  02
0B8E4:  MOVWF  x0F
0B8E6:  MOVLB  0
0B8E8:  CALL   2E90
.................... printf(lcd_putc,"Vers: 0.9b  Jun-2014"); 
0B8EC:  MOVLW  EE
0B8EE:  MOVWF  FF6
0B8F0:  MOVLW  2A
0B8F2:  MOVWF  FF7
0B8F4:  CALL   2F62
.................... lcd_gotoxy(1,3); 
0B8F8:  MOVLW  01
0B8FA:  MOVLB  2
0B8FC:  MOVWF  x0E
0B8FE:  MOVLW  03
0B900:  MOVWF  x0F
0B902:  MOVLB  0
0B904:  CALL   2E90
.................... printf(lcd_putc,"~Gonzalo Carvallo M."); 
0B908:  MOVLW  04
0B90A:  MOVWF  FF6
0B90C:  MOVLW  2B
0B90E:  MOVWF  FF7
0B910:  CALL   2F62
.................... lcd_gotoxy(1,4); 
0B914:  MOVLW  01
0B916:  MOVLB  2
0B918:  MOVWF  x0E
0B91A:  MOVLW  04
0B91C:  MOVWF  x0F
0B91E:  MOVLB  0
0B920:  CALL   2E90
.................... printf(lcd_putc,"~gonzacarv@gmail.com"); 
0B924:  MOVLW  1A
0B926:  MOVWF  FF6
0B928:  MOVLW  2B
0B92A:  MOVWF  FF7
0B92C:  CALL   2F62
.................... restart_wdt(); 
0B930:  CLRWDT
0B932:  MOVLB  1
0B934:  BRA    B576
.................... } // while 
.................... Menu = 1; 
0B936:  MOVLW  01
0B938:  MOVWF  28
0B93A:  MOVLB  0
0B93C:  GOTO   BA5E (RETURN)
.................... } // fn 
....................  

Configuration Fuses:
   Word  1: C100   XT FCMEN IESO
   Word  2: 151E   PUT BROWNOUT BORV21 WDT WDT1024
   Word  3: 8700   CCP2C1 PBADEN LPT1OSC MCLR
   Word  4: 0081   STVREN NOLVP NOXINST NODEBUG
   Word  5: C00F   NOPROTECT NOCPB NOCPD
   Word  6: E00F   NOWRT NOWRTC NOWRTB NOWRTD
   Word  7: 400F   NOEBTR NOEBTRB
